

Microchip MPLAB XC8 Assembler V2.32 build 20210201212658 
                                                                                               Sat Jan 29 20:19:13 2022

Microchip MPLAB XC8 C Compiler v2.32 (Free license) build 20210201212658 Og1 
     1                           	processor	16F877A
     2                           	pagewidth 120
     3                           	opt	flic
     4                           	psect	idataBANK1,global,class=CODE,delta=2,noexec
     5                           	psect	nvBANK1,global,class=BANK1,space=1,delta=1,noexec
     6                           	psect	cinit,global,class=CODE,merge=1,delta=2
     7                           	psect	dataBANK1,global,class=BANK1,space=1,delta=1,noexec
     8                           	psect	cstackBANK1,global,class=BANK1,space=1,delta=1,noexec
     9                           	psect	cstackCOMMON,global,class=COMMON,space=1,delta=1,noexec
    10                           	psect	cstackBANK0,global,class=BANK0,space=1,delta=1,noexec
    11                           	psect	maintext,global,class=CODE,split=1,delta=2
    12                           	psect	text1,local,class=CODE,merge=1,delta=2
    13                           	psect	text2,local,class=CODE,merge=1,delta=2
    14                           	psect	text3,local,class=CODE,merge=1,delta=2,group=1
    15                           	psect	text4,local,class=CODE,merge=1,delta=2,group=1
    16                           	psect	text5,local,class=CODE,merge=1,delta=2,group=1
    17                           	psect	text6,local,class=CODE,merge=1,delta=2,group=1
    18                           	psect	text7,local,class=CODE,merge=1,delta=2,group=1
    19                           	psect	text8,local,class=CODE,merge=1,delta=2,group=1
    20                           	psect	text9,local,class=CODE,merge=1,delta=2
    21                           	psect	text10,local,class=CODE,merge=1,delta=2
    22                           	psect	intentry,global,class=CODE,delta=2
    23                           	psect	config,global,abs,ovrld,class=CONFIG,space=4,delta=2,noexec
    24                           	dabs	1,0x7E,2
    25  0000                     
    26                           ; Version 2.32
    27                           ; Generated 02/02/2021 GMT
    28                           ; 
    29                           ; Copyright © 2021, Microchip Technology Inc. and its subsidiaries ("Microchip")
    30                           ; All rights reserved.
    31                           ; 
    32                           ; This software is developed by Microchip Technology Inc. and its subsidiaries ("Microch
      +                          ip").
    33                           ; 
    34                           ; Redistribution and use in source and binary forms, with or without modification, are
    35                           ; permitted provided that the following conditions are met:
    36                           ; 
    37                           ;     1. Redistributions of source code must retain the above copyright notice, this lis
      +                          t of
    38                           ;        conditions and the following disclaimer.
    39                           ; 
    40                           ;     2. Redistributions in binary form must reproduce the above copyright notice, this 
      +                          list
    41                           ;        of conditions and the following disclaimer in the documentation and/or other
    42                           ;        materials provided with the distribution. Publication is not required when
    43                           ;        this file is used in an embedded application.
    44                           ; 
    45                           ;     3. Microchip's name may not be used to endorse or promote products derived from th
      +                          is
    46                           ;        software without specific prior written permission.
    47                           ; 
    48                           ; THIS SOFTWARE IS PROVIDED BY MICROCHIP "AS IS" AND ANY EXPRESS OR IMPLIED WARRANTIES,
    49                           ; INCLUDING, BUT NOT LIMITED TO, THE IMPLIED WARRANTIES OF MERCHANTABILITY AND FITNESS F
      +                          OR
    50                           ; PURPOSE ARE DISCLAIMED.  IN NO EVENT SHALL MICROCHIP BE LIABLE FOR ANY DIRECT, INDIREC
      +                          T,
    51                           ; INCIDENTAL, SPECIAL, EXEMPLARY, OR CONSEQUENTIAL DAMAGES (INCLUDING BUT NOT LIMITED TO
    52                           ; PROCUREMENT OF SUBSTITUTE GOODS OR SERVICES; LOSS OF USE, DATA OR PROFITS; OR BUSINESS
    53                           ; INTERRUPTION) HOWSOEVER CAUSED AND ON ANY THEORY OF LIABILITY, WHETHER IN CONTRACT, ST
      +                          RICT
    54                           ; LIABILITY, OR TORT (INCLUDING NEGLIGENCE OR OTHERWISE) ARISING IN ANY WAY OUT OF THE U
      +                          SE OF
    55                           ; THIS SOFTWARE, EVEN IF ADVISED OF THE POSSIBILITY OF SUCH DAMAGE.
    56                           ; 
    57                           ; 
    58                           ; Code-generator required, PIC16F877A Definitions
    59                           ; 
    60                           ; SFR Addresses
    61  0000                     	;# 
    62  0001                     	;# 
    63  0002                     	;# 
    64  0003                     	;# 
    65  0004                     	;# 
    66  0005                     	;# 
    67  0006                     	;# 
    68  0007                     	;# 
    69  0008                     	;# 
    70  0009                     	;# 
    71  000A                     	;# 
    72  000B                     	;# 
    73  000C                     	;# 
    74  000D                     	;# 
    75  000E                     	;# 
    76  000E                     	;# 
    77  000F                     	;# 
    78  0010                     	;# 
    79  0011                     	;# 
    80  0012                     	;# 
    81  0013                     	;# 
    82  0014                     	;# 
    83  0015                     	;# 
    84  0015                     	;# 
    85  0016                     	;# 
    86  0017                     	;# 
    87  0018                     	;# 
    88  0019                     	;# 
    89  001A                     	;# 
    90  001B                     	;# 
    91  001B                     	;# 
    92  001C                     	;# 
    93  001D                     	;# 
    94  001E                     	;# 
    95  001F                     	;# 
    96  0081                     	;# 
    97  0085                     	;# 
    98  0086                     	;# 
    99  0087                     	;# 
   100  0088                     	;# 
   101  0089                     	;# 
   102  008C                     	;# 
   103  008D                     	;# 
   104  008E                     	;# 
   105  0091                     	;# 
   106  0092                     	;# 
   107  0093                     	;# 
   108  0094                     	;# 
   109  0098                     	;# 
   110  0099                     	;# 
   111  009C                     	;# 
   112  009D                     	;# 
   113  009E                     	;# 
   114  009F                     	;# 
   115  010C                     	;# 
   116  010D                     	;# 
   117  010E                     	;# 
   118  010F                     	;# 
   119  018C                     	;# 
   120  018D                     	;# 
   121  0000                     	;# 
   122  0001                     	;# 
   123  0002                     	;# 
   124  0003                     	;# 
   125  0004                     	;# 
   126  0005                     	;# 
   127  0006                     	;# 
   128  0007                     	;# 
   129  0008                     	;# 
   130  0009                     	;# 
   131  000A                     	;# 
   132  000B                     	;# 
   133  000C                     	;# 
   134  000D                     	;# 
   135  000E                     	;# 
   136  000E                     	;# 
   137  000F                     	;# 
   138  0010                     	;# 
   139  0011                     	;# 
   140  0012                     	;# 
   141  0013                     	;# 
   142  0014                     	;# 
   143  0015                     	;# 
   144  0015                     	;# 
   145  0016                     	;# 
   146  0017                     	;# 
   147  0018                     	;# 
   148  0019                     	;# 
   149  001A                     	;# 
   150  001B                     	;# 
   151  001B                     	;# 
   152  001C                     	;# 
   153  001D                     	;# 
   154  001E                     	;# 
   155  001F                     	;# 
   156  0081                     	;# 
   157  0085                     	;# 
   158  0086                     	;# 
   159  0087                     	;# 
   160  0088                     	;# 
   161  0089                     	;# 
   162  008C                     	;# 
   163  008D                     	;# 
   164  008E                     	;# 
   165  0091                     	;# 
   166  0092                     	;# 
   167  0093                     	;# 
   168  0094                     	;# 
   169  0098                     	;# 
   170  0099                     	;# 
   171  009C                     	;# 
   172  009D                     	;# 
   173  009E                     	;# 
   174  009F                     	;# 
   175  010C                     	;# 
   176  010D                     	;# 
   177  010E                     	;# 
   178  010F                     	;# 
   179  018C                     	;# 
   180  018D                     	;# 
   181                           
   182                           	psect	idataBANK1
   183  07EB                     __pidataBANK1:
   184                           
   185                           ;initializer for _T
   186  07EB  34D4               	retlw	212
   187  07EC  3430               	retlw	48
   188                           
   189                           	psect	nvBANK1
   190  00B9                     __pnvBANK1:
   191  00B9                     _Toff:
   192  00B9                     	ds	2
   193  00BB                     _Ton:
   194  00BB                     	ds	2
   195  00BD                     _Toff_L:
   196  00BD                     	ds	1
   197  00BE                     _Toff_H:
   198  00BE                     	ds	1
   199  00BF                     _Ton_L:
   200  00BF                     	ds	1
   201  00C0                     _Ton_H:
   202  00C0                     	ds	1
   203  000C                     _PIR1bits	set	12
   204  000E                     _TMR1L	set	14
   205  000F                     _TMR1H	set	15
   206  000B                     _INTCONbits	set	11
   207  0010                     _T1CONbits	set	16
   208  0006                     _PORTBbits	set	6
   209  008C                     _PIE1bits	set	140
   210  0086                     _TRISBbits	set	134
   211                           
   212                           	psect	cinit
   213  000F                     start_initialization:	
   214                           ; #config settings
   215                           
   216  000F                     __initialization:
   217                           
   218                           ; Initialize objects allocated to BANK1
   219  000F  1683               	bsf	3,5	;RP0=1, select bank1
   220  0010  1303               	bcf	3,6	;RP1=0, select bank1
   221  0011  120A  118A  27EB  120A  118A  	fcall	__pidataBANK1	;fetch initializer
   222  0016  00C1               	movwf	__pdataBANK1& (0+127)
   223  0017  120A  118A  27EC  120A  118A  	fcall	__pidataBANK1+1	;fetch initializer
   224  001C  00C2               	movwf	(__pdataBANK1+1)& (0+127)
   225  001D                     end_of_initialization:	
   226                           ;End of C runtime variable initialization code
   227                           
   228  001D                     __end_of__initialization:
   229  001D  0183               	clrf	3
   230  001E  120A  158A  2CC9   	ljmp	_main	;jump to C main() function
   231                           
   232                           	psect	dataBANK1
   233  00C1                     __pdataBANK1:
   234  00C1                     _T:
   235  00C1                     	ds	2
   236                           
   237                           	psect	cstackBANK1
   238  00A0                     __pcstackBANK1:
   239  00A0                     ?___fltol:
   240  00A0                     ___fltol@f1:	
   241                           ; 4 bytes @ 0x0
   242                           
   243                           
   244                           ; 4 bytes @ 0x0
   245  00A0                     	ds	4
   246  00A4                     ??___fltol:
   247                           
   248                           ; 1 bytes @ 0x4
   249  00A4                     	ds	5
   250  00A9                     ??_PWM_Servo:
   251                           
   252                           ; 1 bytes @ 0x9
   253  00A9                     	ds	10
   254  00B3                     PWM_Servo@duty:
   255                           
   256                           ; 2 bytes @ 0x13
   257  00B3                     	ds	2
   258  00B5                     PWM_Servo@angle:
   259                           
   260                           ; 1 bytes @ 0x15
   261  00B5                     	ds	1
   262  00B6                     ??_main:
   263                           
   264                           ; 1 bytes @ 0x16
   265  00B6                     	ds	3
   266                           
   267                           	psect	cstackCOMMON
   268  0070                     __pcstackCOMMON:
   269  0070                     ?_PWM_50Hz_Init:
   270  0070                     ?_PWM_Start:	
   271                           ; 1 bytes @ 0x0
   272                           
   273  0070                     ?_PWM_Servo:	
   274                           ; 1 bytes @ 0x0
   275                           
   276  0070                     ?_main:	
   277                           ; 1 bytes @ 0x0
   278                           
   279  0070                     ?_isr1:	
   280                           ; 1 bytes @ 0x0
   281                           
   282  0070                     ??_isr1:	
   283                           ; 1 bytes @ 0x0
   284                           
   285                           
   286                           ; 1 bytes @ 0x0
   287  0070                     	ds	2
   288  0072                     ??_PWM_50Hz_Init:
   289  0072                     ??_PWM_Start:	
   290                           ; 1 bytes @ 0x2
   291                           
   292  0072                     ?__Umul8_16:	
   293                           ; 1 bytes @ 0x2
   294                           
   295  0072                     ?___xxtofl:	
   296                           ; 2 bytes @ 0x2
   297                           
   298  0072                     __Umul8_16@multiplicand:	
   299                           ; 4 bytes @ 0x2
   300                           
   301  0072                     ___xxtofl@val:	
   302                           ; 1 bytes @ 0x2
   303                           
   304                           
   305                           ; 4 bytes @ 0x2
   306  0072                     	ds	2
   307  0074                     ??__Umul8_16:
   308                           
   309                           ; 1 bytes @ 0x4
   310  0074                     	ds	2
   311  0076                     ??___xxtofl:
   312  0076                     __Umul8_16@product:	
   313                           ; 1 bytes @ 0x6
   314                           
   315                           
   316                           ; 2 bytes @ 0x6
   317  0076                     	ds	2
   318  0078                     __Umul8_16@word_mpld:
   319                           
   320                           ; 2 bytes @ 0x8
   321  0078                     	ds	2
   322  007A                     __Umul8_16@multiplier:
   323                           
   324                           ; 1 bytes @ 0xA
   325  007A                     	ds	2
   326                           
   327                           	psect	cstackBANK0
   328  0020                     __pcstackBANK0:
   329  0020                     ___xxtofl@sign:
   330                           
   331                           ; 1 bytes @ 0x0
   332  0020                     	ds	1
   333  0021                     ___xxtofl@exp:
   334                           
   335                           ; 1 bytes @ 0x1
   336  0021                     	ds	1
   337  0022                     ___xxtofl@arg:
   338                           
   339                           ; 4 bytes @ 0x2
   340  0022                     	ds	4
   341  0026                     ?___fldiv:
   342  0026                     ___fldiv@a:	
   343                           ; 4 bytes @ 0x6
   344                           
   345                           
   346                           ; 4 bytes @ 0x6
   347  0026                     	ds	4
   348  002A                     ___fldiv@b:
   349                           
   350                           ; 4 bytes @ 0xA
   351  002A                     	ds	4
   352  002E                     ??___fldiv:
   353                           
   354                           ; 1 bytes @ 0xE
   355  002E                     	ds	5
   356  0033                     ___fldiv@rem:
   357                           
   358                           ; 4 bytes @ 0x13
   359  0033                     	ds	4
   360  0037                     ___fldiv@sign:
   361                           
   362                           ; 1 bytes @ 0x17
   363  0037                     	ds	1
   364  0038                     ___fldiv@new_exp:
   365                           
   366                           ; 2 bytes @ 0x18
   367  0038                     	ds	2
   368  003A                     ___fldiv@grs:
   369                           
   370                           ; 4 bytes @ 0x1A
   371  003A                     	ds	4
   372  003E                     ___fldiv@bexp:
   373                           
   374                           ; 1 bytes @ 0x1E
   375  003E                     	ds	1
   376  003F                     ___fldiv@aexp:
   377                           
   378                           ; 1 bytes @ 0x1F
   379  003F                     	ds	1
   380  0040                     ?___flmul:
   381  0040                     ___flmul@b:	
   382                           ; 4 bytes @ 0x20
   383                           
   384                           
   385                           ; 4 bytes @ 0x20
   386  0040                     	ds	4
   387  0044                     ___flmul@a:
   388                           
   389                           ; 4 bytes @ 0x24
   390  0044                     	ds	4
   391  0048                     ??___flmul:
   392                           
   393                           ; 1 bytes @ 0x28
   394  0048                     	ds	5
   395  004D                     ___flmul@sign:
   396                           
   397                           ; 1 bytes @ 0x2D
   398  004D                     	ds	1
   399  004E                     ___flmul@grs:
   400                           
   401                           ; 4 bytes @ 0x2E
   402  004E                     	ds	4
   403  0052                     ___flmul@aexp:
   404                           
   405                           ; 1 bytes @ 0x32
   406  0052                     	ds	1
   407  0053                     ___flmul@bexp:
   408                           
   409                           ; 1 bytes @ 0x33
   410  0053                     	ds	1
   411  0054                     ___flmul@prod:
   412                           
   413                           ; 4 bytes @ 0x34
   414  0054                     	ds	4
   415  0058                     ___flmul@temp:
   416                           
   417                           ; 2 bytes @ 0x38
   418  0058                     	ds	2
   419  005A                     ?___fladd:
   420  005A                     ___fladd@b:	
   421                           ; 4 bytes @ 0x3A
   422                           
   423                           
   424                           ; 4 bytes @ 0x3A
   425  005A                     	ds	4
   426  005E                     ___fladd@a:
   427                           
   428                           ; 4 bytes @ 0x3E
   429  005E                     	ds	4
   430  0062                     ??___fladd:
   431                           
   432                           ; 1 bytes @ 0x42
   433  0062                     	ds	8
   434  006A                     ___fladd@signs:
   435                           
   436                           ; 1 bytes @ 0x4A
   437  006A                     	ds	1
   438  006B                     ___fladd@aexp:
   439                           
   440                           ; 1 bytes @ 0x4B
   441  006B                     	ds	1
   442  006C                     ___fladd@bexp:
   443                           
   444                           ; 1 bytes @ 0x4C
   445  006C                     	ds	1
   446  006D                     ___fladd@grs:
   447                           
   448                           ; 1 bytes @ 0x4D
   449  006D                     	ds	1
   450  006E                     ___fltol@sign1:
   451                           
   452                           ; 1 bytes @ 0x4E
   453  006E                     	ds	1
   454  006F                     ___fltol@exp1:
   455                           
   456                           ; 1 bytes @ 0x4F
   457  006F                     	ds	1
   458                           
   459                           	psect	maintext
   460  0CC9                     __pmaintext:	
   461 ;;
   462 ;;Main: autosize = 0, tempsize = 3, incstack = 0, save=0
   463 ;;
   464 ;; *************** function _main *****************
   465 ;; Defined at:
   466 ;;		line 108 in file "newmain.c"
   467 ;; Parameters:    Size  Location     Type
   468 ;;		None
   469 ;; Auto vars:     Size  Location     Type
   470 ;;		None
   471 ;; Return value:  Size  Location     Type
   472 ;;                  1    wreg      void 
   473 ;; Registers used:
   474 ;;		wreg, status,2, status,0, btemp+1, pclath, cstack
   475 ;; Tracked objects:
   476 ;;		On entry : B00/0
   477 ;;		On exit  : 0/0
   478 ;;		Unchanged: 0/0
   479 ;; Data sizes:     COMMON   BANK0   BANK1   BANK3   BANK2
   480 ;;      Params:         0       0       0       0       0
   481 ;;      Locals:         0       0       0       0       0
   482 ;;      Temps:          0       0       3       0       0
   483 ;;      Totals:         0       0       3       0       0
   484 ;;Total ram usage:        3 bytes
   485 ;; Hardware stack levels required when called: 4
   486 ;; This function calls:
   487 ;;		_PWM_50Hz_Init
   488 ;;		_PWM_Servo
   489 ;;		_PWM_Start
   490 ;; This function is called by:
   491 ;;		Startup code after reset
   492 ;; This function uses a non-reentrant model
   493 ;;
   494                           
   495                           
   496                           ;psect for function _main
   497  0CC9                     _main:
   498  0CC9                     l1931:	
   499                           ;incstack = 0
   500                           ; Regs used in _main: [wreg+status,2+status,0+btemp+1+pclath+cstack]
   501                           
   502                           
   503                           ;newmain.c: 110:     PWM_50Hz_Init();
   504  0CC9  120A  158A  252A  120A  158A  	fcall	_PWM_50Hz_Init
   505  0CCE                     l1933:
   506                           
   507                           ;newmain.c: 111:     PWM_Servo(0);
   508  0CCE  3000               	movlw	0
   509  0CCF  120A  158A  2709  120A  158A  	fcall	_PWM_Servo
   510  0CD4                     l1935:
   511                           
   512                           ;newmain.c: 112:     PWM_Start();
   513  0CD4  120A  118A  27E7  120A  158A  	fcall	_PWM_Start
   514  0CD9                     l1937:
   515                           
   516                           ;newmain.c: 115:     {;newmain.c: 116:         PWM_Servo(0);
   517  0CD9  3000               	movlw	0
   518  0CDA  120A  158A  2709  120A  158A  	fcall	_PWM_Servo
   519                           
   520                           ;newmain.c: 117:         _delay((unsigned long)((500)*(20000000/4000.0)));
   521  0CDF  300D               	movlw	13
   522  0CE0  1683               	bsf	3,5	;RP0=1, select bank1
   523  0CE1  1303               	bcf	3,6	;RP1=0, select bank1
   524  0CE2  00B8               	movwf	(??_main^(0+128)+2)
   525  0CE3  30AF               	movlw	175
   526  0CE4  00B7               	movwf	(??_main^(0+128)+1)
   527  0CE5  30B5               	movlw	181
   528  0CE6  00B6               	movwf	??_main^(0+128)
   529  0CE7                     u3277:
   530  0CE7  0BB6               	decfsz	??_main^(0+128),f
   531  0CE8  2CE7               	goto	u3277
   532  0CE9  0BB7               	decfsz	(??_main^(0+128)+1),f
   533  0CEA  2CE7               	goto	u3277
   534  0CEB  0BB8               	decfsz	(??_main^(0+128)+2),f
   535  0CEC  2CE7               	goto	u3277
   536  0CED  2CEE               	nop2
   537  0CEE  2CD9               	goto	l1937
   538  0CEF  120A  118A  280C   	ljmp	start
   539  0CF2                     __end_of_main:
   540                           
   541                           	psect	text1
   542  07E7                     __ptext1:	
   543 ;; *************** function _PWM_Start *****************
   544 ;; Defined at:
   545 ;;		line 57 in file "newmain.c"
   546 ;; Parameters:    Size  Location     Type
   547 ;;		None
   548 ;; Auto vars:     Size  Location     Type
   549 ;;		None
   550 ;; Return value:  Size  Location     Type
   551 ;;                  1    wreg      void 
   552 ;; Registers used:
   553 ;;		None
   554 ;; Tracked objects:
   555 ;;		On entry : 0/0
   556 ;;		On exit  : 0/0
   557 ;;		Unchanged: 0/0
   558 ;; Data sizes:     COMMON   BANK0   BANK1   BANK3   BANK2
   559 ;;      Params:         0       0       0       0       0
   560 ;;      Locals:         0       0       0       0       0
   561 ;;      Temps:          0       0       0       0       0
   562 ;;      Totals:         0       0       0       0       0
   563 ;;Total ram usage:        0 bytes
   564 ;; Hardware stack levels used: 1
   565 ;; Hardware stack levels required when called: 1
   566 ;; This function calls:
   567 ;;		Nothing
   568 ;; This function is called by:
   569 ;;		_main
   570 ;; This function uses a non-reentrant model
   571 ;;
   572                           
   573                           
   574                           ;psect for function _PWM_Start
   575  07E7                     _PWM_Start:
   576  07E7                     l1247:	
   577                           ;incstack = 0
   578                           ; Regs used in _PWM_Start: []
   579                           
   580                           
   581                           ;newmain.c: 60:     T1CONbits.TMR1ON = 1;
   582  07E7  1283               	bcf	3,5	;RP0=0, select bank0
   583  07E8  1303               	bcf	3,6	;RP1=0, select bank0
   584  07E9  1410               	bsf	16,0	;volatile
   585  07EA                     l38:
   586  07EA  0008               	return
   587  07EB                     __end_of_PWM_Start:
   588                           
   589                           	psect	text2
   590  0F09                     __ptext2:	
   591 ;; *************** function _PWM_Servo *****************
   592 ;; Defined at:
   593 ;;		line 94 in file "newmain.c"
   594 ;; Parameters:    Size  Location     Type
   595 ;;  angle           1    wreg     unsigned char 
   596 ;; Auto vars:     Size  Location     Type
   597 ;;  angle           1   21[BANK1 ] unsigned char 
   598 ;;  duty            2   19[BANK1 ] unsigned int 
   599 ;; Return value:  Size  Location     Type
   600 ;;                  1    wreg      void 
   601 ;; Registers used:
   602 ;;		wreg, status,2, status,0, btemp+1, pclath, cstack
   603 ;; Tracked objects:
   604 ;;		On entry : 0/0
   605 ;;		On exit  : 0/0
   606 ;;		Unchanged: 0/0
   607 ;; Data sizes:     COMMON   BANK0   BANK1   BANK3   BANK2
   608 ;;      Params:         0       0       0       0       0
   609 ;;      Locals:         0       0       3       0       0
   610 ;;      Temps:          0       0      10       0       0
   611 ;;      Totals:         0       0      13       0       0
   612 ;;Total ram usage:       13 bytes
   613 ;; Hardware stack levels used: 1
   614 ;; Hardware stack levels required when called: 3
   615 ;; This function calls:
   616 ;;		___fladd
   617 ;;		___fldiv
   618 ;;		___flmul
   619 ;;		___fltol
   620 ;;		___xxtofl
   621 ;; This function is called by:
   622 ;;		_main
   623 ;; This function uses a non-reentrant model
   624 ;;
   625                           
   626                           
   627                           ;psect for function _PWM_Servo
   628  0F09                     _PWM_Servo:
   629                           
   630                           ;incstack = 0
   631                           ; Regs used in _PWM_Servo: [wreg+status,2+status,0+btemp+1+pclath+cstack]
   632                           ;PWM_Servo@angle stored from wreg
   633  0F09  1683               	bsf	3,5	;RP0=1, select bank1
   634  0F0A  1303               	bcf	3,6	;RP1=0, select bank1
   635  0F0B  00B5               	movwf	PWM_Servo@angle^(0+128)
   636  0F0C                     l1895:
   637                           
   638                           ;newmain.c: 94: void PWM_Servo(unsigned char angle);newmain.c: 95: {;newmain.c: 96:     
      +                          unsigned int duty = (angle/180.0)*625+625;
   639  0F0C  0835               	movf	PWM_Servo@angle^(0+128),w
   640  0F0D  00A9               	movwf	??_PWM_Servo^(0+128)
   641  0F0E  01AA               	clrf	(??_PWM_Servo^(0+128)+1)
   642  0F0F  01AB               	clrf	(??_PWM_Servo^(0+128)+2)
   643  0F10  01AC               	clrf	(??_PWM_Servo^(0+128)+3)
   644  0F11  082C               	movf	(??_PWM_Servo+3)^(0+128),w
   645  0F12  00F5               	movwf	___xxtofl@val+3
   646  0F13  082B               	movf	(??_PWM_Servo+2)^(0+128),w
   647  0F14  00F4               	movwf	___xxtofl@val+2
   648  0F15  082A               	movf	(??_PWM_Servo+1)^(0+128),w
   649  0F16  00F3               	movwf	___xxtofl@val+1
   650  0F17  0829               	movf	??_PWM_Servo^(0+128),w
   651  0F18  00F2               	movwf	___xxtofl@val
   652  0F19  3001               	movlw	1
   653  0F1A  120A  158A  264D  120A  158A  	fcall	___xxtofl
   654  0F1F  0875               	movf	?___xxtofl+3,w
   655  0F20  1283               	bcf	3,5	;RP0=0, select bank0
   656  0F21  1303               	bcf	3,6	;RP1=0, select bank0
   657  0F22  00AD               	movwf	___fldiv@b+3
   658  0F23  0874               	movf	?___xxtofl+2,w
   659  0F24  00AC               	movwf	___fldiv@b+2
   660  0F25  0873               	movf	?___xxtofl+1,w
   661  0F26  00AB               	movwf	___fldiv@b+1
   662  0F27  0872               	movf	?___xxtofl,w
   663  0F28  00AA               	movwf	___fldiv@b
   664  0F29  3043               	movlw	67
   665  0F2A  00A9               	movwf	___fldiv@a+3
   666  0F2B  3034               	movlw	52
   667  0F2C  00A8               	movwf	___fldiv@a+2
   668  0F2D  3000               	movlw	0
   669  0F2E  00A7               	movwf	___fldiv@a+1
   670  0F2F  3000               	movlw	0
   671  0F30  00A6               	movwf	___fldiv@a
   672  0F31  120A  118A  260A  120A  158A  	fcall	___fldiv
   673  0F36  1283               	bcf	3,5	;RP0=0, select bank0
   674  0F37  1303               	bcf	3,6	;RP1=0, select bank0
   675  0F38  0829               	movf	?___fldiv+3,w
   676  0F39  00C7               	movwf	___flmul@a+3
   677  0F3A  0828               	movf	?___fldiv+2,w
   678  0F3B  00C6               	movwf	___flmul@a+2
   679  0F3C  0827               	movf	?___fldiv+1,w
   680  0F3D  00C5               	movwf	___flmul@a+1
   681  0F3E  0826               	movf	?___fldiv,w
   682  0F3F  00C4               	movwf	___flmul@a
   683  0F40  3044               	movlw	68
   684  0F41  00C3               	movwf	___flmul@b+3
   685  0F42  301C               	movlw	28
   686  0F43  00C2               	movwf	___flmul@b+2
   687  0F44  3040               	movlw	64
   688  0F45  00C1               	movwf	___flmul@b+1
   689  0F46  3000               	movlw	0
   690  0F47  00C0               	movwf	___flmul@b
   691  0F48  120A  118A  2021  120A  158A  	fcall	___flmul
   692  0F4D  1283               	bcf	3,5	;RP0=0, select bank0
   693  0F4E  1303               	bcf	3,6	;RP1=0, select bank0
   694  0F4F  0843               	movf	?___flmul+3,w
   695  0F50  00E1               	movwf	___fladd@a+3
   696  0F51  0842               	movf	?___flmul+2,w
   697  0F52  00E0               	movwf	___fladd@a+2
   698  0F53  0841               	movf	?___flmul+1,w
   699  0F54  00DF               	movwf	___fladd@a+1
   700  0F55  0840               	movf	?___flmul,w
   701  0F56  00DE               	movwf	___fladd@a
   702  0F57  3044               	movlw	68
   703  0F58  00DD               	movwf	___fladd@b+3
   704  0F59  301C               	movlw	28
   705  0F5A  00DC               	movwf	___fladd@b+2
   706  0F5B  3040               	movlw	64
   707  0F5C  00DB               	movwf	___fladd@b+1
   708  0F5D  3000               	movlw	0
   709  0F5E  00DA               	movwf	___fladd@b
   710  0F5F  120A  118A  2382  120A  158A  	fcall	___fladd
   711  0F64  1283               	bcf	3,5	;RP0=0, select bank0
   712  0F65  1303               	bcf	3,6	;RP1=0, select bank0
   713  0F66  085D               	movf	?___fladd+3,w
   714  0F67  1683               	bsf	3,5	;RP0=1, select bank1
   715  0F68  1303               	bcf	3,6	;RP1=0, select bank1
   716  0F69  00A3               	movwf	(___fltol@f1+3)^(0+128)
   717  0F6A  1283               	bcf	3,5	;RP0=0, select bank0
   718  0F6B  1303               	bcf	3,6	;RP1=0, select bank0
   719  0F6C  085C               	movf	?___fladd+2,w
   720  0F6D  1683               	bsf	3,5	;RP0=1, select bank1
   721  0F6E  1303               	bcf	3,6	;RP1=0, select bank1
   722  0F6F  00A2               	movwf	(___fltol@f1+2)^(0+128)
   723  0F70  1283               	bcf	3,5	;RP0=0, select bank0
   724  0F71  1303               	bcf	3,6	;RP1=0, select bank0
   725  0F72  085B               	movf	?___fladd+1,w
   726  0F73  1683               	bsf	3,5	;RP0=1, select bank1
   727  0F74  1303               	bcf	3,6	;RP1=0, select bank1
   728  0F75  00A1               	movwf	(___fltol@f1+1)^(0+128)
   729  0F76  1283               	bcf	3,5	;RP0=0, select bank0
   730  0F77  1303               	bcf	3,6	;RP1=0, select bank0
   731  0F78  085A               	movf	?___fladd,w
   732  0F79  1683               	bsf	3,5	;RP0=1, select bank1
   733  0F7A  1303               	bcf	3,6	;RP1=0, select bank1
   734  0F7B  00A0               	movwf	___fltol@f1^(0+128)
   735  0F7C  120A  158A  25BB  120A  158A  	fcall	___fltol
   736  0F81  1683               	bsf	3,5	;RP0=1, select bank1
   737  0F82  1303               	bcf	3,6	;RP1=0, select bank1
   738  0F83  0821               	movf	(?___fltol+1)^(0+128),w
   739  0F84  00B4               	movwf	(PWM_Servo@duty+1)^(0+128)
   740  0F85  0820               	movf	?___fltol^(0+128),w
   741  0F86  00B3               	movwf	PWM_Servo@duty^(0+128)
   742  0F87                     l1897:
   743                           
   744                           ;newmain.c: 98:     Ton = duty;
   745  0F87  0834               	movf	(PWM_Servo@duty+1)^(0+128),w
   746  0F88  00BC               	movwf	(_Ton+1)^(0+128)
   747  0F89  0833               	movf	PWM_Servo@duty^(0+128),w
   748  0F8A  00BB               	movwf	_Ton^(0+128)
   749  0F8B                     l1899:
   750                           
   751                           ;newmain.c: 99:     Toff = T - Ton;
   752  0F8B  30D4               	movlw	212
   753  0F8C  00A9               	movwf	??_PWM_Servo^(0+128)
   754  0F8D  3030               	movlw	48
   755  0F8E  00AA               	movwf	(??_PWM_Servo^(0+128)+1)
   756  0F8F  083B               	movf	_Ton^(0+128),w
   757  0F90  0229               	subwf	??_PWM_Servo^(0+128),w
   758  0F91  00B9               	movwf	_Toff^(0+128)
   759  0F92  083C               	movf	(_Ton+1)^(0+128),w
   760  0F93  1C03               	skipc
   761  0F94  0A3C               	incf	(_Ton+1)^(0+128),w
   762  0F95  022A               	subwf	(??_PWM_Servo+1)^(0+128),w
   763  0F96  00BA               	movwf	(_Toff+1)^(0+128)
   764  0F97                     l1901:
   765                           
   766                           ;newmain.c: 101:     Ton_H = (65536 - Ton) >> 8;
   767  0F97  083B               	movf	_Ton^(0+128),w
   768  0F98  00A9               	movwf	??_PWM_Servo^(0+128)
   769  0F99  083C               	movf	(_Ton+1)^(0+128),w
   770  0F9A  00AA               	movwf	(??_PWM_Servo^(0+128)+1)
   771  0F9B  01AB               	clrf	(??_PWM_Servo^(0+128)+2)
   772  0F9C  01AC               	clrf	(??_PWM_Servo^(0+128)+3)
   773  0F9D  3000               	movlw	0
   774  0F9E  00AD               	movwf	(??_PWM_Servo+4)^(0+128)
   775  0F9F  3000               	movlw	0
   776  0FA0  00AE               	movwf	((??_PWM_Servo+4)^(0+128)+1)
   777  0FA1  3001               	movlw	1
   778  0FA2  00AF               	movwf	((??_PWM_Servo+4)^(0+128)+2)
   779  0FA3  3000               	movlw	0
   780  0FA4  00B0               	movwf	((??_PWM_Servo+4)^(0+128)+3)
   781  0FA5  0829               	movf	??_PWM_Servo^(0+128),w
   782  0FA6  02AD               	subwf	(??_PWM_Servo+4)^(0+128),f
   783  0FA7  082A               	movf	(??_PWM_Servo+1)^(0+128),w
   784  0FA8  1C03               	skipc
   785  0FA9  0F2A               	incfsz	(??_PWM_Servo+1)^(0+128),w
   786  0FAA  2FAC               	goto	u3011
   787  0FAB  2FAD               	goto	u3012
   788  0FAC                     u3011:
   789  0FAC  02AE               	subwf	((??_PWM_Servo+4)^(0+128)+1),f
   790  0FAD                     u3012:
   791  0FAD  082B               	movf	(??_PWM_Servo+2)^(0+128),w
   792  0FAE  1C03               	skipc
   793  0FAF  0F2B               	incfsz	(??_PWM_Servo+2)^(0+128),w
   794  0FB0  2FB2               	goto	u3013
   795  0FB1  2FB3               	goto	u3014
   796  0FB2                     u3013:
   797  0FB2  02AF               	subwf	((??_PWM_Servo+4)^(0+128)+2),f
   798  0FB3                     u3014:
   799  0FB3  082C               	movf	(??_PWM_Servo+3)^(0+128),w
   800  0FB4  1C03               	skipc
   801  0FB5  0F2C               	incfsz	(??_PWM_Servo+3)^(0+128),w
   802  0FB6  2FB8               	goto	u3015
   803  0FB7  2FB9               	goto	u3016
   804  0FB8                     u3015:
   805  0FB8  02B0               	subwf	((??_PWM_Servo+4)^(0+128)+3),f
   806  0FB9                     u3016:
   807  0FB9  3008               	movlw	8
   808  0FBA  00B1               	movwf	(??_PWM_Servo+8)^(0+128)
   809  0FBB                     u3025:
   810  0FBB  0D30               	rlf	((??_PWM_Servo+4)^(0+128)+3),w
   811  0FBC  0CB0               	rrf	((??_PWM_Servo+4)^(0+128)+3),f
   812  0FBD  0CAF               	rrf	((??_PWM_Servo+4)^(0+128)+2),f
   813  0FBE  0CAE               	rrf	((??_PWM_Servo+4)^(0+128)+1),f
   814  0FBF  0CAD               	rrf	(??_PWM_Servo+4)^(0+128),f
   815  0FC0                     u3020:
   816  0FC0  0BB1               	decfsz	(??_PWM_Servo+8)^(0+128),f
   817  0FC1  2FBB               	goto	u3025
   818  0FC2  082D               	movf	(??_PWM_Servo+4)^(0+128),w
   819  0FC3  00B2               	movwf	(??_PWM_Servo+9)^(0+128)
   820  0FC4  0832               	movf	(??_PWM_Servo+9)^(0+128),w
   821  0FC5  00C0               	movwf	_Ton_H^(0+128)
   822  0FC6                     l1903:
   823                           
   824                           ;newmain.c: 102:     Ton_L = (65536 - Ton) & 0x00FF;
   825  0FC6  083B               	movf	_Ton^(0+128),w
   826  0FC7  3C00               	sublw	0
   827  0FC8  00A9               	movwf	??_PWM_Servo^(0+128)
   828  0FC9  0829               	movf	??_PWM_Servo^(0+128),w
   829  0FCA  00BF               	movwf	_Ton_L^(0+128)
   830  0FCB                     l1905:
   831                           
   832                           ;newmain.c: 104:     Toff_H = (65536 - Toff) >> 8;
   833  0FCB  0839               	movf	_Toff^(0+128),w
   834  0FCC  00A9               	movwf	??_PWM_Servo^(0+128)
   835  0FCD  083A               	movf	(_Toff+1)^(0+128),w
   836  0FCE  00AA               	movwf	(??_PWM_Servo^(0+128)+1)
   837  0FCF  01AB               	clrf	(??_PWM_Servo^(0+128)+2)
   838  0FD0  01AC               	clrf	(??_PWM_Servo^(0+128)+3)
   839  0FD1  3000               	movlw	0
   840  0FD2  00AD               	movwf	(??_PWM_Servo+4)^(0+128)
   841  0FD3  3000               	movlw	0
   842  0FD4  00AE               	movwf	((??_PWM_Servo+4)^(0+128)+1)
   843  0FD5  3001               	movlw	1
   844  0FD6  00AF               	movwf	((??_PWM_Servo+4)^(0+128)+2)
   845  0FD7  3000               	movlw	0
   846  0FD8  00B0               	movwf	((??_PWM_Servo+4)^(0+128)+3)
   847  0FD9  0829               	movf	??_PWM_Servo^(0+128),w
   848  0FDA  02AD               	subwf	(??_PWM_Servo+4)^(0+128),f
   849  0FDB  082A               	movf	(??_PWM_Servo+1)^(0+128),w
   850  0FDC  1C03               	skipc
   851  0FDD  0F2A               	incfsz	(??_PWM_Servo+1)^(0+128),w
   852  0FDE  2FE0               	goto	u3031
   853  0FDF  2FE1               	goto	u3032
   854  0FE0                     u3031:
   855  0FE0  02AE               	subwf	((??_PWM_Servo+4)^(0+128)+1),f
   856  0FE1                     u3032:
   857  0FE1  082B               	movf	(??_PWM_Servo+2)^(0+128),w
   858  0FE2  1C03               	skipc
   859  0FE3  0F2B               	incfsz	(??_PWM_Servo+2)^(0+128),w
   860  0FE4  2FE6               	goto	u3033
   861  0FE5  2FE7               	goto	u3034
   862  0FE6                     u3033:
   863  0FE6  02AF               	subwf	((??_PWM_Servo+4)^(0+128)+2),f
   864  0FE7                     u3034:
   865  0FE7  082C               	movf	(??_PWM_Servo+3)^(0+128),w
   866  0FE8  1C03               	skipc
   867  0FE9  0F2C               	incfsz	(??_PWM_Servo+3)^(0+128),w
   868  0FEA  2FEC               	goto	u3035
   869  0FEB  2FED               	goto	u3036
   870  0FEC                     u3035:
   871  0FEC  02B0               	subwf	((??_PWM_Servo+4)^(0+128)+3),f
   872  0FED                     u3036:
   873  0FED  3008               	movlw	8
   874  0FEE  00B1               	movwf	(??_PWM_Servo+8)^(0+128)
   875  0FEF                     u3045:
   876  0FEF  0D30               	rlf	((??_PWM_Servo+4)^(0+128)+3),w
   877  0FF0  0CB0               	rrf	((??_PWM_Servo+4)^(0+128)+3),f
   878  0FF1  0CAF               	rrf	((??_PWM_Servo+4)^(0+128)+2),f
   879  0FF2  0CAE               	rrf	((??_PWM_Servo+4)^(0+128)+1),f
   880  0FF3  0CAD               	rrf	(??_PWM_Servo+4)^(0+128),f
   881  0FF4                     u3040:
   882  0FF4  0BB1               	decfsz	(??_PWM_Servo+8)^(0+128),f
   883  0FF5  2FEF               	goto	u3045
   884  0FF6  082D               	movf	(??_PWM_Servo+4)^(0+128),w
   885  0FF7  00B2               	movwf	(??_PWM_Servo+9)^(0+128)
   886  0FF8  0832               	movf	(??_PWM_Servo+9)^(0+128),w
   887  0FF9  00BE               	movwf	_Toff_H^(0+128)
   888  0FFA                     l1907:
   889                           
   890                           ;newmain.c: 105:     Toff_L = (65536 - Toff) & 0x00FF;
   891  0FFA  0839               	movf	_Toff^(0+128),w
   892  0FFB  3C00               	sublw	0
   893  0FFC  00A9               	movwf	??_PWM_Servo^(0+128)
   894  0FFD  0829               	movf	??_PWM_Servo^(0+128),w
   895  0FFE  00BD               	movwf	_Toff_L^(0+128)
   896  0FFF                     l51:
   897  0FFF  0008               	return
   898  1000                     __end_of_PWM_Servo:
   899                           
   900                           	psect	text3
   901  0E4D                     __ptext3:	
   902 ;; *************** function ___xxtofl *****************
   903 ;; Defined at:
   904 ;;		line 10 in file "D:\File Install MBLAB IDE\XC8\pic\sources\c90\common\xxtofl.c"
   905 ;; Parameters:    Size  Location     Type
   906 ;;  sign            1    wreg     unsigned char 
   907 ;;  val             4    2[COMMON] long 
   908 ;; Auto vars:     Size  Location     Type
   909 ;;  sign            1    0[BANK0 ] unsigned char 
   910 ;;  arg             4    2[BANK0 ] unsigned long 
   911 ;;  exp             1    1[BANK0 ] unsigned char 
   912 ;; Return value:  Size  Location     Type
   913 ;;                  4    2[COMMON] unsigned char 
   914 ;; Registers used:
   915 ;;		wreg, status,2, status,0
   916 ;; Tracked objects:
   917 ;;		On entry : 0/0
   918 ;;		On exit  : 0/0
   919 ;;		Unchanged: 0/0
   920 ;; Data sizes:     COMMON   BANK0   BANK1   BANK3   BANK2
   921 ;;      Params:         4       0       0       0       0
   922 ;;      Locals:         0       6       0       0       0
   923 ;;      Temps:          4       0       0       0       0
   924 ;;      Totals:         8       6       0       0       0
   925 ;;Total ram usage:       14 bytes
   926 ;; Hardware stack levels used: 1
   927 ;; Hardware stack levels required when called: 1
   928 ;; This function calls:
   929 ;;		Nothing
   930 ;; This function is called by:
   931 ;;		_PWM_Servo
   932 ;; This function uses a non-reentrant model
   933 ;;
   934                           
   935                           
   936                           ;psect for function ___xxtofl
   937  0E4D                     ___xxtofl:
   938                           
   939                           ;incstack = 0
   940                           ; Regs used in ___xxtofl: [wreg+status,2+status,0]
   941                           ;___xxtofl@sign stored from wreg
   942  0E4D  1283               	bcf	3,5	;RP0=0, select bank0
   943  0E4E  1303               	bcf	3,6	;RP1=0, select bank0
   944  0E4F  00A0               	movwf	___xxtofl@sign
   945  0E50                     l1833:
   946  0E50  0820               	movf	___xxtofl@sign,w
   947  0E51  1903               	btfsc	3,2
   948  0E52  2E54               	goto	u2831
   949  0E53  2E55               	goto	u2830
   950  0E54                     u2831:
   951  0E54  2E69               	goto	l1839
   952  0E55                     u2830:
   953  0E55                     l1835:
   954  0E55  1FF5               	btfss	___xxtofl@val+3,7
   955  0E56  2E58               	goto	u2841
   956  0E57  2E59               	goto	u2840
   957  0E58                     u2841:
   958  0E58  2E69               	goto	l1839
   959  0E59                     u2840:
   960  0E59                     l1837:
   961  0E59  0972               	comf	___xxtofl@val,w
   962  0E5A  00A2               	movwf	___xxtofl@arg
   963  0E5B  0973               	comf	___xxtofl@val+1,w
   964  0E5C  00A3               	movwf	___xxtofl@arg+1
   965  0E5D  0974               	comf	___xxtofl@val+2,w
   966  0E5E  00A4               	movwf	___xxtofl@arg+2
   967  0E5F  0975               	comf	___xxtofl@val+3,w
   968  0E60  00A5               	movwf	___xxtofl@arg+3
   969  0E61  0AA2               	incf	___xxtofl@arg,f
   970  0E62  1903               	skipnz
   971  0E63  0AA3               	incf	___xxtofl@arg+1,f
   972  0E64  1903               	skipnz
   973  0E65  0AA4               	incf	___xxtofl@arg+2,f
   974  0E66  1903               	skipnz
   975  0E67  0AA5               	incf	___xxtofl@arg+3,f
   976  0E68  2E71               	goto	l586
   977  0E69                     l1839:
   978  0E69  0875               	movf	___xxtofl@val+3,w
   979  0E6A  00A5               	movwf	___xxtofl@arg+3
   980  0E6B  0874               	movf	___xxtofl@val+2,w
   981  0E6C  00A4               	movwf	___xxtofl@arg+2
   982  0E6D  0873               	movf	___xxtofl@val+1,w
   983  0E6E  00A3               	movwf	___xxtofl@arg+1
   984  0E6F  0872               	movf	___xxtofl@val,w
   985  0E70  00A2               	movwf	___xxtofl@arg
   986  0E71                     l586:
   987  0E71  0875               	movf	___xxtofl@val+3,w
   988  0E72  0474               	iorwf	___xxtofl@val+2,w
   989  0E73  0473               	iorwf	___xxtofl@val+1,w
   990  0E74  0472               	iorwf	___xxtofl@val,w
   991  0E75  1D03               	skipz
   992  0E76  2E78               	goto	u2851
   993  0E77  2E79               	goto	u2850
   994  0E78                     u2851:
   995  0E78  2E82               	goto	l1845
   996  0E79                     u2850:
   997  0E79                     l1841:
   998  0E79  3000               	movlw	0
   999  0E7A  00F5               	movwf	?___xxtofl+3
  1000  0E7B  3000               	movlw	0
  1001  0E7C  00F4               	movwf	?___xxtofl+2
  1002  0E7D  3000               	movlw	0
  1003  0E7E  00F3               	movwf	?___xxtofl+1
  1004  0E7F  3000               	movlw	0
  1005  0E80  00F2               	movwf	?___xxtofl
  1006  0E81  2F08               	goto	l588
  1007  0E82                     l1845:
  1008  0E82  3096               	movlw	150
  1009  0E83  00F6               	movwf	??___xxtofl
  1010  0E84  0876               	movf	??___xxtofl,w
  1011  0E85  00A1               	movwf	___xxtofl@exp
  1012  0E86  2E94               	goto	l1849
  1013  0E87                     l1847:
  1014  0E87  3001               	movlw	1
  1015  0E88  00F6               	movwf	??___xxtofl
  1016  0E89  0876               	movf	??___xxtofl,w
  1017  0E8A  07A1               	addwf	___xxtofl@exp,f
  1018  0E8B  3001               	movlw	1
  1019  0E8C                     u2865:
  1020  0E8C  1003               	clrc
  1021  0E8D  0CA5               	rrf	___xxtofl@arg+3,f
  1022  0E8E  0CA4               	rrf	___xxtofl@arg+2,f
  1023  0E8F  0CA3               	rrf	___xxtofl@arg+1,f
  1024  0E90  0CA2               	rrf	___xxtofl@arg,f
  1025  0E91  3EFF               	addlw	-1
  1026  0E92  1D03               	skipz
  1027  0E93  2E8C               	goto	u2865
  1028  0E94                     l1849:
  1029  0E94  30FE               	movlw	254
  1030  0E95  0525               	andwf	___xxtofl@arg+3,w
  1031  0E96  1D03               	btfss	3,2
  1032  0E97  2E99               	goto	u2871
  1033  0E98  2E9A               	goto	u2870
  1034  0E99                     u2871:
  1035  0E99  2E87               	goto	l1847
  1036  0E9A                     u2870:
  1037  0E9A  2EB6               	goto	l592
  1038  0E9B                     l1851:
  1039  0E9B  3001               	movlw	1
  1040  0E9C  00F6               	movwf	??___xxtofl
  1041  0E9D  0876               	movf	??___xxtofl,w
  1042  0E9E  07A1               	addwf	___xxtofl@exp,f
  1043  0E9F                     l1853:
  1044  0E9F  3001               	movlw	1
  1045  0EA0  07A2               	addwf	___xxtofl@arg,f
  1046  0EA1  3000               	movlw	0
  1047  0EA2  1803               	skipnc
  1048  0EA3  3001               	movlw	1
  1049  0EA4  07A3               	addwf	___xxtofl@arg+1,f
  1050  0EA5  3000               	movlw	0
  1051  0EA6  1803               	skipnc
  1052  0EA7  3001               	movlw	1
  1053  0EA8  07A4               	addwf	___xxtofl@arg+2,f
  1054  0EA9  3000               	movlw	0
  1055  0EAA  1803               	skipnc
  1056  0EAB  3001               	movlw	1
  1057  0EAC  07A5               	addwf	___xxtofl@arg+3,f
  1058  0EAD                     l1855:
  1059  0EAD  3001               	movlw	1
  1060  0EAE                     u2885:
  1061  0EAE  1003               	clrc
  1062  0EAF  0CA5               	rrf	___xxtofl@arg+3,f
  1063  0EB0  0CA4               	rrf	___xxtofl@arg+2,f
  1064  0EB1  0CA3               	rrf	___xxtofl@arg+1,f
  1065  0EB2  0CA2               	rrf	___xxtofl@arg,f
  1066  0EB3  3EFF               	addlw	-1
  1067  0EB4  1D03               	skipz
  1068  0EB5  2EAE               	goto	u2885
  1069  0EB6                     l592:
  1070  0EB6  30FF               	movlw	255
  1071  0EB7  0525               	andwf	___xxtofl@arg+3,w
  1072  0EB8  1D03               	btfss	3,2
  1073  0EB9  2EBB               	goto	u2891
  1074  0EBA  2EBC               	goto	u2890
  1075  0EBB                     u2891:
  1076  0EBB  2E9B               	goto	l1851
  1077  0EBC                     u2890:
  1078  0EBC  2EC8               	goto	l1859
  1079  0EBD                     l1857:
  1080  0EBD  3001               	movlw	1
  1081  0EBE  02A1               	subwf	___xxtofl@exp,f
  1082  0EBF  3001               	movlw	1
  1083  0EC0  00F6               	movwf	??___xxtofl
  1084  0EC1                     u2905:
  1085  0EC1  1003               	clrc
  1086  0EC2  0DA2               	rlf	___xxtofl@arg,f
  1087  0EC3  0DA3               	rlf	___xxtofl@arg+1,f
  1088  0EC4  0DA4               	rlf	___xxtofl@arg+2,f
  1089  0EC5  0DA5               	rlf	___xxtofl@arg+3,f
  1090  0EC6  0BF6               	decfsz	??___xxtofl,f
  1091  0EC7  2EC1               	goto	u2905
  1092  0EC8                     l1859:
  1093  0EC8  1BA4               	btfsc	___xxtofl@arg+2,7
  1094  0EC9  2ECB               	goto	u2911
  1095  0ECA  2ECC               	goto	u2910
  1096  0ECB                     u2911:
  1097  0ECB  2ED2               	goto	l599
  1098  0ECC                     u2910:
  1099  0ECC                     l1861:
  1100  0ECC  3002               	movlw	2
  1101  0ECD  0221               	subwf	___xxtofl@exp,w
  1102  0ECE  1803               	skipnc
  1103  0ECF  2ED1               	goto	u2921
  1104  0ED0  2ED2               	goto	u2920
  1105  0ED1                     u2921:
  1106  0ED1  2EBD               	goto	l1857
  1107  0ED2                     u2920:
  1108  0ED2                     l599:
  1109  0ED2  1821               	btfsc	___xxtofl@exp,0
  1110  0ED3  2ED5               	goto	u2931
  1111  0ED4  2ED6               	goto	u2930
  1112  0ED5                     u2931:
  1113  0ED5  2EDE               	goto	l600
  1114  0ED6                     u2930:
  1115  0ED6                     l1863:
  1116  0ED6  30FF               	movlw	255
  1117  0ED7  05A2               	andwf	___xxtofl@arg,f
  1118  0ED8  30FF               	movlw	255
  1119  0ED9  05A3               	andwf	___xxtofl@arg+1,f
  1120  0EDA  307F               	movlw	127
  1121  0EDB  05A4               	andwf	___xxtofl@arg+2,f
  1122  0EDC  30FF               	movlw	255
  1123  0EDD  05A5               	andwf	___xxtofl@arg+3,f
  1124  0EDE                     l600:
  1125  0EDE  1003               	clrc
  1126  0EDF  0CA1               	rrf	___xxtofl@exp,f
  1127  0EE0                     l1865:
  1128  0EE0  0821               	movf	___xxtofl@exp,w
  1129  0EE1  00F6               	movwf	??___xxtofl
  1130  0EE2  01F7               	clrf	??___xxtofl+1
  1131  0EE3  01F8               	clrf	??___xxtofl+2
  1132  0EE4  01F9               	clrf	??___xxtofl+3
  1133  0EE5  3018               	movlw	24
  1134  0EE6                     u2945:
  1135  0EE6  1003               	clrc
  1136  0EE7  0DF6               	rlf	??___xxtofl,f
  1137  0EE8  0DF7               	rlf	??___xxtofl+1,f
  1138  0EE9  0DF8               	rlf	??___xxtofl+2,f
  1139  0EEA  0DF9               	rlf	??___xxtofl+3,f
  1140  0EEB                     u2940:
  1141  0EEB  3EFF               	addlw	-1
  1142  0EEC  1D03               	skipz
  1143  0EED  2EE6               	goto	u2945
  1144  0EEE  0876               	movf	??___xxtofl,w
  1145  0EEF  04A2               	iorwf	___xxtofl@arg,f
  1146  0EF0  0877               	movf	??___xxtofl+1,w
  1147  0EF1  04A3               	iorwf	___xxtofl@arg+1,f
  1148  0EF2  0878               	movf	??___xxtofl+2,w
  1149  0EF3  04A4               	iorwf	___xxtofl@arg+2,f
  1150  0EF4  0879               	movf	??___xxtofl+3,w
  1151  0EF5  04A5               	iorwf	___xxtofl@arg+3,f
  1152  0EF6                     l1867:
  1153  0EF6  0820               	movf	___xxtofl@sign,w
  1154  0EF7  1903               	btfsc	3,2
  1155  0EF8  2EFA               	goto	u2951
  1156  0EF9  2EFB               	goto	u2950
  1157  0EFA                     u2951:
  1158  0EFA  2F00               	goto	l1873
  1159  0EFB                     u2950:
  1160  0EFB                     l1869:
  1161  0EFB  1FF5               	btfss	___xxtofl@val+3,7
  1162  0EFC  2EFE               	goto	u2961
  1163  0EFD  2EFF               	goto	u2960
  1164  0EFE                     u2961:
  1165  0EFE  2F00               	goto	l1873
  1166  0EFF                     u2960:
  1167  0EFF                     l1871:
  1168  0EFF  17A5               	bsf	___xxtofl@arg+3,7
  1169  0F00                     l1873:
  1170  0F00  0825               	movf	___xxtofl@arg+3,w
  1171  0F01  00F5               	movwf	?___xxtofl+3
  1172  0F02  0824               	movf	___xxtofl@arg+2,w
  1173  0F03  00F4               	movwf	?___xxtofl+2
  1174  0F04  0823               	movf	___xxtofl@arg+1,w
  1175  0F05  00F3               	movwf	?___xxtofl+1
  1176  0F06  0822               	movf	___xxtofl@arg,w
  1177  0F07  00F2               	movwf	?___xxtofl
  1178  0F08                     l588:
  1179  0F08  0008               	return
  1180  0F09                     __end_of___xxtofl:
  1181                           
  1182                           	psect	text4
  1183  0DBB                     __ptext4:	
  1184 ;; *************** function ___fltol *****************
  1185 ;; Defined at:
  1186 ;;		line 43 in file "D:\File Install MBLAB IDE\XC8\pic\sources\c90\common\fltol.c"
  1187 ;; Parameters:    Size  Location     Type
  1188 ;;  f1              4    0[BANK1 ] unsigned char 
  1189 ;; Auto vars:     Size  Location     Type
  1190 ;;  exp1            1   79[BANK0 ] unsigned char 
  1191 ;;  sign1           1   78[BANK0 ] unsigned char 
  1192 ;; Return value:  Size  Location     Type
  1193 ;;                  4    0[BANK1 ] long 
  1194 ;; Registers used:
  1195 ;;		wreg, status,2, status,0
  1196 ;; Tracked objects:
  1197 ;;		On entry : 0/0
  1198 ;;		On exit  : 0/0
  1199 ;;		Unchanged: 0/0
  1200 ;; Data sizes:     COMMON   BANK0   BANK1   BANK3   BANK2
  1201 ;;      Params:         0       0       4       0       0
  1202 ;;      Locals:         0       2       0       0       0
  1203 ;;      Temps:          0       0       5       0       0
  1204 ;;      Totals:         0       2       9       0       0
  1205 ;;Total ram usage:       11 bytes
  1206 ;; Hardware stack levels used: 1
  1207 ;; Hardware stack levels required when called: 1
  1208 ;; This function calls:
  1209 ;;		Nothing
  1210 ;; This function is called by:
  1211 ;;		_PWM_Servo
  1212 ;; This function uses a non-reentrant model
  1213 ;;
  1214                           
  1215                           
  1216                           ;psect for function ___fltol
  1217  0DBB                     ___fltol:
  1218  0DBB                     l1321:	
  1219                           ;incstack = 0
  1220                           ; Regs used in ___fltol: [wreg+status,2+status,0]
  1221                           
  1222  0DBB  1003               	clrc
  1223  0DBC  1683               	bsf	3,5	;RP0=1, select bank1
  1224  0DBD  1303               	bcf	3,6	;RP1=0, select bank1
  1225  0DBE  0D22               	rlf	(___fltol@f1+2)^(0+128),w
  1226  0DBF  0D23               	rlf	(___fltol@f1+3)^(0+128),w
  1227  0DC0  00A4               	movwf	??___fltol^(0+128)
  1228  0DC1  0824               	movf	??___fltol^(0+128),w
  1229  0DC2  1283               	bcf	3,5	;RP0=0, select bank0
  1230  0DC3  1303               	bcf	3,6	;RP1=0, select bank0
  1231  0DC4  00EF               	movwf	___fltol@exp1
  1232  0DC5  086F               	movf	___fltol@exp1,w
  1233  0DC6  1D03               	btfss	3,2
  1234  0DC7  2DC9               	goto	u1611
  1235  0DC8  2DCA               	goto	u1610
  1236  0DC9                     u1611:
  1237  0DC9  2DD5               	goto	l1327
  1238  0DCA                     u1610:
  1239  0DCA                     l1323:
  1240  0DCA  3000               	movlw	0
  1241  0DCB  1683               	bsf	3,5	;RP0=1, select bank1
  1242  0DCC  1303               	bcf	3,6	;RP1=0, select bank1
  1243  0DCD  00A3               	movwf	(?___fltol+3)^(0+128)
  1244  0DCE  3000               	movlw	0
  1245  0DCF  00A2               	movwf	(?___fltol+2)^(0+128)
  1246  0DD0  3000               	movlw	0
  1247  0DD1  00A1               	movwf	(?___fltol+1)^(0+128)
  1248  0DD2  3000               	movlw	0
  1249  0DD3  00A0               	movwf	?___fltol^(0+128)
  1250  0DD4  2E4C               	goto	l339
  1251  0DD5                     l1327:
  1252  0DD5  1683               	bsf	3,5	;RP0=1, select bank1
  1253  0DD6  1303               	bcf	3,6	;RP1=0, select bank1
  1254  0DD7  0820               	movf	___fltol@f1^(0+128),w
  1255  0DD8  00A4               	movwf	??___fltol^(0+128)
  1256  0DD9  0821               	movf	(___fltol@f1+1)^(0+128),w
  1257  0DDA  00A5               	movwf	(??___fltol^(0+128)+1)
  1258  0DDB  0822               	movf	(___fltol@f1+2)^(0+128),w
  1259  0DDC  00A6               	movwf	(??___fltol^(0+128)+2)
  1260  0DDD  0823               	movf	(___fltol@f1+3)^(0+128),w
  1261  0DDE  00A7               	movwf	(??___fltol^(0+128)+3)
  1262  0DDF  301F               	movlw	31
  1263  0DE0                     u1625:
  1264  0DE0  1003               	clrc
  1265  0DE1  0CA7               	rrf	(??___fltol^(0+128)+3),f
  1266  0DE2  0CA6               	rrf	(??___fltol^(0+128)+2),f
  1267  0DE3  0CA5               	rrf	(??___fltol^(0+128)+1),f
  1268  0DE4  0CA4               	rrf	??___fltol^(0+128),f
  1269  0DE5                     u1620:
  1270  0DE5  3EFF               	addlw	-1
  1271  0DE6  1D03               	skipz
  1272  0DE7  2DE0               	goto	u1625
  1273  0DE8  0824               	movf	??___fltol^(0+128),w
  1274  0DE9  00A8               	movwf	(??___fltol+4)^(0+128)
  1275  0DEA  0828               	movf	(??___fltol+4)^(0+128),w
  1276  0DEB  1283               	bcf	3,5	;RP0=0, select bank0
  1277  0DEC  1303               	bcf	3,6	;RP1=0, select bank0
  1278  0DED  00EE               	movwf	___fltol@sign1
  1279  0DEE                     l1329:
  1280  0DEE  1683               	bsf	3,5	;RP0=1, select bank1
  1281  0DEF  1303               	bcf	3,6	;RP1=0, select bank1
  1282  0DF0  17A2               	bsf	(___fltol@f1^(0+128)+2),7
  1283  0DF1                     l1331:
  1284  0DF1  30FF               	movlw	255
  1285  0DF2  05A0               	andwf	___fltol@f1^(0+128),f
  1286  0DF3  30FF               	movlw	255
  1287  0DF4  05A1               	andwf	(___fltol@f1+1)^(0+128),f
  1288  0DF5  30FF               	movlw	255
  1289  0DF6  05A2               	andwf	(___fltol@f1+2)^(0+128),f
  1290  0DF7  3000               	movlw	0
  1291  0DF8  05A3               	andwf	(___fltol@f1+3)^(0+128),f
  1292  0DF9                     l1333:
  1293  0DF9  3096               	movlw	150
  1294  0DFA  1283               	bcf	3,5	;RP0=0, select bank0
  1295  0DFB  1303               	bcf	3,6	;RP1=0, select bank0
  1296  0DFC  02EF               	subwf	___fltol@exp1,f
  1297  0DFD                     l1335:
  1298  0DFD  1FEF               	btfss	___fltol@exp1,7
  1299  0DFE  2E00               	goto	u1631
  1300  0DFF  2E01               	goto	u1630
  1301  0E00                     u1631:
  1302  0E00  2E1F               	goto	l1345
  1303  0E01                     u1630:
  1304  0E01                     l1337:
  1305  0E01  086F               	movf	___fltol@exp1,w
  1306  0E02  3A80               	xorlw	128
  1307  0E03  3E97               	addlw	151
  1308  0E04  1803               	skipnc
  1309  0E05  2E07               	goto	u1641
  1310  0E06  2E08               	goto	u1640
  1311  0E07                     u1641:
  1312  0E07  2E09               	goto	l1343
  1313  0E08                     u1640:
  1314  0E08  2DCA               	goto	l1323
  1315  0E09                     l1343:
  1316  0E09  3001               	movlw	1
  1317  0E0A                     u1655:
  1318  0E0A  1003               	clrc
  1319  0E0B  1683               	bsf	3,5	;RP0=1, select bank1
  1320  0E0C  1303               	bcf	3,6	;RP1=0, select bank1
  1321  0E0D  0CA3               	rrf	(___fltol@f1+3)^(0+128),f
  1322  0E0E  0CA2               	rrf	(___fltol@f1+2)^(0+128),f
  1323  0E0F  0CA1               	rrf	(___fltol@f1+1)^(0+128),f
  1324  0E10  0CA0               	rrf	___fltol@f1^(0+128),f
  1325  0E11  3EFF               	addlw	-1
  1326  0E12  1D03               	skipz
  1327  0E13  2E0A               	goto	u1655
  1328  0E14  3001               	movlw	1
  1329  0E15  00A4               	movwf	??___fltol^(0+128)
  1330  0E16  0824               	movf	??___fltol^(0+128),w
  1331  0E17  1283               	bcf	3,5	;RP0=0, select bank0
  1332  0E18  1303               	bcf	3,6	;RP1=0, select bank0
  1333  0E19  07EF               	addwf	___fltol@exp1,f
  1334  0E1A  1D03               	btfss	3,2
  1335  0E1B  2E1D               	goto	u1661
  1336  0E1C  2E1E               	goto	u1660
  1337  0E1D                     u1661:
  1338  0E1D  2E09               	goto	l1343
  1339  0E1E                     u1660:
  1340  0E1E  2E3A               	goto	l1353
  1341  0E1F                     l1345:
  1342  0E1F  3020               	movlw	32
  1343  0E20  026F               	subwf	___fltol@exp1,w
  1344  0E21  1C03               	skipc
  1345  0E22  2E24               	goto	u1671
  1346  0E23  2E25               	goto	u1670
  1347  0E24                     u1671:
  1348  0E24  2E35               	goto	l346
  1349  0E25                     u1670:
  1350  0E25  2DCA               	goto	l1323
  1351  0E26                     l1351:
  1352  0E26  3001               	movlw	1
  1353  0E27  1683               	bsf	3,5	;RP0=1, select bank1
  1354  0E28  1303               	bcf	3,6	;RP1=0, select bank1
  1355  0E29  00A4               	movwf	??___fltol^(0+128)
  1356  0E2A                     u1685:
  1357  0E2A  1003               	clrc
  1358  0E2B  0DA0               	rlf	___fltol@f1^(0+128),f
  1359  0E2C  0DA1               	rlf	(___fltol@f1+1)^(0+128),f
  1360  0E2D  0DA2               	rlf	(___fltol@f1+2)^(0+128),f
  1361  0E2E  0DA3               	rlf	(___fltol@f1+3)^(0+128),f
  1362  0E2F  0BA4               	decfsz	??___fltol^(0+128),f
  1363  0E30  2E2A               	goto	u1685
  1364  0E31  3001               	movlw	1
  1365  0E32  1283               	bcf	3,5	;RP0=0, select bank0
  1366  0E33  1303               	bcf	3,6	;RP1=0, select bank0
  1367  0E34  02EF               	subwf	___fltol@exp1,f
  1368  0E35                     l346:
  1369  0E35  086F               	movf	___fltol@exp1,w
  1370  0E36  1D03               	btfss	3,2
  1371  0E37  2E39               	goto	u1691
  1372  0E38  2E3A               	goto	u1690
  1373  0E39                     u1691:
  1374  0E39  2E26               	goto	l1351
  1375  0E3A                     u1690:
  1376  0E3A                     l1353:
  1377  0E3A  086E               	movf	___fltol@sign1,w
  1378  0E3B  1903               	btfsc	3,2
  1379  0E3C  2E3E               	goto	u1701
  1380  0E3D  2E3F               	goto	u1700
  1381  0E3E                     u1701:
  1382  0E3E  2E4C               	goto	l349
  1383  0E3F                     u1700:
  1384  0E3F                     l1355:
  1385  0E3F  1683               	bsf	3,5	;RP0=1, select bank1
  1386  0E40  1303               	bcf	3,6	;RP1=0, select bank1
  1387  0E41  09A0               	comf	___fltol@f1^(0+128),f
  1388  0E42  09A1               	comf	(___fltol@f1+1)^(0+128),f
  1389  0E43  09A2               	comf	(___fltol@f1+2)^(0+128),f
  1390  0E44  09A3               	comf	(___fltol@f1+3)^(0+128),f
  1391  0E45  0AA0               	incf	___fltol@f1^(0+128),f
  1392  0E46  1903               	skipnz
  1393  0E47  0AA1               	incf	(___fltol@f1+1)^(0+128),f
  1394  0E48  1903               	skipnz
  1395  0E49  0AA2               	incf	(___fltol@f1+2)^(0+128),f
  1396  0E4A  1903               	skipnz
  1397  0E4B  0AA3               	incf	(___fltol@f1+3)^(0+128),f
  1398  0E4C                     l349:
  1399  0E4C                     l339:
  1400  0E4C  0008               	return
  1401  0E4D                     __end_of___fltol:
  1402                           
  1403                           	psect	text5
  1404  0021                     __ptext5:	
  1405 ;; *************** function ___flmul *****************
  1406 ;; Defined at:
  1407 ;;		line 8 in file "D:\File Install MBLAB IDE\XC8\pic\sources\c90\common\sprcmul.c"
  1408 ;; Parameters:    Size  Location     Type
  1409 ;;  b               4   32[BANK0 ] long 
  1410 ;;  a               4   36[BANK0 ] long 
  1411 ;; Auto vars:     Size  Location     Type
  1412 ;;  prod            4   52[BANK0 ] struct .
  1413 ;;  grs             4   46[BANK0 ] unsigned long 
  1414 ;;  temp            2   56[BANK0 ] struct .
  1415 ;;  bexp            1   51[BANK0 ] unsigned char 
  1416 ;;  aexp            1   50[BANK0 ] unsigned char 
  1417 ;;  sign            1   45[BANK0 ] unsigned char 
  1418 ;; Return value:  Size  Location     Type
  1419 ;;                  4   32[BANK0 ] unsigned char 
  1420 ;; Registers used:
  1421 ;;		wreg, status,2, status,0, btemp+1, pclath, cstack
  1422 ;; Tracked objects:
  1423 ;;		On entry : 0/0
  1424 ;;		On exit  : 0/0
  1425 ;;		Unchanged: 0/0
  1426 ;; Data sizes:     COMMON   BANK0   BANK1   BANK3   BANK2
  1427 ;;      Params:         0       8       0       0       0
  1428 ;;      Locals:         0      13       0       0       0
  1429 ;;      Temps:          0       5       0       0       0
  1430 ;;      Totals:         0      26       0       0       0
  1431 ;;Total ram usage:       26 bytes
  1432 ;; Hardware stack levels used: 1
  1433 ;; Hardware stack levels required when called: 2
  1434 ;; This function calls:
  1435 ;;		__Umul8_16
  1436 ;; This function is called by:
  1437 ;;		_PWM_Servo
  1438 ;; This function uses a non-reentrant model
  1439 ;;
  1440                           
  1441                           
  1442                           ;psect for function ___flmul
  1443  0021                     ___flmul:
  1444  0021                     l1693:	
  1445                           ;incstack = 0
  1446                           ; Regs used in ___flmul: [wreg+status,2+status,0+btemp+1+pclath+cstack]
  1447                           
  1448  0021  1283               	bcf	3,5	;RP0=0, select bank0
  1449  0022  1303               	bcf	3,6	;RP1=0, select bank0
  1450  0023  0843               	movf	___flmul@b+3,w
  1451  0024  3980               	andlw	128
  1452  0025  00C8               	movwf	??___flmul
  1453  0026  0848               	movf	??___flmul,w
  1454  0027  00CD               	movwf	___flmul@sign
  1455  0028                     l1695:
  1456  0028  0843               	movf	___flmul@b+3,w
  1457  0029  00C8               	movwf	??___flmul
  1458  002A  0748               	addwf	??___flmul,w
  1459  002B  00C9               	movwf	??___flmul+1
  1460  002C  0849               	movf	??___flmul+1,w
  1461  002D  00D3               	movwf	___flmul@bexp
  1462  002E                     l1697:
  1463  002E  1FC2               	btfss	___flmul@b+2,7
  1464  002F  2831               	goto	u2461
  1465  0030  2832               	goto	u2460
  1466  0031                     u2461:
  1467  0031  2833               	goto	l1701
  1468  0032                     u2460:
  1469  0032                     l1699:
  1470  0032  1453               	bsf	___flmul@bexp,0
  1471  0033                     l1701:
  1472  0033  0853               	movf	___flmul@bexp,w
  1473  0034  1903               	btfsc	3,2
  1474  0035  2837               	goto	u2471
  1475  0036  2838               	goto	u2470
  1476  0037                     u2471:
  1477  0037  2847               	goto	l1709
  1478  0038                     u2470:
  1479  0038                     l1703:
  1480  0038  0A53               	incf	___flmul@bexp,w
  1481  0039  1D03               	btfss	3,2
  1482  003A  283C               	goto	u2481
  1483  003B  283D               	goto	u2480
  1484  003C                     u2481:
  1485  003C  2845               	goto	l1707
  1486  003D                     u2480:
  1487  003D                     l1705:
  1488  003D  3000               	movlw	0
  1489  003E  00C3               	movwf	___flmul@b+3
  1490  003F  3000               	movlw	0
  1491  0040  00C2               	movwf	___flmul@b+2
  1492  0041  3000               	movlw	0
  1493  0042  00C1               	movwf	___flmul@b+1
  1494  0043  3000               	movlw	0
  1495  0044  00C0               	movwf	___flmul@b
  1496  0045                     l1707:
  1497  0045  17C2               	bsf	___flmul@b+2,7
  1498  0046  284F               	goto	l1711
  1499  0047                     l1709:
  1500  0047  3000               	movlw	0
  1501  0048  00C3               	movwf	___flmul@b+3
  1502  0049  3000               	movlw	0
  1503  004A  00C2               	movwf	___flmul@b+2
  1504  004B  3000               	movlw	0
  1505  004C  00C1               	movwf	___flmul@b+1
  1506  004D  3000               	movlw	0
  1507  004E  00C0               	movwf	___flmul@b
  1508  004F                     l1711:
  1509  004F  0847               	movf	___flmul@a+3,w
  1510  0050  3980               	andlw	128
  1511  0051  00C8               	movwf	??___flmul
  1512  0052  0848               	movf	??___flmul,w
  1513  0053  06CD               	xorwf	___flmul@sign,f
  1514  0054                     l1713:
  1515  0054  0847               	movf	___flmul@a+3,w
  1516  0055  00C8               	movwf	??___flmul
  1517  0056  0748               	addwf	??___flmul,w
  1518  0057  00C9               	movwf	??___flmul+1
  1519  0058  0849               	movf	??___flmul+1,w
  1520  0059  00D2               	movwf	___flmul@aexp
  1521  005A                     l1715:
  1522  005A  1FC6               	btfss	___flmul@a+2,7
  1523  005B  285D               	goto	u2491
  1524  005C  285E               	goto	u2490
  1525  005D                     u2491:
  1526  005D  285F               	goto	l1719
  1527  005E                     u2490:
  1528  005E                     l1717:
  1529  005E  1452               	bsf	___flmul@aexp,0
  1530  005F                     l1719:
  1531  005F  0852               	movf	___flmul@aexp,w
  1532  0060  1903               	btfsc	3,2
  1533  0061  2863               	goto	u2501
  1534  0062  2864               	goto	u2500
  1535  0063                     u2501:
  1536  0063  2873               	goto	l1727
  1537  0064                     u2500:
  1538  0064                     l1721:
  1539  0064  0A52               	incf	___flmul@aexp,w
  1540  0065  1D03               	btfss	3,2
  1541  0066  2868               	goto	u2511
  1542  0067  2869               	goto	u2510
  1543  0068                     u2511:
  1544  0068  2871               	goto	l1725
  1545  0069                     u2510:
  1546  0069                     l1723:
  1547  0069  3000               	movlw	0
  1548  006A  00C7               	movwf	___flmul@a+3
  1549  006B  3000               	movlw	0
  1550  006C  00C6               	movwf	___flmul@a+2
  1551  006D  3000               	movlw	0
  1552  006E  00C5               	movwf	___flmul@a+1
  1553  006F  3000               	movlw	0
  1554  0070  00C4               	movwf	___flmul@a
  1555  0071                     l1725:
  1556  0071  17C6               	bsf	___flmul@a+2,7
  1557  0072  287B               	goto	l1729
  1558  0073                     l1727:
  1559  0073  3000               	movlw	0
  1560  0074  00C7               	movwf	___flmul@a+3
  1561  0075  3000               	movlw	0
  1562  0076  00C6               	movwf	___flmul@a+2
  1563  0077  3000               	movlw	0
  1564  0078  00C5               	movwf	___flmul@a+1
  1565  0079  3000               	movlw	0
  1566  007A  00C4               	movwf	___flmul@a
  1567  007B                     l1729:
  1568  007B  0852               	movf	___flmul@aexp,w
  1569  007C  1903               	btfsc	3,2
  1570  007D  287F               	goto	u2521
  1571  007E  2880               	goto	u2520
  1572  007F                     u2521:
  1573  007F  2885               	goto	l1733
  1574  0080                     u2520:
  1575  0080                     l1731:
  1576  0080  0853               	movf	___flmul@bexp,w
  1577  0081  1D03               	btfss	3,2
  1578  0082  2884               	goto	u2531
  1579  0083  2885               	goto	u2530
  1580  0084                     u2531:
  1581  0084  288E               	goto	l1737
  1582  0085                     u2530:
  1583  0085                     l1733:
  1584  0085  3000               	movlw	0
  1585  0086  00C3               	movwf	?___flmul+3
  1586  0087  3000               	movlw	0
  1587  0088  00C2               	movwf	?___flmul+2
  1588  0089  3000               	movlw	0
  1589  008A  00C1               	movwf	?___flmul+1
  1590  008B  3000               	movlw	0
  1591  008C  00C0               	movwf	?___flmul
  1592  008D  2B81               	goto	l542
  1593  008E                     l1737:
  1594  008E  0840               	movf	___flmul@b,w
  1595  008F  00C8               	movwf	??___flmul
  1596  0090  0848               	movf	??___flmul,w
  1597  0091  00F2               	movwf	__Umul8_16@multiplicand
  1598  0092  0846               	movf	___flmul@a+2,w
  1599  0093  120A  158A  24A2  120A  118A  	fcall	__Umul8_16
  1600  0098  0873               	movf	?__Umul8_16+1,w
  1601  0099  1283               	bcf	3,5	;RP0=0, select bank0
  1602  009A  1303               	bcf	3,6	;RP1=0, select bank0
  1603  009B  00D9               	movwf	___flmul@temp+1
  1604  009C  0872               	movf	?__Umul8_16,w
  1605  009D  00D8               	movwf	___flmul@temp
  1606  009E                     l1739:
  1607  009E  0858               	movf	___flmul@temp,w
  1608  009F  00C8               	movwf	??___flmul
  1609  00A0  01C9               	clrf	??___flmul+1
  1610  00A1  01CA               	clrf	??___flmul+2
  1611  00A2  01CB               	clrf	??___flmul+3
  1612  00A3  084B               	movf	??___flmul+3,w
  1613  00A4  00D1               	movwf	___flmul@grs+3
  1614  00A5  084A               	movf	??___flmul+2,w
  1615  00A6  00D0               	movwf	___flmul@grs+2
  1616  00A7  0849               	movf	??___flmul+1,w
  1617  00A8  00CF               	movwf	___flmul@grs+1
  1618  00A9  0848               	movf	??___flmul,w
  1619  00AA  00CE               	movwf	___flmul@grs
  1620  00AB                     l1741:
  1621  00AB  0859               	movf	___flmul@temp+1,w
  1622  00AC  00C8               	movwf	??___flmul
  1623  00AD  01C9               	clrf	??___flmul+1
  1624  00AE  01CA               	clrf	??___flmul+2
  1625  00AF  01CB               	clrf	??___flmul+3
  1626  00B0  084B               	movf	??___flmul+3,w
  1627  00B1  00D7               	movwf	___flmul@prod+3
  1628  00B2  084A               	movf	??___flmul+2,w
  1629  00B3  00D6               	movwf	___flmul@prod+2
  1630  00B4  0849               	movf	??___flmul+1,w
  1631  00B5  00D5               	movwf	___flmul@prod+1
  1632  00B6  0848               	movf	??___flmul,w
  1633  00B7  00D4               	movwf	___flmul@prod
  1634  00B8  0841               	movf	___flmul@b+1,w
  1635  00B9  00C8               	movwf	??___flmul
  1636  00BA  0848               	movf	??___flmul,w
  1637  00BB  00F2               	movwf	__Umul8_16@multiplicand
  1638  00BC  0845               	movf	___flmul@a+1,w
  1639  00BD  120A  158A  24A2  120A  118A  	fcall	__Umul8_16
  1640  00C2  0873               	movf	?__Umul8_16+1,w
  1641  00C3  1283               	bcf	3,5	;RP0=0, select bank0
  1642  00C4  1303               	bcf	3,6	;RP1=0, select bank0
  1643  00C5  00D9               	movwf	___flmul@temp+1
  1644  00C6  0872               	movf	?__Umul8_16,w
  1645  00C7  00D8               	movwf	___flmul@temp
  1646  00C8                     l1743:
  1647  00C8  0858               	movf	___flmul@temp,w
  1648  00C9  00C8               	movwf	??___flmul
  1649  00CA  01C9               	clrf	??___flmul+1
  1650  00CB  01CA               	clrf	??___flmul+2
  1651  00CC  01CB               	clrf	??___flmul+3
  1652  00CD  0848               	movf	??___flmul,w
  1653  00CE  07CE               	addwf	___flmul@grs,f
  1654  00CF  0849               	movf	??___flmul+1,w
  1655  00D0  1103               	clrz
  1656  00D1  1803               	skipnc
  1657  00D2  3E01               	addlw	1
  1658  00D3  1903               	skipnz
  1659  00D4  28D6               	goto	u2541
  1660  00D5  07CF               	addwf	___flmul@grs+1,f
  1661  00D6                     u2541:
  1662  00D6  084A               	movf	??___flmul+2,w
  1663  00D7  1103               	clrz
  1664  00D8  1803               	skipnc
  1665  00D9  3E01               	addlw	1
  1666  00DA  1903               	skipnz
  1667  00DB  28DD               	goto	u2542
  1668  00DC  07D0               	addwf	___flmul@grs+2,f
  1669  00DD                     u2542:
  1670  00DD  084B               	movf	??___flmul+3,w
  1671  00DE  1103               	clrz
  1672  00DF  1803               	skipnc
  1673  00E0  3E01               	addlw	1
  1674  00E1  1903               	skipnz
  1675  00E2  28E4               	goto	u2543
  1676  00E3  07D1               	addwf	___flmul@grs+3,f
  1677  00E4                     u2543:
  1678  00E4                     l1745:
  1679  00E4  0859               	movf	___flmul@temp+1,w
  1680  00E5  00C8               	movwf	??___flmul
  1681  00E6  01C9               	clrf	??___flmul+1
  1682  00E7  01CA               	clrf	??___flmul+2
  1683  00E8  01CB               	clrf	??___flmul+3
  1684  00E9  0848               	movf	??___flmul,w
  1685  00EA  07D4               	addwf	___flmul@prod,f
  1686  00EB  0849               	movf	??___flmul+1,w
  1687  00EC  1103               	clrz
  1688  00ED  1803               	skipnc
  1689  00EE  3E01               	addlw	1
  1690  00EF  1903               	skipnz
  1691  00F0  28F2               	goto	u2551
  1692  00F1  07D5               	addwf	___flmul@prod+1,f
  1693  00F2                     u2551:
  1694  00F2  084A               	movf	??___flmul+2,w
  1695  00F3  1103               	clrz
  1696  00F4  1803               	skipnc
  1697  00F5  3E01               	addlw	1
  1698  00F6  1903               	skipnz
  1699  00F7  28F9               	goto	u2552
  1700  00F8  07D6               	addwf	___flmul@prod+2,f
  1701  00F9                     u2552:
  1702  00F9  084B               	movf	??___flmul+3,w
  1703  00FA  1103               	clrz
  1704  00FB  1803               	skipnc
  1705  00FC  3E01               	addlw	1
  1706  00FD  1903               	skipnz
  1707  00FE  2900               	goto	u2553
  1708  00FF  07D7               	addwf	___flmul@prod+3,f
  1709  0100                     u2553:
  1710  0100  0842               	movf	___flmul@b+2,w
  1711  0101  00C8               	movwf	??___flmul
  1712  0102  0848               	movf	??___flmul,w
  1713  0103  00F2               	movwf	__Umul8_16@multiplicand
  1714  0104  0844               	movf	___flmul@a,w
  1715  0105  120A  158A  24A2  120A  118A  	fcall	__Umul8_16
  1716  010A  0873               	movf	?__Umul8_16+1,w
  1717  010B  1283               	bcf	3,5	;RP0=0, select bank0
  1718  010C  1303               	bcf	3,6	;RP1=0, select bank0
  1719  010D  00D9               	movwf	___flmul@temp+1
  1720  010E  0872               	movf	?__Umul8_16,w
  1721  010F  00D8               	movwf	___flmul@temp
  1722  0110                     l1747:
  1723  0110  0858               	movf	___flmul@temp,w
  1724  0111  00C8               	movwf	??___flmul
  1725  0112  01C9               	clrf	??___flmul+1
  1726  0113  01CA               	clrf	??___flmul+2
  1727  0114  01CB               	clrf	??___flmul+3
  1728  0115  0848               	movf	??___flmul,w
  1729  0116  07CE               	addwf	___flmul@grs,f
  1730  0117  0849               	movf	??___flmul+1,w
  1731  0118  1103               	clrz
  1732  0119  1803               	skipnc
  1733  011A  3E01               	addlw	1
  1734  011B  1903               	skipnz
  1735  011C  291E               	goto	u2561
  1736  011D  07CF               	addwf	___flmul@grs+1,f
  1737  011E                     u2561:
  1738  011E  084A               	movf	??___flmul+2,w
  1739  011F  1103               	clrz
  1740  0120  1803               	skipnc
  1741  0121  3E01               	addlw	1
  1742  0122  1903               	skipnz
  1743  0123  2925               	goto	u2562
  1744  0124  07D0               	addwf	___flmul@grs+2,f
  1745  0125                     u2562:
  1746  0125  084B               	movf	??___flmul+3,w
  1747  0126  1103               	clrz
  1748  0127  1803               	skipnc
  1749  0128  3E01               	addlw	1
  1750  0129  1903               	skipnz
  1751  012A  292C               	goto	u2563
  1752  012B  07D1               	addwf	___flmul@grs+3,f
  1753  012C                     u2563:
  1754  012C                     l1749:
  1755  012C  0859               	movf	___flmul@temp+1,w
  1756  012D  00C8               	movwf	??___flmul
  1757  012E  01C9               	clrf	??___flmul+1
  1758  012F  01CA               	clrf	??___flmul+2
  1759  0130  01CB               	clrf	??___flmul+3
  1760  0131  0848               	movf	??___flmul,w
  1761  0132  07D4               	addwf	___flmul@prod,f
  1762  0133  0849               	movf	??___flmul+1,w
  1763  0134  1103               	clrz
  1764  0135  1803               	skipnc
  1765  0136  3E01               	addlw	1
  1766  0137  1903               	skipnz
  1767  0138  293A               	goto	u2571
  1768  0139  07D5               	addwf	___flmul@prod+1,f
  1769  013A                     u2571:
  1770  013A  084A               	movf	??___flmul+2,w
  1771  013B  1103               	clrz
  1772  013C  1803               	skipnc
  1773  013D  3E01               	addlw	1
  1774  013E  1903               	skipnz
  1775  013F  2941               	goto	u2572
  1776  0140  07D6               	addwf	___flmul@prod+2,f
  1777  0141                     u2572:
  1778  0141  084B               	movf	??___flmul+3,w
  1779  0142  1103               	clrz
  1780  0143  1803               	skipnc
  1781  0144  3E01               	addlw	1
  1782  0145  1903               	skipnz
  1783  0146  2948               	goto	u2573
  1784  0147  07D7               	addwf	___flmul@prod+3,f
  1785  0148                     u2573:
  1786  0148                     l1751:
  1787  0148  3008               	movlw	8
  1788  0149  00C8               	movwf	??___flmul
  1789  014A                     u2585:
  1790  014A  1003               	clrc
  1791  014B  0DCE               	rlf	___flmul@grs,f
  1792  014C  0DCF               	rlf	___flmul@grs+1,f
  1793  014D  0DD0               	rlf	___flmul@grs+2,f
  1794  014E  0DD1               	rlf	___flmul@grs+3,f
  1795  014F  0BC8               	decfsz	??___flmul,f
  1796  0150  294A               	goto	u2585
  1797  0151                     l1753:
  1798  0151  0841               	movf	___flmul@b+1,w
  1799  0152  00C8               	movwf	??___flmul
  1800  0153  0848               	movf	??___flmul,w
  1801  0154  00F2               	movwf	__Umul8_16@multiplicand
  1802  0155  0844               	movf	___flmul@a,w
  1803  0156  120A  158A  24A2  120A  118A  	fcall	__Umul8_16
  1804  015B  0873               	movf	?__Umul8_16+1,w
  1805  015C  1283               	bcf	3,5	;RP0=0, select bank0
  1806  015D  1303               	bcf	3,6	;RP1=0, select bank0
  1807  015E  00D9               	movwf	___flmul@temp+1
  1808  015F  0872               	movf	?__Umul8_16,w
  1809  0160  00D8               	movwf	___flmul@temp
  1810  0161                     l1755:
  1811  0161  0858               	movf	___flmul@temp,w
  1812  0162  00C8               	movwf	??___flmul
  1813  0163  0859               	movf	___flmul@temp+1,w
  1814  0164  00C9               	movwf	??___flmul+1
  1815  0165  01CA               	clrf	??___flmul+2
  1816  0166  01CB               	clrf	??___flmul+3
  1817  0167  0848               	movf	??___flmul,w
  1818  0168  07CE               	addwf	___flmul@grs,f
  1819  0169  0849               	movf	??___flmul+1,w
  1820  016A  1103               	clrz
  1821  016B  1803               	skipnc
  1822  016C  3E01               	addlw	1
  1823  016D  1903               	skipnz
  1824  016E  2970               	goto	u2591
  1825  016F  07CF               	addwf	___flmul@grs+1,f
  1826  0170                     u2591:
  1827  0170  084A               	movf	??___flmul+2,w
  1828  0171  1103               	clrz
  1829  0172  1803               	skipnc
  1830  0173  3E01               	addlw	1
  1831  0174  1903               	skipnz
  1832  0175  2977               	goto	u2592
  1833  0176  07D0               	addwf	___flmul@grs+2,f
  1834  0177                     u2592:
  1835  0177  084B               	movf	??___flmul+3,w
  1836  0178  1103               	clrz
  1837  0179  1803               	skipnc
  1838  017A  3E01               	addlw	1
  1839  017B  1903               	skipnz
  1840  017C  297E               	goto	u2593
  1841  017D  07D1               	addwf	___flmul@grs+3,f
  1842  017E                     u2593:
  1843  017E                     l1757:
  1844  017E  0840               	movf	___flmul@b,w
  1845  017F  00C8               	movwf	??___flmul
  1846  0180  0848               	movf	??___flmul,w
  1847  0181  00F2               	movwf	__Umul8_16@multiplicand
  1848  0182  0845               	movf	___flmul@a+1,w
  1849  0183  120A  158A  24A2  120A  118A  	fcall	__Umul8_16
  1850  0188  0873               	movf	?__Umul8_16+1,w
  1851  0189  1283               	bcf	3,5	;RP0=0, select bank0
  1852  018A  1303               	bcf	3,6	;RP1=0, select bank0
  1853  018B  00D9               	movwf	___flmul@temp+1
  1854  018C  0872               	movf	?__Umul8_16,w
  1855  018D  00D8               	movwf	___flmul@temp
  1856  018E                     l1759:
  1857  018E  0858               	movf	___flmul@temp,w
  1858  018F  00C8               	movwf	??___flmul
  1859  0190  0859               	movf	___flmul@temp+1,w
  1860  0191  00C9               	movwf	??___flmul+1
  1861  0192  01CA               	clrf	??___flmul+2
  1862  0193  01CB               	clrf	??___flmul+3
  1863  0194  0848               	movf	??___flmul,w
  1864  0195  07CE               	addwf	___flmul@grs,f
  1865  0196  0849               	movf	??___flmul+1,w
  1866  0197  1103               	clrz
  1867  0198  1803               	skipnc
  1868  0199  3E01               	addlw	1
  1869  019A  1903               	skipnz
  1870  019B  299D               	goto	u2601
  1871  019C  07CF               	addwf	___flmul@grs+1,f
  1872  019D                     u2601:
  1873  019D  084A               	movf	??___flmul+2,w
  1874  019E  1103               	clrz
  1875  019F  1803               	skipnc
  1876  01A0  3E01               	addlw	1
  1877  01A1  1903               	skipnz
  1878  01A2  29A4               	goto	u2602
  1879  01A3  07D0               	addwf	___flmul@grs+2,f
  1880  01A4                     u2602:
  1881  01A4  084B               	movf	??___flmul+3,w
  1882  01A5  1103               	clrz
  1883  01A6  1803               	skipnc
  1884  01A7  3E01               	addlw	1
  1885  01A8  1903               	skipnz
  1886  01A9  29AB               	goto	u2603
  1887  01AA  07D1               	addwf	___flmul@grs+3,f
  1888  01AB                     u2603:
  1889  01AB                     l1761:
  1890  01AB  3008               	movlw	8
  1891  01AC  00C8               	movwf	??___flmul
  1892  01AD                     u2615:
  1893  01AD  1003               	clrc
  1894  01AE  0DCE               	rlf	___flmul@grs,f
  1895  01AF  0DCF               	rlf	___flmul@grs+1,f
  1896  01B0  0DD0               	rlf	___flmul@grs+2,f
  1897  01B1  0DD1               	rlf	___flmul@grs+3,f
  1898  01B2  0BC8               	decfsz	??___flmul,f
  1899  01B3  29AD               	goto	u2615
  1900  01B4  0840               	movf	___flmul@b,w
  1901  01B5  00C8               	movwf	??___flmul
  1902  01B6  0848               	movf	??___flmul,w
  1903  01B7  00F2               	movwf	__Umul8_16@multiplicand
  1904  01B8  0844               	movf	___flmul@a,w
  1905  01B9  120A  158A  24A2  120A  118A  	fcall	__Umul8_16
  1906  01BE  0873               	movf	?__Umul8_16+1,w
  1907  01BF  1283               	bcf	3,5	;RP0=0, select bank0
  1908  01C0  1303               	bcf	3,6	;RP1=0, select bank0
  1909  01C1  00D9               	movwf	___flmul@temp+1
  1910  01C2  0872               	movf	?__Umul8_16,w
  1911  01C3  00D8               	movwf	___flmul@temp
  1912  01C4                     l1763:
  1913  01C4  0858               	movf	___flmul@temp,w
  1914  01C5  00C8               	movwf	??___flmul
  1915  01C6  0859               	movf	___flmul@temp+1,w
  1916  01C7  00C9               	movwf	??___flmul+1
  1917  01C8  01CA               	clrf	??___flmul+2
  1918  01C9  01CB               	clrf	??___flmul+3
  1919  01CA  0848               	movf	??___flmul,w
  1920  01CB  07CE               	addwf	___flmul@grs,f
  1921  01CC  0849               	movf	??___flmul+1,w
  1922  01CD  1103               	clrz
  1923  01CE  1803               	skipnc
  1924  01CF  3E01               	addlw	1
  1925  01D0  1903               	skipnz
  1926  01D1  29D3               	goto	u2621
  1927  01D2  07CF               	addwf	___flmul@grs+1,f
  1928  01D3                     u2621:
  1929  01D3  084A               	movf	??___flmul+2,w
  1930  01D4  1103               	clrz
  1931  01D5  1803               	skipnc
  1932  01D6  3E01               	addlw	1
  1933  01D7  1903               	skipnz
  1934  01D8  29DA               	goto	u2622
  1935  01D9  07D0               	addwf	___flmul@grs+2,f
  1936  01DA                     u2622:
  1937  01DA  084B               	movf	??___flmul+3,w
  1938  01DB  1103               	clrz
  1939  01DC  1803               	skipnc
  1940  01DD  3E01               	addlw	1
  1941  01DE  1903               	skipnz
  1942  01DF  29E1               	goto	u2623
  1943  01E0  07D1               	addwf	___flmul@grs+3,f
  1944  01E1                     u2623:
  1945  01E1                     l1765:
  1946  01E1  0841               	movf	___flmul@b+1,w
  1947  01E2  00C8               	movwf	??___flmul
  1948  01E3  0848               	movf	??___flmul,w
  1949  01E4  00F2               	movwf	__Umul8_16@multiplicand
  1950  01E5  0846               	movf	___flmul@a+2,w
  1951  01E6  120A  158A  24A2  120A  118A  	fcall	__Umul8_16
  1952  01EB  0873               	movf	?__Umul8_16+1,w
  1953  01EC  1283               	bcf	3,5	;RP0=0, select bank0
  1954  01ED  1303               	bcf	3,6	;RP1=0, select bank0
  1955  01EE  00D9               	movwf	___flmul@temp+1
  1956  01EF  0872               	movf	?__Umul8_16,w
  1957  01F0  00D8               	movwf	___flmul@temp
  1958  01F1  0858               	movf	___flmul@temp,w
  1959  01F2  00C8               	movwf	??___flmul
  1960  01F3  0859               	movf	___flmul@temp+1,w
  1961  01F4  00C9               	movwf	??___flmul+1
  1962  01F5  01CA               	clrf	??___flmul+2
  1963  01F6  01CB               	clrf	??___flmul+3
  1964  01F7  0848               	movf	??___flmul,w
  1965  01F8  07D4               	addwf	___flmul@prod,f
  1966  01F9  0849               	movf	??___flmul+1,w
  1967  01FA  1103               	clrz
  1968  01FB  1803               	skipnc
  1969  01FC  3E01               	addlw	1
  1970  01FD  1903               	skipnz
  1971  01FE  2A00               	goto	u2631
  1972  01FF  07D5               	addwf	___flmul@prod+1,f
  1973  0200                     u2631:
  1974  0200  084A               	movf	??___flmul+2,w
  1975  0201  1103               	clrz
  1976  0202  1803               	skipnc
  1977  0203  3E01               	addlw	1
  1978  0204  1903               	skipnz
  1979  0205  2A07               	goto	u2632
  1980  0206  07D6               	addwf	___flmul@prod+2,f
  1981  0207                     u2632:
  1982  0207  084B               	movf	??___flmul+3,w
  1983  0208  1103               	clrz
  1984  0209  1803               	skipnc
  1985  020A  3E01               	addlw	1
  1986  020B  1903               	skipnz
  1987  020C  2A0E               	goto	u2633
  1988  020D  07D7               	addwf	___flmul@prod+3,f
  1989  020E                     u2633:
  1990  020E                     l1767:
  1991  020E  0842               	movf	___flmul@b+2,w
  1992  020F  00C8               	movwf	??___flmul
  1993  0210  0848               	movf	??___flmul,w
  1994  0211  00F2               	movwf	__Umul8_16@multiplicand
  1995  0212  0845               	movf	___flmul@a+1,w
  1996  0213  120A  158A  24A2  120A  118A  	fcall	__Umul8_16
  1997  0218  0873               	movf	?__Umul8_16+1,w
  1998  0219  1283               	bcf	3,5	;RP0=0, select bank0
  1999  021A  1303               	bcf	3,6	;RP1=0, select bank0
  2000  021B  00D9               	movwf	___flmul@temp+1
  2001  021C  0872               	movf	?__Umul8_16,w
  2002  021D  00D8               	movwf	___flmul@temp
  2003  021E                     l1769:
  2004  021E  0858               	movf	___flmul@temp,w
  2005  021F  00C8               	movwf	??___flmul
  2006  0220  0859               	movf	___flmul@temp+1,w
  2007  0221  00C9               	movwf	??___flmul+1
  2008  0222  01CA               	clrf	??___flmul+2
  2009  0223  01CB               	clrf	??___flmul+3
  2010  0224  0848               	movf	??___flmul,w
  2011  0225  07D4               	addwf	___flmul@prod,f
  2012  0226  0849               	movf	??___flmul+1,w
  2013  0227  1103               	clrz
  2014  0228  1803               	skipnc
  2015  0229  3E01               	addlw	1
  2016  022A  1903               	skipnz
  2017  022B  2A2D               	goto	u2641
  2018  022C  07D5               	addwf	___flmul@prod+1,f
  2019  022D                     u2641:
  2020  022D  084A               	movf	??___flmul+2,w
  2021  022E  1103               	clrz
  2022  022F  1803               	skipnc
  2023  0230  3E01               	addlw	1
  2024  0231  1903               	skipnz
  2025  0232  2A34               	goto	u2642
  2026  0233  07D6               	addwf	___flmul@prod+2,f
  2027  0234                     u2642:
  2028  0234  084B               	movf	??___flmul+3,w
  2029  0235  1103               	clrz
  2030  0236  1803               	skipnc
  2031  0237  3E01               	addlw	1
  2032  0238  1903               	skipnz
  2033  0239  2A3B               	goto	u2643
  2034  023A  07D7               	addwf	___flmul@prod+3,f
  2035  023B                     u2643:
  2036  023B  0842               	movf	___flmul@b+2,w
  2037  023C  00C8               	movwf	??___flmul
  2038  023D  0848               	movf	??___flmul,w
  2039  023E  00F2               	movwf	__Umul8_16@multiplicand
  2040  023F  0846               	movf	___flmul@a+2,w
  2041  0240  120A  158A  24A2  120A  118A  	fcall	__Umul8_16
  2042  0245  0873               	movf	?__Umul8_16+1,w
  2043  0246  1283               	bcf	3,5	;RP0=0, select bank0
  2044  0247  1303               	bcf	3,6	;RP1=0, select bank0
  2045  0248  00D9               	movwf	___flmul@temp+1
  2046  0249  0872               	movf	?__Umul8_16,w
  2047  024A  00D8               	movwf	___flmul@temp
  2048  024B                     l1771:
  2049  024B  0858               	movf	___flmul@temp,w
  2050  024C  00C8               	movwf	??___flmul
  2051  024D  0859               	movf	___flmul@temp+1,w
  2052  024E  00C9               	movwf	??___flmul+1
  2053  024F  01CA               	clrf	??___flmul+2
  2054  0250  01CB               	clrf	??___flmul+3
  2055  0251  3008               	movlw	8
  2056  0252                     u2655:
  2057  0252  1003               	clrc
  2058  0253  0DC8               	rlf	??___flmul,f
  2059  0254  0DC9               	rlf	??___flmul+1,f
  2060  0255  0DCA               	rlf	??___flmul+2,f
  2061  0256  0DCB               	rlf	??___flmul+3,f
  2062  0257                     u2650:
  2063  0257  3EFF               	addlw	-1
  2064  0258  1D03               	skipz
  2065  0259  2A52               	goto	u2655
  2066  025A  0848               	movf	??___flmul,w
  2067  025B  07D4               	addwf	___flmul@prod,f
  2068  025C  0849               	movf	??___flmul+1,w
  2069  025D  1103               	clrz
  2070  025E  1803               	skipnc
  2071  025F  3E01               	addlw	1
  2072  0260  1903               	skipnz
  2073  0261  2A63               	goto	u2661
  2074  0262  07D5               	addwf	___flmul@prod+1,f
  2075  0263                     u2661:
  2076  0263  084A               	movf	??___flmul+2,w
  2077  0264  1103               	clrz
  2078  0265  1803               	skipnc
  2079  0266  3E01               	addlw	1
  2080  0267  1903               	skipnz
  2081  0268  2A6A               	goto	u2662
  2082  0269  07D6               	addwf	___flmul@prod+2,f
  2083  026A                     u2662:
  2084  026A  084B               	movf	??___flmul+3,w
  2085  026B  1103               	clrz
  2086  026C  1803               	skipnc
  2087  026D  3E01               	addlw	1
  2088  026E  1903               	skipnz
  2089  026F  2A71               	goto	u2663
  2090  0270  07D7               	addwf	___flmul@prod+3,f
  2091  0271                     u2663:
  2092  0271                     l1773:
  2093  0271  084E               	movf	___flmul@grs,w
  2094  0272  00C8               	movwf	??___flmul
  2095  0273  084F               	movf	___flmul@grs+1,w
  2096  0274  00C9               	movwf	??___flmul+1
  2097  0275  0850               	movf	___flmul@grs+2,w
  2098  0276  00CA               	movwf	??___flmul+2
  2099  0277  0851               	movf	___flmul@grs+3,w
  2100  0278  00CB               	movwf	??___flmul+3
  2101  0279  3018               	movlw	24
  2102  027A                     u2675:
  2103  027A  1003               	clrc
  2104  027B  0CCB               	rrf	??___flmul+3,f
  2105  027C  0CCA               	rrf	??___flmul+2,f
  2106  027D  0CC9               	rrf	??___flmul+1,f
  2107  027E  0CC8               	rrf	??___flmul,f
  2108  027F                     u2670:
  2109  027F  3EFF               	addlw	-1
  2110  0280  1D03               	skipz
  2111  0281  2A7A               	goto	u2675
  2112  0282  0848               	movf	??___flmul,w
  2113  0283  07D4               	addwf	___flmul@prod,f
  2114  0284  0849               	movf	??___flmul+1,w
  2115  0285  1103               	clrz
  2116  0286  1803               	skipnc
  2117  0287  3E01               	addlw	1
  2118  0288  1903               	skipnz
  2119  0289  2A8B               	goto	u2681
  2120  028A  07D5               	addwf	___flmul@prod+1,f
  2121  028B                     u2681:
  2122  028B  084A               	movf	??___flmul+2,w
  2123  028C  1103               	clrz
  2124  028D  1803               	skipnc
  2125  028E  3E01               	addlw	1
  2126  028F  1903               	skipnz
  2127  0290  2A92               	goto	u2682
  2128  0291  07D6               	addwf	___flmul@prod+2,f
  2129  0292                     u2682:
  2130  0292  084B               	movf	??___flmul+3,w
  2131  0293  1103               	clrz
  2132  0294  1803               	skipnc
  2133  0295  3E01               	addlw	1
  2134  0296  1903               	skipnz
  2135  0297  2A99               	goto	u2683
  2136  0298  07D7               	addwf	___flmul@prod+3,f
  2137  0299                     u2683:
  2138  0299                     l1775:
  2139  0299  3008               	movlw	8
  2140  029A  00C8               	movwf	??___flmul
  2141  029B                     u2695:
  2142  029B  1003               	clrc
  2143  029C  0DCE               	rlf	___flmul@grs,f
  2144  029D  0DCF               	rlf	___flmul@grs+1,f
  2145  029E  0DD0               	rlf	___flmul@grs+2,f
  2146  029F  0DD1               	rlf	___flmul@grs+3,f
  2147  02A0  0BC8               	decfsz	??___flmul,f
  2148  02A1  2A9B               	goto	u2695
  2149  02A2                     l1777:
  2150  02A2  0853               	movf	___flmul@bexp,w
  2151  02A3  0752               	addwf	___flmul@aexp,w
  2152  02A4  00C8               	movwf	??___flmul
  2153  02A5  01C9               	clrf	??___flmul+1
  2154  02A6  0DC9               	rlf	??___flmul+1,f
  2155  02A7  0848               	movf	??___flmul,w
  2156  02A8  3E82               	addlw	130
  2157  02A9  00D8               	movwf	___flmul@temp
  2158  02AA  0849               	movf	??___flmul+1,w
  2159  02AB  1803               	skipnc
  2160  02AC  3E01               	addlw	1
  2161  02AD  3EFF               	addlw	255
  2162  02AE  00D9               	movwf	___flmul@temp+1
  2163  02AF  2ACD               	goto	l1789
  2164  02B0                     l1779:
  2165  02B0  3001               	movlw	1
  2166  02B1  00C8               	movwf	??___flmul
  2167  02B2                     u2705:
  2168  02B2  1003               	clrc
  2169  02B3  0DD4               	rlf	___flmul@prod,f
  2170  02B4  0DD5               	rlf	___flmul@prod+1,f
  2171  02B5  0DD6               	rlf	___flmul@prod+2,f
  2172  02B6  0DD7               	rlf	___flmul@prod+3,f
  2173  02B7  0BC8               	decfsz	??___flmul,f
  2174  02B8  2AB2               	goto	u2705
  2175  02B9                     l1781:
  2176  02B9  1FD1               	btfss	___flmul@grs+3,7
  2177  02BA  2ABC               	goto	u2711
  2178  02BB  2ABD               	goto	u2710
  2179  02BC                     u2711:
  2180  02BC  2ABE               	goto	l1785
  2181  02BD                     u2710:
  2182  02BD                     l1783:
  2183  02BD  1454               	bsf	___flmul@prod,0
  2184  02BE                     l1785:
  2185  02BE  3001               	movlw	1
  2186  02BF  00C8               	movwf	??___flmul
  2187  02C0                     u2725:
  2188  02C0  1003               	clrc
  2189  02C1  0DCE               	rlf	___flmul@grs,f
  2190  02C2  0DCF               	rlf	___flmul@grs+1,f
  2191  02C3  0DD0               	rlf	___flmul@grs+2,f
  2192  02C4  0DD1               	rlf	___flmul@grs+3,f
  2193  02C5  0BC8               	decfsz	??___flmul,f
  2194  02C6  2AC0               	goto	u2725
  2195  02C7                     l1787:
  2196  02C7  30FF               	movlw	255
  2197  02C8  07D8               	addwf	___flmul@temp,f
  2198  02C9  1803               	skipnc
  2199  02CA  0AD9               	incf	___flmul@temp+1,f
  2200  02CB  30FF               	movlw	255
  2201  02CC  07D9               	addwf	___flmul@temp+1,f
  2202  02CD                     l1789:
  2203  02CD  1FD6               	btfss	___flmul@prod+2,7
  2204  02CE  2AD0               	goto	u2731
  2205  02CF  2AD1               	goto	u2730
  2206  02D0                     u2731:
  2207  02D0  2AB0               	goto	l1779
  2208  02D1                     u2730:
  2209  02D1                     l1791:
  2210  02D1  01D2               	clrf	___flmul@aexp
  2211  02D2                     l1793:
  2212  02D2  1FD1               	btfss	___flmul@grs+3,7
  2213  02D3  2AD5               	goto	u2741
  2214  02D4  2AD6               	goto	u2740
  2215  02D5                     u2741:
  2216  02D5  2AF2               	goto	l1801
  2217  02D6                     u2740:
  2218  02D6                     l1795:
  2219  02D6  30FF               	movlw	255
  2220  02D7  054E               	andwf	___flmul@grs,w
  2221  02D8  00C8               	movwf	??___flmul
  2222  02D9  30FF               	movlw	255
  2223  02DA  054F               	andwf	___flmul@grs+1,w
  2224  02DB  00C9               	movwf	??___flmul+1
  2225  02DC  30FF               	movlw	255
  2226  02DD  0550               	andwf	___flmul@grs+2,w
  2227  02DE  00CA               	movwf	??___flmul+2
  2228  02DF  307F               	movlw	127
  2229  02E0  0551               	andwf	___flmul@grs+3,w
  2230  02E1  00CB               	movwf	??___flmul+3
  2231  02E2  084B               	movf	??___flmul+3,w
  2232  02E3  044A               	iorwf	??___flmul+2,w
  2233  02E4  0449               	iorwf	??___flmul+1,w
  2234  02E5  0448               	iorwf	??___flmul,w
  2235  02E6  1903               	skipnz
  2236  02E7  2AE9               	goto	u2751
  2237  02E8  2AEA               	goto	u2750
  2238  02E9                     u2751:
  2239  02E9  2AED               	goto	l548
  2240  02EA                     u2750:
  2241  02EA                     l1797:
  2242  02EA  01D2               	clrf	___flmul@aexp
  2243  02EB  0AD2               	incf	___flmul@aexp,f
  2244  02EC  2AF2               	goto	l1801
  2245  02ED                     l548:
  2246  02ED  1C54               	btfss	___flmul@prod,0
  2247  02EE  2AF0               	goto	u2761
  2248  02EF  2AF1               	goto	u2760
  2249  02F0                     u2761:
  2250  02F0  2AF2               	goto	l1801
  2251  02F1                     u2760:
  2252  02F1  2AEA               	goto	l1797
  2253  02F2                     l1801:
  2254  02F2  0852               	movf	___flmul@aexp,w
  2255  02F3  1903               	btfsc	3,2
  2256  02F4  2AF6               	goto	u2771
  2257  02F5  2AF7               	goto	u2770
  2258  02F6                     u2771:
  2259  02F6  2B28               	goto	l1811
  2260  02F7                     u2770:
  2261  02F7                     l1803:
  2262  02F7  3001               	movlw	1
  2263  02F8  07D4               	addwf	___flmul@prod,f
  2264  02F9  3000               	movlw	0
  2265  02FA  1803               	skipnc
  2266  02FB  3001               	movlw	1
  2267  02FC  07D5               	addwf	___flmul@prod+1,f
  2268  02FD  3000               	movlw	0
  2269  02FE  1803               	skipnc
  2270  02FF  3001               	movlw	1
  2271  0300  07D6               	addwf	___flmul@prod+2,f
  2272  0301  3000               	movlw	0
  2273  0302  1803               	skipnc
  2274  0303  3001               	movlw	1
  2275  0304  07D7               	addwf	___flmul@prod+3,f
  2276  0305                     l1805:
  2277  0305  1C57               	btfss	___flmul@prod+3,0
  2278  0306  2B08               	goto	u2781
  2279  0307  2B09               	goto	u2780
  2280  0308                     u2781:
  2281  0308  2B28               	goto	l1811
  2282  0309                     u2780:
  2283  0309                     l1807:
  2284  0309  0854               	movf	___flmul@prod,w
  2285  030A  00C8               	movwf	??___flmul
  2286  030B  0855               	movf	___flmul@prod+1,w
  2287  030C  00C9               	movwf	??___flmul+1
  2288  030D  0856               	movf	___flmul@prod+2,w
  2289  030E  00CA               	movwf	??___flmul+2
  2290  030F  0857               	movf	___flmul@prod+3,w
  2291  0310  00CB               	movwf	??___flmul+3
  2292  0311  3001               	movlw	1
  2293  0312  00CC               	movwf	??___flmul+4
  2294  0313                     u2795:
  2295  0313  0D4B               	rlf	??___flmul+3,w
  2296  0314  0CCB               	rrf	??___flmul+3,f
  2297  0315  0CCA               	rrf	??___flmul+2,f
  2298  0316  0CC9               	rrf	??___flmul+1,f
  2299  0317  0CC8               	rrf	??___flmul,f
  2300  0318                     u2790:
  2301  0318  0BCC               	decfsz	??___flmul+4,f
  2302  0319  2B13               	goto	u2795
  2303  031A  084B               	movf	??___flmul+3,w
  2304  031B  00D7               	movwf	___flmul@prod+3
  2305  031C  084A               	movf	??___flmul+2,w
  2306  031D  00D6               	movwf	___flmul@prod+2
  2307  031E  0849               	movf	??___flmul+1,w
  2308  031F  00D5               	movwf	___flmul@prod+1
  2309  0320  0848               	movf	??___flmul,w
  2310  0321  00D4               	movwf	___flmul@prod
  2311  0322                     l1809:
  2312  0322  3001               	movlw	1
  2313  0323  07D8               	addwf	___flmul@temp,f
  2314  0324  1803               	skipnc
  2315  0325  0AD9               	incf	___flmul@temp+1,f
  2316  0326  3000               	movlw	0
  2317  0327  07D9               	addwf	___flmul@temp+1,f
  2318  0328                     l1811:
  2319  0328  0859               	movf	___flmul@temp+1,w
  2320  0329  3A80               	xorlw	128
  2321  032A  00FF               	movwf	btemp+1
  2322  032B  3080               	movlw	128
  2323  032C  027F               	subwf	btemp+1,w
  2324  032D  1D03               	skipz
  2325  032E  2B31               	goto	u2805
  2326  032F  30FF               	movlw	255
  2327  0330  0258               	subwf	___flmul@temp,w
  2328  0331                     u2805:
  2329  0331  1C03               	skipc
  2330  0332  2B34               	goto	u2801
  2331  0333  2B35               	goto	u2800
  2332  0334                     u2801:
  2333  0334  2B40               	goto	l1815
  2334  0335                     u2800:
  2335  0335                     l1813:
  2336  0335  307F               	movlw	127
  2337  0336  1283               	bcf	3,5	;RP0=0, select bank0
  2338  0337  1303               	bcf	3,6	;RP1=0, select bank0
  2339  0338  00D7               	movwf	___flmul@prod+3
  2340  0339  3080               	movlw	128
  2341  033A  00D6               	movwf	___flmul@prod+2
  2342  033B  3000               	movlw	0
  2343  033C  00D5               	movwf	___flmul@prod+1
  2344  033D  3000               	movlw	0
  2345  033E  00D4               	movwf	___flmul@prod
  2346  033F  2B75               	goto	l554
  2347  0340                     l1815:
  2348  0340  1283               	bcf	3,5	;RP0=0, select bank0
  2349  0341  1303               	bcf	3,6	;RP1=0, select bank0
  2350  0342  0859               	movf	___flmul@temp+1,w
  2351  0343  3A80               	xorlw	128
  2352  0344  00FF               	movwf	btemp+1
  2353  0345  3080               	movlw	128
  2354  0346  027F               	subwf	btemp+1,w
  2355  0347  1D03               	skipz
  2356  0348  2B4B               	goto	u2815
  2357  0349  3001               	movlw	1
  2358  034A  0258               	subwf	___flmul@temp,w
  2359  034B                     u2815:
  2360  034B  1803               	skipnc
  2361  034C  2B4E               	goto	u2811
  2362  034D  2B4F               	goto	u2810
  2363  034E                     u2811:
  2364  034E  2B5B               	goto	l1821
  2365  034F                     u2810:
  2366  034F                     l1817:
  2367  034F  3000               	movlw	0
  2368  0350  1283               	bcf	3,5	;RP0=0, select bank0
  2369  0351  1303               	bcf	3,6	;RP1=0, select bank0
  2370  0352  00D7               	movwf	___flmul@prod+3
  2371  0353  3000               	movlw	0
  2372  0354  00D6               	movwf	___flmul@prod+2
  2373  0355  3000               	movlw	0
  2374  0356  00D5               	movwf	___flmul@prod+1
  2375  0357  3000               	movlw	0
  2376  0358  00D4               	movwf	___flmul@prod
  2377  0359                     l1819:
  2378  0359  01CD               	clrf	___flmul@sign
  2379  035A  2B75               	goto	l554
  2380  035B                     l1821:
  2381  035B  1283               	bcf	3,5	;RP0=0, select bank0
  2382  035C  1303               	bcf	3,6	;RP1=0, select bank0
  2383  035D  0858               	movf	___flmul@temp,w
  2384  035E  00C8               	movwf	??___flmul
  2385  035F  0848               	movf	??___flmul,w
  2386  0360  00D3               	movwf	___flmul@bexp
  2387  0361  30FF               	movlw	255
  2388  0362  05D4               	andwf	___flmul@prod,f
  2389  0363  30FF               	movlw	255
  2390  0364  05D5               	andwf	___flmul@prod+1,f
  2391  0365  307F               	movlw	127
  2392  0366  05D6               	andwf	___flmul@prod+2,f
  2393  0367  3000               	movlw	0
  2394  0368  05D7               	andwf	___flmul@prod+3,f
  2395  0369                     l1823:
  2396  0369  1C53               	btfss	___flmul@bexp,0
  2397  036A  2B6C               	goto	u2821
  2398  036B  2B6D               	goto	u2820
  2399  036C                     u2821:
  2400  036C  2B6E               	goto	l1827
  2401  036D                     u2820:
  2402  036D                     l1825:
  2403  036D  17D6               	bsf	___flmul@prod+2,7
  2404  036E                     l1827:
  2405  036E  0853               	movf	___flmul@bexp,w
  2406  036F  00C8               	movwf	??___flmul
  2407  0370  1003               	clrc
  2408  0371  0C48               	rrf	??___flmul,w
  2409  0372  00C9               	movwf	??___flmul+1
  2410  0373  0849               	movf	??___flmul+1,w
  2411  0374  00D7               	movwf	___flmul@prod+3
  2412  0375                     l554:
  2413  0375  084D               	movf	___flmul@sign,w
  2414  0376  00C8               	movwf	??___flmul
  2415  0377  0848               	movf	??___flmul,w
  2416  0378  04D7               	iorwf	___flmul@prod+3,f
  2417  0379                     l1829:
  2418  0379  0857               	movf	___flmul@prod+3,w
  2419  037A  00C3               	movwf	?___flmul+3
  2420  037B  0856               	movf	___flmul@prod+2,w
  2421  037C  00C2               	movwf	?___flmul+2
  2422  037D  0855               	movf	___flmul@prod+1,w
  2423  037E  00C1               	movwf	?___flmul+1
  2424  037F  0854               	movf	___flmul@prod,w
  2425  0380  00C0               	movwf	?___flmul
  2426  0381                     l542:
  2427  0381  0008               	return
  2428  0382                     __end_of___flmul:
  2429                           
  2430                           	psect	text6
  2431  0CA2                     __ptext6:	
  2432 ;; *************** function __Umul8_16 *****************
  2433 ;; Defined at:
  2434 ;;		line 4 in file "D:\File Install MBLAB IDE\XC8\pic\sources\c90\common\Umul8_16.c"
  2435 ;; Parameters:    Size  Location     Type
  2436 ;;  multiplier      1    wreg     unsigned char 
  2437 ;;  multiplicand    1    2[COMMON] unsigned char 
  2438 ;; Auto vars:     Size  Location     Type
  2439 ;;  multiplier      1   10[COMMON] unsigned char 
  2440 ;;  word_mpld       2    8[COMMON] unsigned int 
  2441 ;;  product         2    6[COMMON] unsigned int 
  2442 ;; Return value:  Size  Location     Type
  2443 ;;                  2    2[COMMON] unsigned int 
  2444 ;; Registers used:
  2445 ;;		wreg, status,2, status,0
  2446 ;; Tracked objects:
  2447 ;;		On entry : 0/0
  2448 ;;		On exit  : 0/0
  2449 ;;		Unchanged: 0/0
  2450 ;; Data sizes:     COMMON   BANK0   BANK1   BANK3   BANK2
  2451 ;;      Params:         2       0       0       0       0
  2452 ;;      Locals:         5       0       0       0       0
  2453 ;;      Temps:          2       0       0       0       0
  2454 ;;      Totals:         9       0       0       0       0
  2455 ;;Total ram usage:        9 bytes
  2456 ;; Hardware stack levels used: 1
  2457 ;; Hardware stack levels required when called: 1
  2458 ;; This function calls:
  2459 ;;		Nothing
  2460 ;; This function is called by:
  2461 ;;		___flmul
  2462 ;; This function uses a non-reentrant model
  2463 ;;
  2464                           
  2465                           
  2466                           ;psect for function __Umul8_16
  2467  0CA2                     __Umul8_16:
  2468                           
  2469                           ;incstack = 0
  2470                           ; Regs used in __Umul8_16: [wreg+status,2+status,0]
  2471                           ;__Umul8_16@multiplier stored from wreg
  2472  0CA2  00FA               	movwf	__Umul8_16@multiplier
  2473  0CA3                     l1307:
  2474  0CA3  01F6               	clrf	__Umul8_16@product
  2475  0CA4  01F7               	clrf	__Umul8_16@product+1
  2476  0CA5                     l1309:
  2477  0CA5  0872               	movf	__Umul8_16@multiplicand,w
  2478  0CA6  00F4               	movwf	??__Umul8_16
  2479  0CA7  01F5               	clrf	??__Umul8_16+1
  2480  0CA8  0874               	movf	??__Umul8_16,w
  2481  0CA9  00F8               	movwf	__Umul8_16@word_mpld
  2482  0CAA  0875               	movf	??__Umul8_16+1,w
  2483  0CAB  00F9               	movwf	__Umul8_16@word_mpld+1
  2484  0CAC                     l1311:
  2485  0CAC  1C7A               	btfss	__Umul8_16@multiplier,0
  2486  0CAD  2CAF               	goto	u1581
  2487  0CAE  2CB0               	goto	u1580
  2488  0CAF                     u1581:
  2489  0CAF  2CB6               	goto	l561
  2490  0CB0                     u1580:
  2491  0CB0                     l1313:
  2492  0CB0  0878               	movf	__Umul8_16@word_mpld,w
  2493  0CB1  07F6               	addwf	__Umul8_16@product,f
  2494  0CB2  1803               	skipnc
  2495  0CB3  0AF7               	incf	__Umul8_16@product+1,f
  2496  0CB4  0879               	movf	__Umul8_16@word_mpld+1,w
  2497  0CB5  07F7               	addwf	__Umul8_16@product+1,f
  2498  0CB6                     l561:
  2499  0CB6  3001               	movlw	1
  2500  0CB7                     u1595:
  2501  0CB7  1003               	clrc
  2502  0CB8  0DF8               	rlf	__Umul8_16@word_mpld,f
  2503  0CB9  0DF9               	rlf	__Umul8_16@word_mpld+1,f
  2504  0CBA  3EFF               	addlw	-1
  2505  0CBB  1D03               	skipz
  2506  0CBC  2CB7               	goto	u1595
  2507  0CBD  1003               	clrc
  2508  0CBE  0CFA               	rrf	__Umul8_16@multiplier,f
  2509  0CBF                     l1315:
  2510  0CBF  087A               	movf	__Umul8_16@multiplier,w
  2511  0CC0  1D03               	btfss	3,2
  2512  0CC1  2CC3               	goto	u1601
  2513  0CC2  2CC4               	goto	u1600
  2514  0CC3                     u1601:
  2515  0CC3  2CAC               	goto	l1311
  2516  0CC4                     u1600:
  2517  0CC4                     l1317:
  2518  0CC4  0877               	movf	__Umul8_16@product+1,w
  2519  0CC5  00F3               	movwf	?__Umul8_16+1
  2520  0CC6  0876               	movf	__Umul8_16@product,w
  2521  0CC7  00F2               	movwf	?__Umul8_16
  2522  0CC8                     l563:
  2523  0CC8  0008               	return
  2524  0CC9                     __end_of__Umul8_16:
  2525                           
  2526                           	psect	text7
  2527  060A                     __ptext7:	
  2528 ;; *************** function ___fldiv *****************
  2529 ;; Defined at:
  2530 ;;		line 8 in file "D:\File Install MBLAB IDE\XC8\pic\sources\c90\common\sprcdiv.c"
  2531 ;; Parameters:    Size  Location     Type
  2532 ;;  a               4    6[BANK0 ] unsigned int 
  2533 ;;  b               4   10[BANK0 ] unsigned int 
  2534 ;; Auto vars:     Size  Location     Type
  2535 ;;  grs             4   26[BANK0 ] unsigned long 
  2536 ;;  rem             4   19[BANK0 ] unsigned long 
  2537 ;;  new_exp         2   24[BANK0 ] int 
  2538 ;;  aexp            1   31[BANK0 ] unsigned char 
  2539 ;;  bexp            1   30[BANK0 ] unsigned char 
  2540 ;;  sign            1   23[BANK0 ] unsigned char 
  2541 ;; Return value:  Size  Location     Type
  2542 ;;                  4    6[BANK0 ] unsigned char 
  2543 ;; Registers used:
  2544 ;;		wreg, status,2, status,0, btemp+1
  2545 ;; Tracked objects:
  2546 ;;		On entry : 0/0
  2547 ;;		On exit  : 0/0
  2548 ;;		Unchanged: 0/0
  2549 ;; Data sizes:     COMMON   BANK0   BANK1   BANK3   BANK2
  2550 ;;      Params:         0       8       0       0       0
  2551 ;;      Locals:         0      13       0       0       0
  2552 ;;      Temps:          0       5       0       0       0
  2553 ;;      Totals:         0      26       0       0       0
  2554 ;;Total ram usage:       26 bytes
  2555 ;; Hardware stack levels used: 1
  2556 ;; Hardware stack levels required when called: 1
  2557 ;; This function calls:
  2558 ;;		Nothing
  2559 ;; This function is called by:
  2560 ;;		_PWM_Servo
  2561 ;; This function uses a non-reentrant model
  2562 ;;
  2563                           
  2564                           
  2565                           ;psect for function ___fldiv
  2566  060A                     ___fldiv:
  2567  060A                     l1551:	
  2568                           ;incstack = 0
  2569                           ; Regs used in ___fldiv: [wreg+status,2+status,0+btemp+1]
  2570                           
  2571  060A  1283               	bcf	3,5	;RP0=0, select bank0
  2572  060B  1303               	bcf	3,6	;RP1=0, select bank0
  2573  060C  082D               	movf	___fldiv@b+3,w
  2574  060D  3980               	andlw	128
  2575  060E  00AE               	movwf	??___fldiv
  2576  060F  082E               	movf	??___fldiv,w
  2577  0610  00B7               	movwf	___fldiv@sign
  2578  0611                     l1553:
  2579  0611  082D               	movf	___fldiv@b+3,w
  2580  0612  00AE               	movwf	??___fldiv
  2581  0613  072E               	addwf	??___fldiv,w
  2582  0614  00AF               	movwf	??___fldiv+1
  2583  0615  082F               	movf	??___fldiv+1,w
  2584  0616  00BE               	movwf	___fldiv@bexp
  2585  0617                     l1555:
  2586  0617  1FAC               	btfss	___fldiv@b+2,7
  2587  0618  2E1A               	goto	u2171
  2588  0619  2E1B               	goto	u2170
  2589  061A                     u2171:
  2590  061A  2E1C               	goto	l1559
  2591  061B                     u2170:
  2592  061B                     l1557:
  2593  061B  143E               	bsf	___fldiv@bexp,0
  2594  061C                     l1559:
  2595  061C  083E               	movf	___fldiv@bexp,w
  2596  061D  1903               	btfsc	3,2
  2597  061E  2E20               	goto	u2181
  2598  061F  2E21               	goto	u2180
  2599  0620                     u2181:
  2600  0620  2E31               	goto	l1569
  2601  0621                     u2180:
  2602  0621                     l1561:
  2603  0621  0A3E               	incf	___fldiv@bexp,w
  2604  0622  1D03               	btfss	3,2
  2605  0623  2E25               	goto	u2191
  2606  0624  2E26               	goto	u2190
  2607  0625                     u2191:
  2608  0625  2E2E               	goto	l1565
  2609  0626                     u2190:
  2610  0626                     l1563:
  2611  0626  3000               	movlw	0
  2612  0627  00AD               	movwf	___fldiv@b+3
  2613  0628  3000               	movlw	0
  2614  0629  00AC               	movwf	___fldiv@b+2
  2615  062A  3000               	movlw	0
  2616  062B  00AB               	movwf	___fldiv@b+1
  2617  062C  3000               	movlw	0
  2618  062D  00AA               	movwf	___fldiv@b
  2619  062E                     l1565:
  2620  062E  17AC               	bsf	___fldiv@b+2,7
  2621  062F                     l1567:
  2622  062F  01AD               	clrf	___fldiv@b+3
  2623  0630  2E39               	goto	l1571
  2624  0631                     l1569:
  2625  0631  3000               	movlw	0
  2626  0632  00AD               	movwf	___fldiv@b+3
  2627  0633  3000               	movlw	0
  2628  0634  00AC               	movwf	___fldiv@b+2
  2629  0635  3000               	movlw	0
  2630  0636  00AB               	movwf	___fldiv@b+1
  2631  0637  3000               	movlw	0
  2632  0638  00AA               	movwf	___fldiv@b
  2633  0639                     l1571:
  2634  0639  0829               	movf	___fldiv@a+3,w
  2635  063A  3980               	andlw	128
  2636  063B  00AE               	movwf	??___fldiv
  2637  063C  082E               	movf	??___fldiv,w
  2638  063D  06B7               	xorwf	___fldiv@sign,f
  2639  063E                     l1573:
  2640  063E  0829               	movf	___fldiv@a+3,w
  2641  063F  00AE               	movwf	??___fldiv
  2642  0640  072E               	addwf	??___fldiv,w
  2643  0641  00AF               	movwf	??___fldiv+1
  2644  0642  082F               	movf	??___fldiv+1,w
  2645  0643  00BF               	movwf	___fldiv@aexp
  2646  0644                     l1575:
  2647  0644  1FA8               	btfss	___fldiv@a+2,7
  2648  0645  2E47               	goto	u2201
  2649  0646  2E48               	goto	u2200
  2650  0647                     u2201:
  2651  0647  2E49               	goto	l1579
  2652  0648                     u2200:
  2653  0648                     l1577:
  2654  0648  143F               	bsf	___fldiv@aexp,0
  2655  0649                     l1579:
  2656  0649  083F               	movf	___fldiv@aexp,w
  2657  064A  1903               	btfsc	3,2
  2658  064B  2E4D               	goto	u2211
  2659  064C  2E4E               	goto	u2210
  2660  064D                     u2211:
  2661  064D  2E5E               	goto	l1589
  2662  064E                     u2210:
  2663  064E                     l1581:
  2664  064E  0A3F               	incf	___fldiv@aexp,w
  2665  064F  1D03               	btfss	3,2
  2666  0650  2E52               	goto	u2221
  2667  0651  2E53               	goto	u2220
  2668  0652                     u2221:
  2669  0652  2E5B               	goto	l1585
  2670  0653                     u2220:
  2671  0653                     l1583:
  2672  0653  3000               	movlw	0
  2673  0654  00A9               	movwf	___fldiv@a+3
  2674  0655  3000               	movlw	0
  2675  0656  00A8               	movwf	___fldiv@a+2
  2676  0657  3000               	movlw	0
  2677  0658  00A7               	movwf	___fldiv@a+1
  2678  0659  3000               	movlw	0
  2679  065A  00A6               	movwf	___fldiv@a
  2680  065B                     l1585:
  2681  065B  17A8               	bsf	___fldiv@a+2,7
  2682  065C                     l1587:
  2683  065C  01A9               	clrf	___fldiv@a+3
  2684  065D  2E66               	goto	l502
  2685  065E                     l1589:
  2686  065E  3000               	movlw	0
  2687  065F  00A9               	movwf	___fldiv@a+3
  2688  0660  3000               	movlw	0
  2689  0661  00A8               	movwf	___fldiv@a+2
  2690  0662  3000               	movlw	0
  2691  0663  00A7               	movwf	___fldiv@a+1
  2692  0664  3000               	movlw	0
  2693  0665  00A6               	movwf	___fldiv@a
  2694  0666                     l502:
  2695  0666  0829               	movf	___fldiv@a+3,w
  2696  0667  0428               	iorwf	___fldiv@a+2,w
  2697  0668  0427               	iorwf	___fldiv@a+1,w
  2698  0669  0426               	iorwf	___fldiv@a,w
  2699  066A  1D03               	skipz
  2700  066B  2E6D               	goto	u2231
  2701  066C  2E6E               	goto	u2230
  2702  066D                     u2231:
  2703  066D  2E87               	goto	l1599
  2704  066E                     u2230:
  2705  066E                     l1591:
  2706  066E  3000               	movlw	0
  2707  066F  00AD               	movwf	___fldiv@b+3
  2708  0670  3000               	movlw	0
  2709  0671  00AC               	movwf	___fldiv@b+2
  2710  0672  3000               	movlw	0
  2711  0673  00AB               	movwf	___fldiv@b+1
  2712  0674  3000               	movlw	0
  2713  0675  00AA               	movwf	___fldiv@b
  2714  0676  3080               	movlw	128
  2715  0677  04AC               	iorwf	___fldiv@b+2,f
  2716  0678  307F               	movlw	127
  2717  0679  04AD               	iorwf	___fldiv@b+3,f
  2718  067A                     l1593:
  2719  067A  0837               	movf	___fldiv@sign,w
  2720  067B  00AE               	movwf	??___fldiv
  2721  067C  082E               	movf	??___fldiv,w
  2722  067D  04AD               	iorwf	___fldiv@b+3,f
  2723  067E                     l1595:
  2724  067E  082D               	movf	___fldiv@b+3,w
  2725  067F  00A9               	movwf	?___fldiv+3
  2726  0680  082C               	movf	___fldiv@b+2,w
  2727  0681  00A8               	movwf	?___fldiv+2
  2728  0682  082B               	movf	___fldiv@b+1,w
  2729  0683  00A7               	movwf	?___fldiv+1
  2730  0684  082A               	movf	___fldiv@b,w
  2731  0685  00A6               	movwf	?___fldiv
  2732  0686  2FE6               	goto	l504
  2733  0687                     l1599:
  2734  0687  083E               	movf	___fldiv@bexp,w
  2735  0688  1D03               	btfss	3,2
  2736  0689  2E8B               	goto	u2241
  2737  068A  2E8C               	goto	u2240
  2738  068B                     u2241:
  2739  068B  2E95               	goto	l1605
  2740  068C                     u2240:
  2741  068C                     l1601:
  2742  068C  3000               	movlw	0
  2743  068D  00A9               	movwf	?___fldiv+3
  2744  068E  3000               	movlw	0
  2745  068F  00A8               	movwf	?___fldiv+2
  2746  0690  3000               	movlw	0
  2747  0691  00A7               	movwf	?___fldiv+1
  2748  0692  3000               	movlw	0
  2749  0693  00A6               	movwf	?___fldiv
  2750  0694  2FE6               	goto	l504
  2751  0695                     l1605:
  2752  0695  083E               	movf	___fldiv@bexp,w
  2753  0696  00AE               	movwf	??___fldiv
  2754  0697  01AF               	clrf	??___fldiv+1
  2755  0698  082F               	movf	??___fldiv+1,w
  2756  0699  00B1               	movwf	??___fldiv+3
  2757  069A  083F               	movf	___fldiv@aexp,w
  2758  069B  022E               	subwf	??___fldiv,w
  2759  069C  00B0               	movwf	??___fldiv+2
  2760  069D  1C03               	skipc
  2761  069E  03B1               	decf	??___fldiv+3,f
  2762  069F  0830               	movf	??___fldiv+2,w
  2763  06A0  3E7F               	addlw	127
  2764  06A1  00B8               	movwf	___fldiv@new_exp
  2765  06A2  0831               	movf	??___fldiv+3,w
  2766  06A3  1803               	skipnc
  2767  06A4  3E01               	addlw	1
  2768  06A5  3E00               	addlw	0
  2769  06A6  00B9               	movwf	___fldiv@new_exp+1
  2770  06A7                     l1607:
  2771  06A7  082D               	movf	___fldiv@b+3,w
  2772  06A8  00B6               	movwf	___fldiv@rem+3
  2773  06A9  082C               	movf	___fldiv@b+2,w
  2774  06AA  00B5               	movwf	___fldiv@rem+2
  2775  06AB  082B               	movf	___fldiv@b+1,w
  2776  06AC  00B4               	movwf	___fldiv@rem+1
  2777  06AD  082A               	movf	___fldiv@b,w
  2778  06AE  00B3               	movwf	___fldiv@rem
  2779  06AF                     l1609:
  2780  06AF  3000               	movlw	0
  2781  06B0  00AD               	movwf	___fldiv@b+3
  2782  06B1  3000               	movlw	0
  2783  06B2  00AC               	movwf	___fldiv@b+2
  2784  06B3  3000               	movlw	0
  2785  06B4  00AB               	movwf	___fldiv@b+1
  2786  06B5  3000               	movlw	0
  2787  06B6  00AA               	movwf	___fldiv@b
  2788  06B7                     l1611:
  2789  06B7  3000               	movlw	0
  2790  06B8  00BD               	movwf	___fldiv@grs+3
  2791  06B9  3000               	movlw	0
  2792  06BA  00BC               	movwf	___fldiv@grs+2
  2793  06BB  3000               	movlw	0
  2794  06BC  00BB               	movwf	___fldiv@grs+1
  2795  06BD  3000               	movlw	0
  2796  06BE  00BA               	movwf	___fldiv@grs
  2797  06BF                     l1613:
  2798  06BF  01BF               	clrf	___fldiv@aexp
  2799  06C0  2F0B               	goto	l1633
  2800  06C1                     l1615:
  2801  06C1  083F               	movf	___fldiv@aexp,w
  2802  06C2  1903               	btfsc	3,2
  2803  06C3  2EC5               	goto	u2251
  2804  06C4  2EC6               	goto	u2250
  2805  06C5                     u2251:
  2806  06C5  2EE6               	goto	l1625
  2807  06C6                     u2250:
  2808  06C6                     l1617:
  2809  06C6  3001               	movlw	1
  2810  06C7  00AE               	movwf	??___fldiv
  2811  06C8                     u2265:
  2812  06C8  1003               	clrc
  2813  06C9  0DB3               	rlf	___fldiv@rem,f
  2814  06CA  0DB4               	rlf	___fldiv@rem+1,f
  2815  06CB  0DB5               	rlf	___fldiv@rem+2,f
  2816  06CC  0DB6               	rlf	___fldiv@rem+3,f
  2817  06CD  0BAE               	decfsz	??___fldiv,f
  2818  06CE  2EC8               	goto	u2265
  2819  06CF  3001               	movlw	1
  2820  06D0  00AE               	movwf	??___fldiv
  2821  06D1                     u2275:
  2822  06D1  1003               	clrc
  2823  06D2  0DAA               	rlf	___fldiv@b,f
  2824  06D3  0DAB               	rlf	___fldiv@b+1,f
  2825  06D4  0DAC               	rlf	___fldiv@b+2,f
  2826  06D5  0DAD               	rlf	___fldiv@b+3,f
  2827  06D6  0BAE               	decfsz	??___fldiv,f
  2828  06D7  2ED1               	goto	u2275
  2829  06D8                     l1619:
  2830  06D8  1FBD               	btfss	___fldiv@grs+3,7
  2831  06D9  2EDB               	goto	u2281
  2832  06DA  2EDC               	goto	u2280
  2833  06DB                     u2281:
  2834  06DB  2EDD               	goto	l1623
  2835  06DC                     u2280:
  2836  06DC                     l1621:
  2837  06DC  142A               	bsf	___fldiv@b,0
  2838  06DD                     l1623:
  2839  06DD  3001               	movlw	1
  2840  06DE  00AE               	movwf	??___fldiv
  2841  06DF                     u2295:
  2842  06DF  1003               	clrc
  2843  06E0  0DBA               	rlf	___fldiv@grs,f
  2844  06E1  0DBB               	rlf	___fldiv@grs+1,f
  2845  06E2  0DBC               	rlf	___fldiv@grs+2,f
  2846  06E3  0DBD               	rlf	___fldiv@grs+3,f
  2847  06E4  0BAE               	decfsz	??___fldiv,f
  2848  06E5  2EDF               	goto	u2295
  2849  06E6                     l1625:
  2850  06E6  0829               	movf	___fldiv@a+3,w
  2851  06E7  0236               	subwf	___fldiv@rem+3,w
  2852  06E8  1D03               	skipz
  2853  06E9  2EF4               	goto	u2305
  2854  06EA  0828               	movf	___fldiv@a+2,w
  2855  06EB  0235               	subwf	___fldiv@rem+2,w
  2856  06EC  1D03               	skipz
  2857  06ED  2EF4               	goto	u2305
  2858  06EE  0827               	movf	___fldiv@a+1,w
  2859  06EF  0234               	subwf	___fldiv@rem+1,w
  2860  06F0  1D03               	skipz
  2861  06F1  2EF4               	goto	u2305
  2862  06F2  0826               	movf	___fldiv@a,w
  2863  06F3  0233               	subwf	___fldiv@rem,w
  2864  06F4                     u2305:
  2865  06F4  1C03               	skipc
  2866  06F5  2EF7               	goto	u2301
  2867  06F6  2EF8               	goto	u2300
  2868  06F7                     u2301:
  2869  06F7  2F07               	goto	l1631
  2870  06F8                     u2300:
  2871  06F8                     l1627:
  2872  06F8  173D               	bsf	___fldiv@grs+3,6
  2873  06F9                     l1629:
  2874  06F9  0826               	movf	___fldiv@a,w
  2875  06FA  02B3               	subwf	___fldiv@rem,f
  2876  06FB  0827               	movf	___fldiv@a+1,w
  2877  06FC  1C03               	skipc
  2878  06FD  0F27               	incfsz	___fldiv@a+1,w
  2879  06FE  02B4               	subwf	___fldiv@rem+1,f
  2880  06FF  0828               	movf	___fldiv@a+2,w
  2881  0700  1C03               	skipc
  2882  0701  0F28               	incfsz	___fldiv@a+2,w
  2883  0702  02B5               	subwf	___fldiv@rem+2,f
  2884  0703  0829               	movf	___fldiv@a+3,w
  2885  0704  1C03               	skipc
  2886  0705  0F29               	incfsz	___fldiv@a+3,w
  2887  0706  02B6               	subwf	___fldiv@rem+3,f
  2888  0707                     l1631:
  2889  0707  3001               	movlw	1
  2890  0708  00AE               	movwf	??___fldiv
  2891  0709  082E               	movf	??___fldiv,w
  2892  070A  07BF               	addwf	___fldiv@aexp,f
  2893  070B                     l1633:
  2894  070B  301A               	movlw	26
  2895  070C  023F               	subwf	___fldiv@aexp,w
  2896  070D  1C03               	skipc
  2897  070E  2F10               	goto	u2311
  2898  070F  2F11               	goto	u2310
  2899  0710                     u2311:
  2900  0710  2EC1               	goto	l1615
  2901  0711                     u2310:
  2902  0711                     l1635:
  2903  0711  0836               	movf	___fldiv@rem+3,w
  2904  0712  0435               	iorwf	___fldiv@rem+2,w
  2905  0713  0434               	iorwf	___fldiv@rem+1,w
  2906  0714  0433               	iorwf	___fldiv@rem,w
  2907  0715  1903               	skipnz
  2908  0716  2F18               	goto	u2321
  2909  0717  2F19               	goto	u2320
  2910  0718                     u2321:
  2911  0718  2F38               	goto	l1649
  2912  0719                     u2320:
  2913  0719                     l1637:
  2914  0719  143A               	bsf	___fldiv@grs,0
  2915  071A  2F38               	goto	l1649
  2916  071B                     l1639:
  2917  071B  3001               	movlw	1
  2918  071C  00AE               	movwf	??___fldiv
  2919  071D                     u2335:
  2920  071D  1003               	clrc
  2921  071E  0DAA               	rlf	___fldiv@b,f
  2922  071F  0DAB               	rlf	___fldiv@b+1,f
  2923  0720  0DAC               	rlf	___fldiv@b+2,f
  2924  0721  0DAD               	rlf	___fldiv@b+3,f
  2925  0722  0BAE               	decfsz	??___fldiv,f
  2926  0723  2F1D               	goto	u2335
  2927  0724                     l1641:
  2928  0724  1FBD               	btfss	___fldiv@grs+3,7
  2929  0725  2F27               	goto	u2341
  2930  0726  2F28               	goto	u2340
  2931  0727                     u2341:
  2932  0727  2F29               	goto	l1645
  2933  0728                     u2340:
  2934  0728                     l1643:
  2935  0728  142A               	bsf	___fldiv@b,0
  2936  0729                     l1645:
  2937  0729  3001               	movlw	1
  2938  072A  00AE               	movwf	??___fldiv
  2939  072B                     u2355:
  2940  072B  1003               	clrc
  2941  072C  0DBA               	rlf	___fldiv@grs,f
  2942  072D  0DBB               	rlf	___fldiv@grs+1,f
  2943  072E  0DBC               	rlf	___fldiv@grs+2,f
  2944  072F  0DBD               	rlf	___fldiv@grs+3,f
  2945  0730  0BAE               	decfsz	??___fldiv,f
  2946  0731  2F2B               	goto	u2355
  2947  0732                     l1647:
  2948  0732  30FF               	movlw	255
  2949  0733  07B8               	addwf	___fldiv@new_exp,f
  2950  0734  1803               	skipnc
  2951  0735  0AB9               	incf	___fldiv@new_exp+1,f
  2952  0736  30FF               	movlw	255
  2953  0737  07B9               	addwf	___fldiv@new_exp+1,f
  2954  0738                     l1649:
  2955  0738  1FAC               	btfss	___fldiv@b+2,7
  2956  0739  2F3B               	goto	u2361
  2957  073A  2F3C               	goto	u2360
  2958  073B                     u2361:
  2959  073B  2F1B               	goto	l1639
  2960  073C                     u2360:
  2961  073C                     l1651:
  2962  073C  01BF               	clrf	___fldiv@aexp
  2963  073D                     l1653:
  2964  073D  1FBD               	btfss	___fldiv@grs+3,7
  2965  073E  2F40               	goto	u2371
  2966  073F  2F41               	goto	u2370
  2967  0740                     u2371:
  2968  0740  2F5D               	goto	l1661
  2969  0741                     u2370:
  2970  0741                     l1655:
  2971  0741  30FF               	movlw	255
  2972  0742  053A               	andwf	___fldiv@grs,w
  2973  0743  00AE               	movwf	??___fldiv
  2974  0744  30FF               	movlw	255
  2975  0745  053B               	andwf	___fldiv@grs+1,w
  2976  0746  00AF               	movwf	??___fldiv+1
  2977  0747  30FF               	movlw	255
  2978  0748  053C               	andwf	___fldiv@grs+2,w
  2979  0749  00B0               	movwf	??___fldiv+2
  2980  074A  307F               	movlw	127
  2981  074B  053D               	andwf	___fldiv@grs+3,w
  2982  074C  00B1               	movwf	??___fldiv+3
  2983  074D  0831               	movf	??___fldiv+3,w
  2984  074E  0430               	iorwf	??___fldiv+2,w
  2985  074F  042F               	iorwf	??___fldiv+1,w
  2986  0750  042E               	iorwf	??___fldiv,w
  2987  0751  1903               	skipnz
  2988  0752  2F54               	goto	u2381
  2989  0753  2F55               	goto	u2380
  2990  0754                     u2381:
  2991  0754  2F58               	goto	l518
  2992  0755                     u2380:
  2993  0755                     l1657:
  2994  0755  01BF               	clrf	___fldiv@aexp
  2995  0756  0ABF               	incf	___fldiv@aexp,f
  2996  0757  2F5D               	goto	l1661
  2997  0758                     l518:
  2998  0758  1C2A               	btfss	___fldiv@b,0
  2999  0759  2F5B               	goto	u2391
  3000  075A  2F5C               	goto	u2390
  3001  075B                     u2391:
  3002  075B  2F5D               	goto	l1661
  3003  075C                     u2390:
  3004  075C  2F55               	goto	l1657
  3005  075D                     l1661:
  3006  075D  083F               	movf	___fldiv@aexp,w
  3007  075E  1903               	btfsc	3,2
  3008  075F  2F61               	goto	u2401
  3009  0760  2F62               	goto	u2400
  3010  0761                     u2401:
  3011  0761  2F93               	goto	l1671
  3012  0762                     u2400:
  3013  0762                     l1663:
  3014  0762  3001               	movlw	1
  3015  0763  07AA               	addwf	___fldiv@b,f
  3016  0764  3000               	movlw	0
  3017  0765  1803               	skipnc
  3018  0766  3001               	movlw	1
  3019  0767  07AB               	addwf	___fldiv@b+1,f
  3020  0768  3000               	movlw	0
  3021  0769  1803               	skipnc
  3022  076A  3001               	movlw	1
  3023  076B  07AC               	addwf	___fldiv@b+2,f
  3024  076C  3000               	movlw	0
  3025  076D  1803               	skipnc
  3026  076E  3001               	movlw	1
  3027  076F  07AD               	addwf	___fldiv@b+3,f
  3028  0770                     l1665:
  3029  0770  1C2D               	btfss	___fldiv@b+3,0
  3030  0771  2F73               	goto	u2411
  3031  0772  2F74               	goto	u2410
  3032  0773                     u2411:
  3033  0773  2F93               	goto	l1671
  3034  0774                     u2410:
  3035  0774                     l1667:
  3036  0774  082A               	movf	___fldiv@b,w
  3037  0775  00AE               	movwf	??___fldiv
  3038  0776  082B               	movf	___fldiv@b+1,w
  3039  0777  00AF               	movwf	??___fldiv+1
  3040  0778  082C               	movf	___fldiv@b+2,w
  3041  0779  00B0               	movwf	??___fldiv+2
  3042  077A  082D               	movf	___fldiv@b+3,w
  3043  077B  00B1               	movwf	??___fldiv+3
  3044  077C  3001               	movlw	1
  3045  077D  00B2               	movwf	??___fldiv+4
  3046  077E                     u2425:
  3047  077E  0D31               	rlf	??___fldiv+3,w
  3048  077F  0CB1               	rrf	??___fldiv+3,f
  3049  0780  0CB0               	rrf	??___fldiv+2,f
  3050  0781  0CAF               	rrf	??___fldiv+1,f
  3051  0782  0CAE               	rrf	??___fldiv,f
  3052  0783                     u2420:
  3053  0783  0BB2               	decfsz	??___fldiv+4,f
  3054  0784  2F7E               	goto	u2425
  3055  0785  0831               	movf	??___fldiv+3,w
  3056  0786  00AD               	movwf	___fldiv@b+3
  3057  0787  0830               	movf	??___fldiv+2,w
  3058  0788  00AC               	movwf	___fldiv@b+2
  3059  0789  082F               	movf	??___fldiv+1,w
  3060  078A  00AB               	movwf	___fldiv@b+1
  3061  078B  082E               	movf	??___fldiv,w
  3062  078C  00AA               	movwf	___fldiv@b
  3063  078D                     l1669:
  3064  078D  3001               	movlw	1
  3065  078E  07B8               	addwf	___fldiv@new_exp,f
  3066  078F  1803               	skipnc
  3067  0790  0AB9               	incf	___fldiv@new_exp+1,f
  3068  0791  3000               	movlw	0
  3069  0792  07B9               	addwf	___fldiv@new_exp+1,f
  3070  0793                     l1671:
  3071  0793  0839               	movf	___fldiv@new_exp+1,w
  3072  0794  3A80               	xorlw	128
  3073  0795  00FF               	movwf	btemp+1
  3074  0796  3080               	movlw	128
  3075  0797  027F               	subwf	btemp+1,w
  3076  0798  1D03               	skipz
  3077  0799  2F9C               	goto	u2435
  3078  079A  30FF               	movlw	255
  3079  079B  0238               	subwf	___fldiv@new_exp,w
  3080  079C                     u2435:
  3081  079C  1C03               	skipc
  3082  079D  2F9F               	goto	u2431
  3083  079E  2FA0               	goto	u2430
  3084  079F                     u2431:
  3085  079F  2FAE               	goto	l1675
  3086  07A0                     u2430:
  3087  07A0                     l1673:
  3088  07A0  30FF               	movlw	255
  3089  07A1  1283               	bcf	3,5	;RP0=0, select bank0
  3090  07A2  1303               	bcf	3,6	;RP1=0, select bank0
  3091  07A3  00B8               	movwf	___fldiv@new_exp
  3092  07A4  3000               	movlw	0
  3093  07A5  00B9               	movwf	___fldiv@new_exp+1
  3094  07A6  3000               	movlw	0
  3095  07A7  00AD               	movwf	___fldiv@b+3
  3096  07A8  3000               	movlw	0
  3097  07A9  00AC               	movwf	___fldiv@b+2
  3098  07AA  3000               	movlw	0
  3099  07AB  00AB               	movwf	___fldiv@b+1
  3100  07AC  3000               	movlw	0
  3101  07AD  00AA               	movwf	___fldiv@b
  3102  07AE                     l1675:
  3103  07AE  1283               	bcf	3,5	;RP0=0, select bank0
  3104  07AF  1303               	bcf	3,6	;RP1=0, select bank0
  3105  07B0  0839               	movf	___fldiv@new_exp+1,w
  3106  07B1  3A80               	xorlw	128
  3107  07B2  00FF               	movwf	btemp+1
  3108  07B3  3080               	movlw	128
  3109  07B4  027F               	subwf	btemp+1,w
  3110  07B5  1D03               	skipz
  3111  07B6  2FB9               	goto	u2445
  3112  07B7  3001               	movlw	1
  3113  07B8  0238               	subwf	___fldiv@new_exp,w
  3114  07B9                     u2445:
  3115  07B9  1803               	skipnc
  3116  07BA  2FBC               	goto	u2441
  3117  07BB  2FBD               	goto	u2440
  3118  07BC                     u2441:
  3119  07BC  2FCA               	goto	l524
  3120  07BD                     u2440:
  3121  07BD                     l1677:
  3122  07BD  1283               	bcf	3,5	;RP0=0, select bank0
  3123  07BE  1303               	bcf	3,6	;RP1=0, select bank0
  3124  07BF  01B8               	clrf	___fldiv@new_exp
  3125  07C0  01B9               	clrf	___fldiv@new_exp+1
  3126  07C1                     l1679:
  3127  07C1  3000               	movlw	0
  3128  07C2  00AD               	movwf	___fldiv@b+3
  3129  07C3  3000               	movlw	0
  3130  07C4  00AC               	movwf	___fldiv@b+2
  3131  07C5  3000               	movlw	0
  3132  07C6  00AB               	movwf	___fldiv@b+1
  3133  07C7  3000               	movlw	0
  3134  07C8  00AA               	movwf	___fldiv@b
  3135  07C9                     l1681:
  3136  07C9  01B7               	clrf	___fldiv@sign
  3137  07CA                     l524:
  3138  07CA  1283               	bcf	3,5	;RP0=0, select bank0
  3139  07CB  1303               	bcf	3,6	;RP1=0, select bank0
  3140  07CC  0838               	movf	___fldiv@new_exp,w
  3141  07CD  00AE               	movwf	??___fldiv
  3142  07CE  082E               	movf	??___fldiv,w
  3143  07CF  00BE               	movwf	___fldiv@bexp
  3144  07D0                     l1683:
  3145  07D0  1C3E               	btfss	___fldiv@bexp,0
  3146  07D1  2FD3               	goto	u2451
  3147  07D2  2FD4               	goto	u2450
  3148  07D3                     u2451:
  3149  07D3  2FD6               	goto	l1687
  3150  07D4                     u2450:
  3151  07D4                     l1685:
  3152  07D4  17AC               	bsf	___fldiv@b+2,7
  3153  07D5  2FDA               	goto	l526
  3154  07D6                     l1687:
  3155  07D6  307F               	movlw	127
  3156  07D7  00AE               	movwf	??___fldiv
  3157  07D8  082E               	movf	??___fldiv,w
  3158  07D9  05AC               	andwf	___fldiv@b+2,f
  3159  07DA                     l526:
  3160  07DA  083E               	movf	___fldiv@bexp,w
  3161  07DB  00AE               	movwf	??___fldiv
  3162  07DC  1003               	clrc
  3163  07DD  0C2E               	rrf	??___fldiv,w
  3164  07DE  00AF               	movwf	??___fldiv+1
  3165  07DF  082F               	movf	??___fldiv+1,w
  3166  07E0  00AD               	movwf	___fldiv@b+3
  3167  07E1  0837               	movf	___fldiv@sign,w
  3168  07E2  00AE               	movwf	??___fldiv
  3169  07E3  082E               	movf	??___fldiv,w
  3170  07E4  04AD               	iorwf	___fldiv@b+3,f
  3171  07E5  2E7E               	goto	l1595
  3172  07E6                     l504:
  3173  07E6  0008               	return
  3174  07E7                     __end_of___fldiv:
  3175                           
  3176                           	psect	text8
  3177  0382                     __ptext8:	
  3178 ;; *************** function ___fladd *****************
  3179 ;; Defined at:
  3180 ;;		line 10 in file "D:\File Install MBLAB IDE\XC8\pic\sources\c90\common\sprcadd.c"
  3181 ;; Parameters:    Size  Location     Type
  3182 ;;  b               4   58[BANK0 ] unsigned char 
  3183 ;;  a               4   62[BANK0 ] unsigned char 
  3184 ;; Auto vars:     Size  Location     Type
  3185 ;;  grs             1   77[BANK0 ] unsigned char 
  3186 ;;  bexp            1   76[BANK0 ] unsigned char 
  3187 ;;  aexp            1   75[BANK0 ] unsigned char 
  3188 ;;  signs           1   74[BANK0 ] unsigned char 
  3189 ;; Return value:  Size  Location     Type
  3190 ;;                  4   58[BANK0 ] unsigned char 
  3191 ;; Registers used:
  3192 ;;		wreg, status,2, status,0, btemp+1
  3193 ;; Tracked objects:
  3194 ;;		On entry : 0/0
  3195 ;;		On exit  : 0/0
  3196 ;;		Unchanged: 0/0
  3197 ;; Data sizes:     COMMON   BANK0   BANK1   BANK3   BANK2
  3198 ;;      Params:         0       8       0       0       0
  3199 ;;      Locals:         0       4       0       0       0
  3200 ;;      Temps:          0       8       0       0       0
  3201 ;;      Totals:         0      20       0       0       0
  3202 ;;Total ram usage:       20 bytes
  3203 ;; Hardware stack levels used: 1
  3204 ;; Hardware stack levels required when called: 1
  3205 ;; This function calls:
  3206 ;;		Nothing
  3207 ;; This function is called by:
  3208 ;;		_PWM_Servo
  3209 ;; This function uses a non-reentrant model
  3210 ;;
  3211                           
  3212                           
  3213                           ;psect for function ___fladd
  3214  0382                     ___fladd:
  3215  0382                     l1357:	
  3216                           ;incstack = 0
  3217                           ; Regs used in ___fladd: [wreg+status,2+status,0+btemp+1]
  3218                           
  3219  0382  1283               	bcf	3,5	;RP0=0, select bank0
  3220  0383  1303               	bcf	3,6	;RP1=0, select bank0
  3221  0384  085D               	movf	___fladd@b+3,w
  3222  0385  3980               	andlw	128
  3223  0386  00E2               	movwf	??___fladd
  3224  0387  0862               	movf	??___fladd,w
  3225  0388  00EA               	movwf	___fladd@signs
  3226  0389                     l1359:
  3227  0389  085D               	movf	___fladd@b+3,w
  3228  038A  00E2               	movwf	??___fladd
  3229  038B  0762               	addwf	??___fladd,w
  3230  038C  00E3               	movwf	??___fladd+1
  3231  038D  0863               	movf	??___fladd+1,w
  3232  038E  00EC               	movwf	___fladd@bexp
  3233  038F                     l1361:
  3234  038F  1FDC               	btfss	___fladd@b+2,7
  3235  0390  2B92               	goto	u1711
  3236  0391  2B93               	goto	u1710
  3237  0392                     u1711:
  3238  0392  2B94               	goto	l1365
  3239  0393                     u1710:
  3240  0393                     l1363:
  3241  0393  146C               	bsf	___fladd@bexp,0
  3242  0394                     l1365:
  3243  0394  086C               	movf	___fladd@bexp,w
  3244  0395  1903               	btfsc	3,2
  3245  0396  2B98               	goto	u1721
  3246  0397  2B99               	goto	u1720
  3247  0398                     u1721:
  3248  0398  2BA9               	goto	l1375
  3249  0399                     u1720:
  3250  0399                     l1367:
  3251  0399  0A6C               	incf	___fladd@bexp,w
  3252  039A  1D03               	btfss	3,2
  3253  039B  2B9D               	goto	u1731
  3254  039C  2B9E               	goto	u1730
  3255  039D                     u1731:
  3256  039D  2BA6               	goto	l1371
  3257  039E                     u1730:
  3258  039E                     l1369:
  3259  039E  3000               	movlw	0
  3260  039F  00DD               	movwf	___fladd@b+3
  3261  03A0  3000               	movlw	0
  3262  03A1  00DC               	movwf	___fladd@b+2
  3263  03A2  3000               	movlw	0
  3264  03A3  00DB               	movwf	___fladd@b+1
  3265  03A4  3000               	movlw	0
  3266  03A5  00DA               	movwf	___fladd@b
  3267  03A6                     l1371:
  3268  03A6  17DC               	bsf	___fladd@b+2,7
  3269  03A7                     l1373:
  3270  03A7  01DD               	clrf	___fladd@b+3
  3271  03A8  2BB1               	goto	l1377
  3272  03A9                     l1375:
  3273  03A9  3000               	movlw	0
  3274  03AA  00DD               	movwf	___fladd@b+3
  3275  03AB  3000               	movlw	0
  3276  03AC  00DC               	movwf	___fladd@b+2
  3277  03AD  3000               	movlw	0
  3278  03AE  00DB               	movwf	___fladd@b+1
  3279  03AF  3000               	movlw	0
  3280  03B0  00DA               	movwf	___fladd@b
  3281  03B1                     l1377:
  3282  03B1  0861               	movf	___fladd@a+3,w
  3283  03B2  3980               	andlw	128
  3284  03B3  00E2               	movwf	??___fladd
  3285  03B4  0862               	movf	??___fladd,w
  3286  03B5  00EB               	movwf	___fladd@aexp
  3287  03B6                     l1379:
  3288  03B6  086B               	movf	___fladd@aexp,w
  3289  03B7  066A               	xorwf	___fladd@signs,w
  3290  03B8  1903               	skipnz
  3291  03B9  2BBB               	goto	u1741
  3292  03BA  2BBC               	goto	u1740
  3293  03BB                     u1741:
  3294  03BB  2BBD               	goto	l1383
  3295  03BC                     u1740:
  3296  03BC                     l1381:
  3297  03BC  176A               	bsf	___fladd@signs,6
  3298  03BD                     l1383:
  3299  03BD  0861               	movf	___fladd@a+3,w
  3300  03BE  00E2               	movwf	??___fladd
  3301  03BF  0762               	addwf	??___fladd,w
  3302  03C0  00E3               	movwf	??___fladd+1
  3303  03C1  0863               	movf	??___fladd+1,w
  3304  03C2  00EB               	movwf	___fladd@aexp
  3305  03C3                     l1385:
  3306  03C3  1FE0               	btfss	___fladd@a+2,7
  3307  03C4  2BC6               	goto	u1751
  3308  03C5  2BC7               	goto	u1750
  3309  03C6                     u1751:
  3310  03C6  2BC8               	goto	l1389
  3311  03C7                     u1750:
  3312  03C7                     l1387:
  3313  03C7  146B               	bsf	___fladd@aexp,0
  3314  03C8                     l1389:
  3315  03C8  086B               	movf	___fladd@aexp,w
  3316  03C9  1903               	btfsc	3,2
  3317  03CA  2BCC               	goto	u1761
  3318  03CB  2BCD               	goto	u1760
  3319  03CC                     u1761:
  3320  03CC  2BDD               	goto	l1399
  3321  03CD                     u1760:
  3322  03CD                     l1391:
  3323  03CD  0A6B               	incf	___fladd@aexp,w
  3324  03CE  1D03               	btfss	3,2
  3325  03CF  2BD1               	goto	u1771
  3326  03D0  2BD2               	goto	u1770
  3327  03D1                     u1771:
  3328  03D1  2BDA               	goto	l1395
  3329  03D2                     u1770:
  3330  03D2                     l1393:
  3331  03D2  3000               	movlw	0
  3332  03D3  00E1               	movwf	___fladd@a+3
  3333  03D4  3000               	movlw	0
  3334  03D5  00E0               	movwf	___fladd@a+2
  3335  03D6  3000               	movlw	0
  3336  03D7  00DF               	movwf	___fladd@a+1
  3337  03D8  3000               	movlw	0
  3338  03D9  00DE               	movwf	___fladd@a
  3339  03DA                     l1395:
  3340  03DA  17E0               	bsf	___fladd@a+2,7
  3341  03DB                     l1397:
  3342  03DB  01E1               	clrf	___fladd@a+3
  3343  03DC  2BE5               	goto	l446
  3344  03DD                     l1399:
  3345  03DD  3000               	movlw	0
  3346  03DE  00E1               	movwf	___fladd@a+3
  3347  03DF  3000               	movlw	0
  3348  03E0  00E0               	movwf	___fladd@a+2
  3349  03E1  3000               	movlw	0
  3350  03E2  00DF               	movwf	___fladd@a+1
  3351  03E3  3000               	movlw	0
  3352  03E4  00DE               	movwf	___fladd@a
  3353  03E5                     l446:
  3354  03E5  086C               	movf	___fladd@bexp,w
  3355  03E6  026B               	subwf	___fladd@aexp,w
  3356  03E7  1803               	skipnc
  3357  03E8  2BEA               	goto	u1781
  3358  03E9  2BEB               	goto	u1780
  3359  03EA                     u1781:
  3360  03EA  2C2F               	goto	l1435
  3361  03EB                     u1780:
  3362  03EB                     l1401:
  3363  03EB  1F6A               	btfss	___fladd@signs,6
  3364  03EC  2BEE               	goto	u1791
  3365  03ED  2BEF               	goto	u1790
  3366  03EE                     u1791:
  3367  03EE  2BF3               	goto	l1405
  3368  03EF                     u1790:
  3369  03EF                     l1403:
  3370  03EF  3080               	movlw	128
  3371  03F0  00E2               	movwf	??___fladd
  3372  03F1  0862               	movf	??___fladd,w
  3373  03F2  06EA               	xorwf	___fladd@signs,f
  3374  03F3                     l1405:
  3375  03F3  086C               	movf	___fladd@bexp,w
  3376  03F4  00E2               	movwf	??___fladd
  3377  03F5  0862               	movf	??___fladd,w
  3378  03F6  00ED               	movwf	___fladd@grs
  3379  03F7                     l1407:
  3380  03F7  086B               	movf	___fladd@aexp,w
  3381  03F8  00E2               	movwf	??___fladd
  3382  03F9  0862               	movf	??___fladd,w
  3383  03FA  00EC               	movwf	___fladd@bexp
  3384  03FB                     l1409:
  3385  03FB  086D               	movf	___fladd@grs,w
  3386  03FC  00E2               	movwf	??___fladd
  3387  03FD  0862               	movf	??___fladd,w
  3388  03FE  00EB               	movwf	___fladd@aexp
  3389  03FF                     l1411:
  3390  03FF  085A               	movf	___fladd@b,w
  3391  0400  00E2               	movwf	??___fladd
  3392  0401  0862               	movf	??___fladd,w
  3393  0402  00ED               	movwf	___fladd@grs
  3394  0403                     l1413:
  3395  0403  085E               	movf	___fladd@a,w
  3396  0404  00E2               	movwf	??___fladd
  3397  0405  0862               	movf	??___fladd,w
  3398  0406  00DA               	movwf	___fladd@b
  3399  0407                     l1415:
  3400  0407  086D               	movf	___fladd@grs,w
  3401  0408  00E2               	movwf	??___fladd
  3402  0409  0862               	movf	??___fladd,w
  3403  040A  00DE               	movwf	___fladd@a
  3404  040B                     l1417:
  3405  040B  085B               	movf	___fladd@b+1,w
  3406  040C  00E2               	movwf	??___fladd
  3407  040D  0862               	movf	??___fladd,w
  3408  040E  00ED               	movwf	___fladd@grs
  3409  040F                     l1419:
  3410  040F  085F               	movf	___fladd@a+1,w
  3411  0410  00E2               	movwf	??___fladd
  3412  0411  0862               	movf	??___fladd,w
  3413  0412  00DB               	movwf	___fladd@b+1
  3414  0413                     l1421:
  3415  0413  086D               	movf	___fladd@grs,w
  3416  0414  00E2               	movwf	??___fladd
  3417  0415  0862               	movf	??___fladd,w
  3418  0416  00DF               	movwf	___fladd@a+1
  3419  0417                     l1423:
  3420  0417  085C               	movf	___fladd@b+2,w
  3421  0418  00E2               	movwf	??___fladd
  3422  0419  0862               	movf	??___fladd,w
  3423  041A  00ED               	movwf	___fladd@grs
  3424  041B                     l1425:
  3425  041B  0860               	movf	___fladd@a+2,w
  3426  041C  00E2               	movwf	??___fladd
  3427  041D  0862               	movf	??___fladd,w
  3428  041E  00DC               	movwf	___fladd@b+2
  3429  041F                     l1427:
  3430  041F  086D               	movf	___fladd@grs,w
  3431  0420  00E2               	movwf	??___fladd
  3432  0421  0862               	movf	??___fladd,w
  3433  0422  00E0               	movwf	___fladd@a+2
  3434  0423                     l1429:
  3435  0423  085D               	movf	___fladd@b+3,w
  3436  0424  00E2               	movwf	??___fladd
  3437  0425  0862               	movf	??___fladd,w
  3438  0426  00ED               	movwf	___fladd@grs
  3439  0427                     l1431:
  3440  0427  0861               	movf	___fladd@a+3,w
  3441  0428  00E2               	movwf	??___fladd
  3442  0429  0862               	movf	??___fladd,w
  3443  042A  00DD               	movwf	___fladd@b+3
  3444  042B                     l1433:
  3445  042B  086D               	movf	___fladd@grs,w
  3446  042C  00E2               	movwf	??___fladd
  3447  042D  0862               	movf	??___fladd,w
  3448  042E  00E1               	movwf	___fladd@a+3
  3449  042F                     l1435:
  3450  042F  01ED               	clrf	___fladd@grs
  3451  0430                     l1437:
  3452  0430  086B               	movf	___fladd@aexp,w
  3453  0431  00E2               	movwf	??___fladd
  3454  0432  01E3               	clrf	??___fladd+1
  3455  0433  0863               	movf	??___fladd+1,w
  3456  0434  00E5               	movwf	??___fladd+3
  3457  0435  086C               	movf	___fladd@bexp,w
  3458  0436  0262               	subwf	??___fladd,w
  3459  0437  00E4               	movwf	??___fladd+2
  3460  0438  1C03               	skipc
  3461  0439  03E5               	decf	??___fladd+3,f
  3462  043A  0865               	movf	??___fladd+3,w
  3463  043B  3A80               	xorlw	128
  3464  043C  00FF               	movwf	btemp+1
  3465  043D  3080               	movlw	128
  3466  043E  027F               	subwf	btemp+1,w
  3467  043F  1D03               	skipz
  3468  0440  2C43               	goto	u1805
  3469  0441  301A               	movlw	26
  3470  0442  0264               	subwf	??___fladd+2,w
  3471  0443                     u1805:
  3472  0443  1C03               	skipc
  3473  0444  2C46               	goto	u1801
  3474  0445  2C47               	goto	u1800
  3475  0446                     u1801:
  3476  0446  2C84               	goto	l1453
  3477  0447                     u1800:
  3478  0447                     l1439:
  3479  0447  1283               	bcf	3,5	;RP0=0, select bank0
  3480  0448  1303               	bcf	3,6	;RP1=0, select bank0
  3481  0449  085D               	movf	___fladd@b+3,w
  3482  044A  045C               	iorwf	___fladd@b+2,w
  3483  044B  045B               	iorwf	___fladd@b+1,w
  3484  044C  045A               	iorwf	___fladd@b,w
  3485  044D  1D03               	skipz
  3486  044E  2C50               	goto	u1811
  3487  044F  2C52               	goto	u1810
  3488  0450                     u1811:
  3489  0450  3001               	movlw	1
  3490  0451  2C53               	goto	u1820
  3491  0452                     u1810:
  3492  0452  3000               	movlw	0
  3493  0453                     u1820:
  3494  0453  00E2               	movwf	??___fladd
  3495  0454  0862               	movf	??___fladd,w
  3496  0455  00ED               	movwf	___fladd@grs
  3497  0456  3000               	movlw	0
  3498  0457  00DD               	movwf	___fladd@b+3
  3499  0458  3000               	movlw	0
  3500  0459  00DC               	movwf	___fladd@b+2
  3501  045A  3000               	movlw	0
  3502  045B  00DB               	movwf	___fladd@b+1
  3503  045C  3000               	movlw	0
  3504  045D  00DA               	movwf	___fladd@b
  3505  045E  086B               	movf	___fladd@aexp,w
  3506  045F  00E2               	movwf	??___fladd
  3507  0460  0862               	movf	??___fladd,w
  3508  0461  00EC               	movwf	___fladd@bexp
  3509  0462  2C8C               	goto	l450
  3510  0463                     l452:
  3511  0463  1C6D               	btfss	___fladd@grs,0
  3512  0464  2C66               	goto	u1831
  3513  0465  2C67               	goto	u1830
  3514  0466                     u1831:
  3515  0466  2C70               	goto	l1443
  3516  0467                     u1830:
  3517  0467                     l1441:
  3518  0467  086D               	movf	___fladd@grs,w
  3519  0468  00E2               	movwf	??___fladd
  3520  0469  1003               	clrc
  3521  046A  0C62               	rrf	??___fladd,w
  3522  046B  3801               	iorlw	1
  3523  046C  00E3               	movwf	??___fladd+1
  3524  046D  0863               	movf	??___fladd+1,w
  3525  046E  00ED               	movwf	___fladd@grs
  3526  046F  2C72               	goto	l1445
  3527  0470                     l1443:
  3528  0470  1003               	clrc
  3529  0471  0CED               	rrf	___fladd@grs,f
  3530  0472                     l1445:
  3531  0472  1C5A               	btfss	___fladd@b,0
  3532  0473  2C75               	goto	u1841
  3533  0474  2C76               	goto	u1840
  3534  0475                     u1841:
  3535  0475  2C77               	goto	l1449
  3536  0476                     u1840:
  3537  0476                     l1447:
  3538  0476  17ED               	bsf	___fladd@grs,7
  3539  0477                     l1449:
  3540  0477  3001               	movlw	1
  3541  0478  00E2               	movwf	??___fladd
  3542  0479                     u1855:
  3543  0479  0D5D               	rlf	___fladd@b+3,w
  3544  047A  0CDD               	rrf	___fladd@b+3,f
  3545  047B  0CDC               	rrf	___fladd@b+2,f
  3546  047C  0CDB               	rrf	___fladd@b+1,f
  3547  047D  0CDA               	rrf	___fladd@b,f
  3548  047E  0BE2               	decfsz	??___fladd& (0+127),f
  3549  047F  2C79               	goto	u1855
  3550  0480                     l1451:
  3551  0480  3001               	movlw	1
  3552  0481  00E2               	movwf	??___fladd
  3553  0482  0862               	movf	??___fladd,w
  3554  0483  07EC               	addwf	___fladd@bexp,f
  3555  0484                     l1453:
  3556  0484  1283               	bcf	3,5	;RP0=0, select bank0
  3557  0485  1303               	bcf	3,6	;RP1=0, select bank0
  3558  0486  086B               	movf	___fladd@aexp,w
  3559  0487  026C               	subwf	___fladd@bexp,w
  3560  0488  1C03               	skipc
  3561  0489  2C8B               	goto	u1861
  3562  048A  2C8C               	goto	u1860
  3563  048B                     u1861:
  3564  048B  2C63               	goto	l452
  3565  048C                     u1860:
  3566  048C                     l450:
  3567  048C  1B6A               	btfsc	___fladd@signs,6
  3568  048D  2C8F               	goto	u1871
  3569  048E  2C90               	goto	u1870
  3570  048F                     u1871:
  3571  048F  2CDB               	goto	l1479
  3572  0490                     u1870:
  3573  0490                     l1455:
  3574  0490  086C               	movf	___fladd@bexp,w
  3575  0491  1D03               	btfss	3,2
  3576  0492  2C94               	goto	u1881
  3577  0493  2C95               	goto	u1880
  3578  0494                     u1881:
  3579  0494  2C9E               	goto	l1461
  3580  0495                     u1880:
  3581  0495                     l1457:
  3582  0495  3000               	movlw	0
  3583  0496  00DD               	movwf	?___fladd+3
  3584  0497  3000               	movlw	0
  3585  0498  00DC               	movwf	?___fladd+2
  3586  0499  3000               	movlw	0
  3587  049A  00DB               	movwf	?___fladd+1
  3588  049B  3000               	movlw	0
  3589  049C  00DA               	movwf	?___fladd
  3590  049D  2E09               	goto	l459
  3591  049E                     l1461:
  3592  049E  085E               	movf	___fladd@a,w
  3593  049F  07DA               	addwf	___fladd@b,f
  3594  04A0  085F               	movf	___fladd@a+1,w
  3595  04A1  1103               	clrz
  3596  04A2  1803               	skipnc
  3597  04A3  3E01               	addlw	1
  3598  04A4  1903               	skipnz
  3599  04A5  2CA7               	goto	u1891
  3600  04A6  07DB               	addwf	___fladd@b+1,f
  3601  04A7                     u1891:
  3602  04A7  0860               	movf	___fladd@a+2,w
  3603  04A8  1103               	clrz
  3604  04A9  1803               	skipnc
  3605  04AA  3E01               	addlw	1
  3606  04AB  1903               	skipnz
  3607  04AC  2CAE               	goto	u1892
  3608  04AD  07DC               	addwf	___fladd@b+2,f
  3609  04AE                     u1892:
  3610  04AE  0861               	movf	___fladd@a+3,w
  3611  04AF  1103               	clrz
  3612  04B0  1803               	skipnc
  3613  04B1  3E01               	addlw	1
  3614  04B2  1903               	skipnz
  3615  04B3  2CB5               	goto	u1893
  3616  04B4  07DD               	addwf	___fladd@b+3,f
  3617  04B5                     u1893:
  3618  04B5                     l1463:
  3619  04B5  1C5D               	btfss	___fladd@b+3,0
  3620  04B6  2CB8               	goto	u1901
  3621  04B7  2CB9               	goto	u1900
  3622  04B8                     u1901:
  3623  04B8  2D8F               	goto	l1513
  3624  04B9                     u1900:
  3625  04B9                     l1465:
  3626  04B9  1C6D               	btfss	___fladd@grs,0
  3627  04BA  2CBC               	goto	u1911
  3628  04BB  2CBD               	goto	u1910
  3629  04BC                     u1911:
  3630  04BC  2CC6               	goto	l1469
  3631  04BD                     u1910:
  3632  04BD                     l1467:
  3633  04BD  086D               	movf	___fladd@grs,w
  3634  04BE  00E2               	movwf	??___fladd
  3635  04BF  1003               	clrc
  3636  04C0  0C62               	rrf	??___fladd,w
  3637  04C1  3801               	iorlw	1
  3638  04C2  00E3               	movwf	??___fladd+1
  3639  04C3  0863               	movf	??___fladd+1,w
  3640  04C4  00ED               	movwf	___fladd@grs
  3641  04C5  2CC8               	goto	l1471
  3642  04C6                     l1469:
  3643  04C6  1003               	clrc
  3644  04C7  0CED               	rrf	___fladd@grs,f
  3645  04C8                     l1471:
  3646  04C8  1C5A               	btfss	___fladd@b,0
  3647  04C9  2CCB               	goto	u1921
  3648  04CA  2CCC               	goto	u1920
  3649  04CB                     u1921:
  3650  04CB  2CCD               	goto	l1475
  3651  04CC                     u1920:
  3652  04CC                     l1473:
  3653  04CC  17ED               	bsf	___fladd@grs,7
  3654  04CD                     l1475:
  3655  04CD  3001               	movlw	1
  3656  04CE  00E2               	movwf	??___fladd
  3657  04CF                     u1935:
  3658  04CF  0D5D               	rlf	___fladd@b+3,w
  3659  04D0  0CDD               	rrf	___fladd@b+3,f
  3660  04D1  0CDC               	rrf	___fladd@b+2,f
  3661  04D2  0CDB               	rrf	___fladd@b+1,f
  3662  04D3  0CDA               	rrf	___fladd@b,f
  3663  04D4  0BE2               	decfsz	??___fladd& (0+127),f
  3664  04D5  2CCF               	goto	u1935
  3665  04D6                     l1477:
  3666  04D6  3001               	movlw	1
  3667  04D7  00E2               	movwf	??___fladd
  3668  04D8  0862               	movf	??___fladd,w
  3669  04D9  07EC               	addwf	___fladd@bexp,f
  3670  04DA  2D8F               	goto	l1513
  3671  04DB                     l1479:
  3672  04DB  085D               	movf	___fladd@b+3,w
  3673  04DC  3A80               	xorlw	128
  3674  04DD  00FF               	movwf	btemp+1
  3675  04DE  0861               	movf	___fladd@a+3,w
  3676  04DF  3A80               	xorlw	128
  3677  04E0  027F               	subwf	btemp+1,w
  3678  04E1  1D03               	skipz
  3679  04E2  2CED               	goto	u1943
  3680  04E3  0860               	movf	___fladd@a+2,w
  3681  04E4  025C               	subwf	___fladd@b+2,w
  3682  04E5  1D03               	skipz
  3683  04E6  2CED               	goto	u1943
  3684  04E7  085F               	movf	___fladd@a+1,w
  3685  04E8  025B               	subwf	___fladd@b+1,w
  3686  04E9  1D03               	skipz
  3687  04EA  2CED               	goto	u1943
  3688  04EB  085E               	movf	___fladd@a,w
  3689  04EC  025A               	subwf	___fladd@b,w
  3690  04ED                     u1943:
  3691  04ED  1803               	skipnc
  3692  04EE  2CF0               	goto	u1941
  3693  04EF  2CF1               	goto	u1940
  3694  04F0                     u1941:
  3695  04F0  2D49               	goto	l1489
  3696  04F1                     u1940:
  3697  04F1                     l1481:
  3698  04F1  30FF               	movlw	255
  3699  04F2  00E2               	movwf	??___fladd
  3700  04F3  30FF               	movlw	255
  3701  04F4  00E3               	movwf	??___fladd+1
  3702  04F5  30FF               	movlw	255
  3703  04F6  00E4               	movwf	??___fladd+2
  3704  04F7  30FF               	movlw	255
  3705  04F8  00E5               	movwf	??___fladd+3
  3706  04F9  085E               	movf	___fladd@a,w
  3707  04FA  00E6               	movwf	??___fladd+4
  3708  04FB  085F               	movf	___fladd@a+1,w
  3709  04FC  00E7               	movwf	??___fladd+5
  3710  04FD  0860               	movf	___fladd@a+2,w
  3711  04FE  00E8               	movwf	??___fladd+6
  3712  04FF  0861               	movf	___fladd@a+3,w
  3713  0500  00E9               	movwf	??___fladd+7
  3714  0501  085A               	movf	___fladd@b,w
  3715  0502  02E6               	subwf	??___fladd+4,f
  3716  0503  085B               	movf	___fladd@b+1,w
  3717  0504  1C03               	skipc
  3718  0505  0F5B               	incfsz	___fladd@b+1,w
  3719  0506  2D08               	goto	u1951
  3720  0507  2D09               	goto	u1952
  3721  0508                     u1951:
  3722  0508  02E7               	subwf	??___fladd+5,f
  3723  0509                     u1952:
  3724  0509  085C               	movf	___fladd@b+2,w
  3725  050A  1C03               	skipc
  3726  050B  0F5C               	incfsz	___fladd@b+2,w
  3727  050C  2D0E               	goto	u1953
  3728  050D  2D0F               	goto	u1954
  3729  050E                     u1953:
  3730  050E  02E8               	subwf	??___fladd+6,f
  3731  050F                     u1954:
  3732  050F  085D               	movf	___fladd@b+3,w
  3733  0510  1C03               	skipc
  3734  0511  0F5D               	incfsz	___fladd@b+3,w
  3735  0512  2D14               	goto	u1955
  3736  0513  2D15               	goto	u1956
  3737  0514                     u1955:
  3738  0514  02E9               	subwf	??___fladd+7,f
  3739  0515                     u1956:
  3740  0515  0866               	movf	??___fladd+4,w
  3741  0516  07E2               	addwf	??___fladd,f
  3742  0517  0867               	movf	??___fladd+5,w
  3743  0518  1803               	skipnc
  3744  0519  0F67               	incfsz	??___fladd+5,w
  3745  051A  2D1C               	goto	u1960
  3746  051B  2D1D               	goto	u1961
  3747  051C                     u1960:
  3748  051C  07E3               	addwf	??___fladd+1,f
  3749  051D                     u1961:
  3750  051D  0868               	movf	??___fladd+6,w
  3751  051E  1803               	skipnc
  3752  051F  0F68               	incfsz	??___fladd+6,w
  3753  0520  2D22               	goto	u1962
  3754  0521  2D23               	goto	u1963
  3755  0522                     u1962:
  3756  0522  07E4               	addwf	??___fladd+2,f
  3757  0523                     u1963:
  3758  0523  0869               	movf	??___fladd+7,w
  3759  0524  1803               	skipnc
  3760  0525  0A69               	incf	??___fladd+7,w
  3761  0526  07E5               	addwf	??___fladd+3,f
  3762  0527  0865               	movf	??___fladd+3,w
  3763  0528  00DD               	movwf	___fladd@b+3
  3764  0529  0864               	movf	??___fladd+2,w
  3765  052A  00DC               	movwf	___fladd@b+2
  3766  052B  0863               	movf	??___fladd+1,w
  3767  052C  00DB               	movwf	___fladd@b+1
  3768  052D  0862               	movf	??___fladd,w
  3769  052E  00DA               	movwf	___fladd@b
  3770  052F                     l1483:
  3771  052F  3080               	movlw	128
  3772  0530  00E2               	movwf	??___fladd
  3773  0531  0862               	movf	??___fladd,w
  3774  0532  06EA               	xorwf	___fladd@signs,f
  3775  0533  09ED               	comf	___fladd@grs,f
  3776  0534  0AED               	incf	___fladd@grs,f
  3777  0535                     l1485:
  3778  0535  086D               	movf	___fladd@grs,w
  3779  0536  1D03               	btfss	3,2
  3780  0537  2D39               	goto	u1971
  3781  0538  2D3A               	goto	u1970
  3782  0539                     u1971:
  3783  0539  2D57               	goto	l467
  3784  053A                     u1970:
  3785  053A                     l1487:
  3786  053A  3001               	movlw	1
  3787  053B  07DA               	addwf	___fladd@b,f
  3788  053C  3000               	movlw	0
  3789  053D  1803               	skipnc
  3790  053E  3001               	movlw	1
  3791  053F  07DB               	addwf	___fladd@b+1,f
  3792  0540  3000               	movlw	0
  3793  0541  1803               	skipnc
  3794  0542  3001               	movlw	1
  3795  0543  07DC               	addwf	___fladd@b+2,f
  3796  0544  3000               	movlw	0
  3797  0545  1803               	skipnc
  3798  0546  3001               	movlw	1
  3799  0547  07DD               	addwf	___fladd@b+3,f
  3800  0548  2D57               	goto	l467
  3801  0549                     l1489:
  3802  0549  085E               	movf	___fladd@a,w
  3803  054A  02DA               	subwf	___fladd@b,f
  3804  054B  085F               	movf	___fladd@a+1,w
  3805  054C  1C03               	skipc
  3806  054D  0F5F               	incfsz	___fladd@a+1,w
  3807  054E  02DB               	subwf	___fladd@b+1,f
  3808  054F  0860               	movf	___fladd@a+2,w
  3809  0550  1C03               	skipc
  3810  0551  0F60               	incfsz	___fladd@a+2,w
  3811  0552  02DC               	subwf	___fladd@b+2,f
  3812  0553  0861               	movf	___fladd@a+3,w
  3813  0554  1C03               	skipc
  3814  0555  0F61               	incfsz	___fladd@a+3,w
  3815  0556  02DD               	subwf	___fladd@b+3,f
  3816  0557                     l467:
  3817  0557  085D               	movf	___fladd@b+3,w
  3818  0558  045C               	iorwf	___fladd@b+2,w
  3819  0559  045B               	iorwf	___fladd@b+1,w
  3820  055A  045A               	iorwf	___fladd@b,w
  3821  055B  1D03               	skipz
  3822  055C  2D5E               	goto	u1981
  3823  055D  2D5F               	goto	u1980
  3824  055E                     u1981:
  3825  055E  2D8B               	goto	l1511
  3826  055F                     u1980:
  3827  055F                     l1491:
  3828  055F  086D               	movf	___fladd@grs,w
  3829  0560  1D03               	btfss	3,2
  3830  0561  2D63               	goto	u1991
  3831  0562  2D64               	goto	u1990
  3832  0563                     u1991:
  3833  0563  2D8B               	goto	l1511
  3834  0564                     u1990:
  3835  0564                     l1493:
  3836  0564  3000               	movlw	0
  3837  0565  00DD               	movwf	?___fladd+3
  3838  0566  3000               	movlw	0
  3839  0567  00DC               	movwf	?___fladd+2
  3840  0568  3000               	movlw	0
  3841  0569  00DB               	movwf	?___fladd+1
  3842  056A  3000               	movlw	0
  3843  056B  00DA               	movwf	?___fladd
  3844  056C  2E09               	goto	l459
  3845  056D                     l1497:
  3846  056D  3001               	movlw	1
  3847  056E  00E2               	movwf	??___fladd
  3848  056F                     u2005:
  3849  056F  1003               	clrc
  3850  0570  0DDA               	rlf	___fladd@b,f
  3851  0571  0DDB               	rlf	___fladd@b+1,f
  3852  0572  0DDC               	rlf	___fladd@b+2,f
  3853  0573  0DDD               	rlf	___fladd@b+3,f
  3854  0574  0BE2               	decfsz	??___fladd,f
  3855  0575  2D6F               	goto	u2005
  3856  0576                     l1499:
  3857  0576  1FED               	btfss	___fladd@grs,7
  3858  0577  2D79               	goto	u2011
  3859  0578  2D7A               	goto	u2010
  3860  0579                     u2011:
  3861  0579  2D7B               	goto	l471
  3862  057A                     u2010:
  3863  057A                     l1501:
  3864  057A  145A               	bsf	___fladd@b,0
  3865  057B                     l471:
  3866  057B  1C6D               	btfss	___fladd@grs,0
  3867  057C  2D7E               	goto	u2021
  3868  057D  2D7F               	goto	u2020
  3869  057E                     u2021:
  3870  057E  2D82               	goto	l1505
  3871  057F                     u2020:
  3872  057F                     l1503:
  3873  057F  1403               	setc
  3874  0580  0DED               	rlf	___fladd@grs,f
  3875  0581  2D84               	goto	l1507
  3876  0582                     l1505:
  3877  0582  1003               	clrc
  3878  0583  0DED               	rlf	___fladd@grs,f
  3879  0584                     l1507:
  3880  0584  086C               	movf	___fladd@bexp,w
  3881  0585  1903               	btfsc	3,2
  3882  0586  2D88               	goto	u2031
  3883  0587  2D89               	goto	u2030
  3884  0588                     u2031:
  3885  0588  2D8B               	goto	l1511
  3886  0589                     u2030:
  3887  0589                     l1509:
  3888  0589  3001               	movlw	1
  3889  058A  02EC               	subwf	___fladd@bexp,f
  3890  058B                     l1511:
  3891  058B  1FDC               	btfss	___fladd@b+2,7
  3892  058C  2D8E               	goto	u2041
  3893  058D  2D8F               	goto	u2040
  3894  058E                     u2041:
  3895  058E  2D6D               	goto	l1497
  3896  058F                     u2040:
  3897  058F                     l1513:
  3898  058F  01EB               	clrf	___fladd@aexp
  3899  0590                     l1515:
  3900  0590  1FED               	btfss	___fladd@grs,7
  3901  0591  2D93               	goto	u2051
  3902  0592  2D94               	goto	u2050
  3903  0593                     u2051:
  3904  0593  2DA2               	goto	l1523
  3905  0594                     u2050:
  3906  0594                     l1517:
  3907  0594  086D               	movf	___fladd@grs,w
  3908  0595  397F               	andlw	127
  3909  0596  1903               	btfsc	3,2
  3910  0597  2D99               	goto	u2061
  3911  0598  2D9A               	goto	u2060
  3912  0599                     u2061:
  3913  0599  2D9D               	goto	l477
  3914  059A                     u2060:
  3915  059A                     l1519:
  3916  059A  01EB               	clrf	___fladd@aexp
  3917  059B  0AEB               	incf	___fladd@aexp,f
  3918  059C  2DA2               	goto	l1523
  3919  059D                     l477:
  3920  059D  1C5A               	btfss	___fladd@b,0
  3921  059E  2DA0               	goto	u2071
  3922  059F  2DA1               	goto	u2070
  3923  05A0                     u2071:
  3924  05A0  2DA2               	goto	l1523
  3925  05A1                     u2070:
  3926  05A1  2D9A               	goto	l1519
  3927  05A2                     l1523:
  3928  05A2  086B               	movf	___fladd@aexp,w
  3929  05A3  1903               	btfsc	3,2
  3930  05A4  2DA6               	goto	u2081
  3931  05A5  2DA7               	goto	u2080
  3932  05A6                     u2081:
  3933  05A6  2DDB               	goto	l480
  3934  05A7                     u2080:
  3935  05A7                     l1525:
  3936  05A7  3001               	movlw	1
  3937  05A8  07DA               	addwf	___fladd@b,f
  3938  05A9  3000               	movlw	0
  3939  05AA  1803               	skipnc
  3940  05AB  3001               	movlw	1
  3941  05AC  07DB               	addwf	___fladd@b+1,f
  3942  05AD  3000               	movlw	0
  3943  05AE  1803               	skipnc
  3944  05AF  3001               	movlw	1
  3945  05B0  07DC               	addwf	___fladd@b+2,f
  3946  05B1  3000               	movlw	0
  3947  05B2  1803               	skipnc
  3948  05B3  3001               	movlw	1
  3949  05B4  07DD               	addwf	___fladd@b+3,f
  3950  05B5                     l1527:
  3951  05B5  1C5D               	btfss	___fladd@b+3,0
  3952  05B6  2DB8               	goto	u2091
  3953  05B7  2DB9               	goto	u2090
  3954  05B8                     u2091:
  3955  05B8  2DDB               	goto	l480
  3956  05B9                     u2090:
  3957  05B9                     l1529:
  3958  05B9  085A               	movf	___fladd@b,w
  3959  05BA  00E2               	movwf	??___fladd
  3960  05BB  085B               	movf	___fladd@b+1,w
  3961  05BC  00E3               	movwf	??___fladd+1
  3962  05BD  085C               	movf	___fladd@b+2,w
  3963  05BE  00E4               	movwf	??___fladd+2
  3964  05BF  085D               	movf	___fladd@b+3,w
  3965  05C0  00E5               	movwf	??___fladd+3
  3966  05C1  3001               	movlw	1
  3967  05C2  00E6               	movwf	??___fladd+4
  3968  05C3                     u2105:
  3969  05C3  0D65               	rlf	??___fladd+3,w
  3970  05C4  0CE5               	rrf	??___fladd+3,f
  3971  05C5  0CE4               	rrf	??___fladd+2,f
  3972  05C6  0CE3               	rrf	??___fladd+1,f
  3973  05C7  0CE2               	rrf	??___fladd,f
  3974  05C8                     u2100:
  3975  05C8  0BE6               	decfsz	??___fladd+4,f
  3976  05C9  2DC3               	goto	u2105
  3977  05CA  0865               	movf	??___fladd+3,w
  3978  05CB  00DD               	movwf	___fladd@b+3
  3979  05CC  0864               	movf	??___fladd+2,w
  3980  05CD  00DC               	movwf	___fladd@b+2
  3981  05CE  0863               	movf	??___fladd+1,w
  3982  05CF  00DB               	movwf	___fladd@b+1
  3983  05D0  0862               	movf	??___fladd,w
  3984  05D1  00DA               	movwf	___fladd@b
  3985  05D2  0A6C               	incf	___fladd@bexp,w
  3986  05D3  1903               	btfsc	3,2
  3987  05D4  2DD6               	goto	u2111
  3988  05D5  2DD7               	goto	u2110
  3989  05D6                     u2111:
  3990  05D6  2DDB               	goto	l480
  3991  05D7                     u2110:
  3992  05D7                     l1531:
  3993  05D7  3001               	movlw	1
  3994  05D8  00E2               	movwf	??___fladd
  3995  05D9  0862               	movf	??___fladd,w
  3996  05DA  07EC               	addwf	___fladd@bexp,f
  3997  05DB                     l480:
  3998  05DB  0A6C               	incf	___fladd@bexp,w
  3999  05DC  1903               	btfsc	3,2
  4000  05DD  2DDF               	goto	u2121
  4001  05DE  2DE0               	goto	u2120
  4002  05DF                     u2121:
  4003  05DF  2DE5               	goto	l1535
  4004  05E0                     u2120:
  4005  05E0                     l1533:
  4006  05E0  086C               	movf	___fladd@bexp,w
  4007  05E1  1D03               	btfss	3,2
  4008  05E2  2DE4               	goto	u2131
  4009  05E3  2DE5               	goto	u2130
  4010  05E4                     u2131:
  4011  05E4  2DF3               	goto	l1541
  4012  05E5                     u2130:
  4013  05E5                     l1535:
  4014  05E5  3000               	movlw	0
  4015  05E6  00DD               	movwf	___fladd@b+3
  4016  05E7  3000               	movlw	0
  4017  05E8  00DC               	movwf	___fladd@b+2
  4018  05E9  3000               	movlw	0
  4019  05EA  00DB               	movwf	___fladd@b+1
  4020  05EB  3000               	movlw	0
  4021  05EC  00DA               	movwf	___fladd@b
  4022  05ED                     l1537:
  4023  05ED  086C               	movf	___fladd@bexp,w
  4024  05EE  1D03               	btfss	3,2
  4025  05EF  2DF1               	goto	u2141
  4026  05F0  2DF2               	goto	u2140
  4027  05F1                     u2141:
  4028  05F1  2DF3               	goto	l1541
  4029  05F2                     u2140:
  4030  05F2                     l1539:
  4031  05F2  01EA               	clrf	___fladd@signs
  4032  05F3                     l1541:
  4033  05F3  1C6C               	btfss	___fladd@bexp,0
  4034  05F4  2DF6               	goto	u2151
  4035  05F5  2DF7               	goto	u2150
  4036  05F6                     u2151:
  4037  05F6  2DF9               	goto	l1545
  4038  05F7                     u2150:
  4039  05F7                     l1543:
  4040  05F7  17DC               	bsf	___fladd@b+2,7
  4041  05F8  2DFD               	goto	l488
  4042  05F9                     l1545:
  4043  05F9  307F               	movlw	127
  4044  05FA  00E2               	movwf	??___fladd
  4045  05FB  0862               	movf	??___fladd,w
  4046  05FC  05DC               	andwf	___fladd@b+2,f
  4047  05FD                     l488:
  4048  05FD  086C               	movf	___fladd@bexp,w
  4049  05FE  00E2               	movwf	??___fladd
  4050  05FF  1003               	clrc
  4051  0600  0C62               	rrf	??___fladd,w
  4052  0601  00E3               	movwf	??___fladd+1
  4053  0602  0863               	movf	??___fladd+1,w
  4054  0603  00DD               	movwf	___fladd@b+3
  4055  0604                     l1547:
  4056  0604  1FEA               	btfss	___fladd@signs,7
  4057  0605  2E07               	goto	u2161
  4058  0606  2E08               	goto	u2160
  4059  0607                     u2161:
  4060  0607  2E09               	goto	l489
  4061  0608                     u2160:
  4062  0608                     l1549:
  4063  0608  17DD               	bsf	___fladd@b+3,7
  4064  0609                     l489:
  4065  0609                     l459:
  4066  0609  0008               	return
  4067  060A                     __end_of___fladd:
  4068                           
  4069                           	psect	text9
  4070  0D2A                     __ptext9:	
  4071 ;; *************** function _PWM_50Hz_Init *****************
  4072 ;; Defined at:
  4073 ;;		line 30 in file "newmain.c"
  4074 ;; Parameters:    Size  Location     Type
  4075 ;;		None
  4076 ;; Auto vars:     Size  Location     Type
  4077 ;;		None
  4078 ;; Return value:  Size  Location     Type
  4079 ;;                  1    wreg      void 
  4080 ;; Registers used:
  4081 ;;		wreg, status,2, status,0
  4082 ;; Tracked objects:
  4083 ;;		On entry : 0/0
  4084 ;;		On exit  : 0/0
  4085 ;;		Unchanged: 0/0
  4086 ;; Data sizes:     COMMON   BANK0   BANK1   BANK3   BANK2
  4087 ;;      Params:         0       0       0       0       0
  4088 ;;      Locals:         0       0       0       0       0
  4089 ;;      Temps:         10       0       0       0       0
  4090 ;;      Totals:        10       0       0       0       0
  4091 ;;Total ram usage:       10 bytes
  4092 ;; Hardware stack levels used: 1
  4093 ;; Hardware stack levels required when called: 1
  4094 ;; This function calls:
  4095 ;;		Nothing
  4096 ;; This function is called by:
  4097 ;;		_main
  4098 ;; This function uses a non-reentrant model
  4099 ;;
  4100                           
  4101                           
  4102                           ;psect for function _PWM_50Hz_Init
  4103  0D2A                     _PWM_50Hz_Init:
  4104  0D2A                     l1877:	
  4105                           ;incstack = 0
  4106                           ; Regs used in _PWM_50Hz_Init: [wreg+status,2+status,0]
  4107                           
  4108                           
  4109                           ;newmain.c: 32:     TRISBbits.TRISB0 = 0;
  4110  0D2A  1683               	bsf	3,5	;RP0=1, select bank1
  4111  0D2B  1303               	bcf	3,6	;RP1=0, select bank1
  4112  0D2C  1006               	bcf	6,0	;volatile
  4113                           
  4114                           ;newmain.c: 33:     PORTBbits.RB0 = 1;
  4115  0D2D  1283               	bcf	3,5	;RP0=0, select bank0
  4116  0D2E  1303               	bcf	3,6	;RP1=0, select bank0
  4117  0D2F  1406               	bsf	6,0	;volatile
  4118                           
  4119                           ;newmain.c: 35:     T1CONbits.TMR1CS = 0;
  4120  0D30  1090               	bcf	16,1	;volatile
  4121                           
  4122                           ;newmain.c: 37:     T1CONbits.T1CKPS1 = 1;
  4123  0D31  1690               	bsf	16,5	;volatile
  4124                           
  4125                           ;newmain.c: 38:     T1CONbits.T1CKPS0 = 1;
  4126  0D32  1610               	bsf	16,4	;volatile
  4127                           
  4128                           ;newmain.c: 40:     INTCONbits.GIE = 1;
  4129  0D33  178B               	bsf	11,7	;volatile
  4130                           
  4131                           ;newmain.c: 41:     INTCONbits.PEIE = 1;
  4132  0D34  170B               	bsf	11,6	;volatile
  4133                           
  4134                           ;newmain.c: 42:     PIE1bits.TMR1IE = 1;
  4135  0D35  1683               	bsf	3,5	;RP0=1, select bank1
  4136  0D36  1303               	bcf	3,6	;RP1=0, select bank1
  4137  0D37  140C               	bsf	12,0	;volatile
  4138  0D38                     l1879:
  4139                           
  4140                           ;newmain.c: 44:     Ton = T/2;
  4141  0D38  306A               	movlw	106
  4142  0D39  00BB               	movwf	_Ton^(0+128)
  4143  0D3A  3018               	movlw	24
  4144  0D3B  00BC               	movwf	(_Ton^(0+128)+1)
  4145  0D3C                     l1881:
  4146                           
  4147                           ;newmain.c: 45:     Toff = T - Ton;
  4148  0D3C  30D4               	movlw	212
  4149  0D3D  00F2               	movwf	??_PWM_50Hz_Init
  4150  0D3E  3030               	movlw	48
  4151  0D3F  00F3               	movwf	??_PWM_50Hz_Init+1
  4152  0D40  083B               	movf	_Ton^(0+128),w
  4153  0D41  0272               	subwf	??_PWM_50Hz_Init,w
  4154  0D42  00B9               	movwf	_Toff^(0+128)
  4155  0D43  083C               	movf	(_Ton+1)^(0+128),w
  4156  0D44  1C03               	skipc
  4157  0D45  0A3C               	incf	(_Ton+1)^(0+128),w
  4158  0D46  0273               	subwf	??_PWM_50Hz_Init+1,w
  4159  0D47  00BA               	movwf	(_Toff+1)^(0+128)
  4160  0D48                     l1883:
  4161                           
  4162                           ;newmain.c: 47:     Ton_H = (65536 - Ton) >> 8;
  4163  0D48  083B               	movf	_Ton^(0+128),w
  4164  0D49  00F2               	movwf	??_PWM_50Hz_Init
  4165  0D4A  083C               	movf	(_Ton+1)^(0+128),w
  4166  0D4B  00F3               	movwf	??_PWM_50Hz_Init+1
  4167  0D4C  01F4               	clrf	??_PWM_50Hz_Init+2
  4168  0D4D  01F5               	clrf	??_PWM_50Hz_Init+3
  4169  0D4E  3000               	movlw	0
  4170  0D4F  00F6               	movwf	??_PWM_50Hz_Init+4
  4171  0D50  3000               	movlw	0
  4172  0D51  00F7               	movwf	??_PWM_50Hz_Init+5
  4173  0D52  3001               	movlw	1
  4174  0D53  00F8               	movwf	??_PWM_50Hz_Init+6
  4175  0D54  3000               	movlw	0
  4176  0D55  00F9               	movwf	??_PWM_50Hz_Init+7
  4177  0D56  0872               	movf	??_PWM_50Hz_Init,w
  4178  0D57  02F6               	subwf	??_PWM_50Hz_Init+4,f
  4179  0D58  0873               	movf	??_PWM_50Hz_Init+1,w
  4180  0D59  1C03               	skipc
  4181  0D5A  0F73               	incfsz	??_PWM_50Hz_Init+1,w
  4182  0D5B  2D5D               	goto	u2971
  4183  0D5C  2D5E               	goto	u2972
  4184  0D5D                     u2971:
  4185  0D5D  02F7               	subwf	??_PWM_50Hz_Init+5,f
  4186  0D5E                     u2972:
  4187  0D5E  0874               	movf	??_PWM_50Hz_Init+2,w
  4188  0D5F  1C03               	skipc
  4189  0D60  0F74               	incfsz	??_PWM_50Hz_Init+2,w
  4190  0D61  2D63               	goto	u2973
  4191  0D62  2D64               	goto	u2974
  4192  0D63                     u2973:
  4193  0D63  02F8               	subwf	??_PWM_50Hz_Init+6,f
  4194  0D64                     u2974:
  4195  0D64  0875               	movf	??_PWM_50Hz_Init+3,w
  4196  0D65  1C03               	skipc
  4197  0D66  0F75               	incfsz	??_PWM_50Hz_Init+3,w
  4198  0D67  2D69               	goto	u2975
  4199  0D68  2D6A               	goto	u2976
  4200  0D69                     u2975:
  4201  0D69  02F9               	subwf	??_PWM_50Hz_Init+7,f
  4202  0D6A                     u2976:
  4203  0D6A  3008               	movlw	8
  4204  0D6B  00FA               	movwf	??_PWM_50Hz_Init+8
  4205  0D6C                     u2985:
  4206  0D6C  0D79               	rlf	??_PWM_50Hz_Init+7,w
  4207  0D6D  0CF9               	rrf	??_PWM_50Hz_Init+7,f
  4208  0D6E  0CF8               	rrf	??_PWM_50Hz_Init+6,f
  4209  0D6F  0CF7               	rrf	??_PWM_50Hz_Init+5,f
  4210  0D70  0CF6               	rrf	??_PWM_50Hz_Init+4,f
  4211  0D71                     u2980:
  4212  0D71  0BFA               	decfsz	??_PWM_50Hz_Init+8,f
  4213  0D72  2D6C               	goto	u2985
  4214  0D73  0876               	movf	??_PWM_50Hz_Init+4,w
  4215  0D74  00FB               	movwf	??_PWM_50Hz_Init+9
  4216  0D75  087B               	movf	??_PWM_50Hz_Init+9,w
  4217  0D76  00C0               	movwf	_Ton_H^(0+128)
  4218  0D77                     l1885:
  4219                           
  4220                           ;newmain.c: 48:     Ton_L = (65536 - Ton) & 0x00FF;
  4221  0D77  083B               	movf	_Ton^(0+128),w
  4222  0D78  3C00               	sublw	0
  4223  0D79  00F2               	movwf	??_PWM_50Hz_Init
  4224  0D7A  0872               	movf	??_PWM_50Hz_Init,w
  4225  0D7B  00BF               	movwf	_Ton_L^(0+128)
  4226  0D7C                     l1887:
  4227                           
  4228                           ;newmain.c: 50:     Toff_H = (65536 - Toff) >> 8;
  4229  0D7C  0839               	movf	_Toff^(0+128),w
  4230  0D7D  00F2               	movwf	??_PWM_50Hz_Init
  4231  0D7E  083A               	movf	(_Toff+1)^(0+128),w
  4232  0D7F  00F3               	movwf	??_PWM_50Hz_Init+1
  4233  0D80  01F4               	clrf	??_PWM_50Hz_Init+2
  4234  0D81  01F5               	clrf	??_PWM_50Hz_Init+3
  4235  0D82  3000               	movlw	0
  4236  0D83  00F6               	movwf	??_PWM_50Hz_Init+4
  4237  0D84  3000               	movlw	0
  4238  0D85  00F7               	movwf	??_PWM_50Hz_Init+5
  4239  0D86  3001               	movlw	1
  4240  0D87  00F8               	movwf	??_PWM_50Hz_Init+6
  4241  0D88  3000               	movlw	0
  4242  0D89  00F9               	movwf	??_PWM_50Hz_Init+7
  4243  0D8A  0872               	movf	??_PWM_50Hz_Init,w
  4244  0D8B  02F6               	subwf	??_PWM_50Hz_Init+4,f
  4245  0D8C  0873               	movf	??_PWM_50Hz_Init+1,w
  4246  0D8D  1C03               	skipc
  4247  0D8E  0F73               	incfsz	??_PWM_50Hz_Init+1,w
  4248  0D8F  2D91               	goto	u2991
  4249  0D90  2D92               	goto	u2992
  4250  0D91                     u2991:
  4251  0D91  02F7               	subwf	??_PWM_50Hz_Init+5,f
  4252  0D92                     u2992:
  4253  0D92  0874               	movf	??_PWM_50Hz_Init+2,w
  4254  0D93  1C03               	skipc
  4255  0D94  0F74               	incfsz	??_PWM_50Hz_Init+2,w
  4256  0D95  2D97               	goto	u2993
  4257  0D96  2D98               	goto	u2994
  4258  0D97                     u2993:
  4259  0D97  02F8               	subwf	??_PWM_50Hz_Init+6,f
  4260  0D98                     u2994:
  4261  0D98  0875               	movf	??_PWM_50Hz_Init+3,w
  4262  0D99  1C03               	skipc
  4263  0D9A  0F75               	incfsz	??_PWM_50Hz_Init+3,w
  4264  0D9B  2D9D               	goto	u2995
  4265  0D9C  2D9E               	goto	u2996
  4266  0D9D                     u2995:
  4267  0D9D  02F9               	subwf	??_PWM_50Hz_Init+7,f
  4268  0D9E                     u2996:
  4269  0D9E  3008               	movlw	8
  4270  0D9F  00FA               	movwf	??_PWM_50Hz_Init+8
  4271  0DA0                     u3005:
  4272  0DA0  0D79               	rlf	??_PWM_50Hz_Init+7,w
  4273  0DA1  0CF9               	rrf	??_PWM_50Hz_Init+7,f
  4274  0DA2  0CF8               	rrf	??_PWM_50Hz_Init+6,f
  4275  0DA3  0CF7               	rrf	??_PWM_50Hz_Init+5,f
  4276  0DA4  0CF6               	rrf	??_PWM_50Hz_Init+4,f
  4277  0DA5                     u3000:
  4278  0DA5  0BFA               	decfsz	??_PWM_50Hz_Init+8,f
  4279  0DA6  2DA0               	goto	u3005
  4280  0DA7  0876               	movf	??_PWM_50Hz_Init+4,w
  4281  0DA8  00FB               	movwf	??_PWM_50Hz_Init+9
  4282  0DA9  087B               	movf	??_PWM_50Hz_Init+9,w
  4283  0DAA  00BE               	movwf	_Toff_H^(0+128)
  4284  0DAB                     l1889:
  4285                           
  4286                           ;newmain.c: 51:     Toff_L = (65536 - Toff) & 0x00FF;
  4287  0DAB  0839               	movf	_Toff^(0+128),w
  4288  0DAC  3C00               	sublw	0
  4289  0DAD  00F2               	movwf	??_PWM_50Hz_Init
  4290  0DAE  0872               	movf	??_PWM_50Hz_Init,w
  4291  0DAF  00BD               	movwf	_Toff_L^(0+128)
  4292  0DB0                     l1891:
  4293                           
  4294                           ;newmain.c: 53:     TMR1H = Ton_H;
  4295  0DB0  0840               	movf	_Ton_H^(0+128),w
  4296  0DB1  1283               	bcf	3,5	;RP0=0, select bank0
  4297  0DB2  1303               	bcf	3,6	;RP1=0, select bank0
  4298  0DB3  008F               	movwf	15	;volatile
  4299  0DB4                     l1893:
  4300                           
  4301                           ;newmain.c: 54:     TMR1L = Ton_L;
  4302  0DB4  1683               	bsf	3,5	;RP0=1, select bank1
  4303  0DB5  1303               	bcf	3,6	;RP1=0, select bank1
  4304  0DB6  083F               	movf	_Ton_L^(0+128),w
  4305  0DB7  1283               	bcf	3,5	;RP0=0, select bank0
  4306  0DB8  1303               	bcf	3,6	;RP1=0, select bank0
  4307  0DB9  008E               	movwf	14	;volatile
  4308  0DBA                     l35:
  4309  0DBA  0008               	return
  4310  0DBB                     __end_of_PWM_50Hz_Init:
  4311                           
  4312                           	psect	text10
  4313  0CF2                     __ptext10:	
  4314 ;; *************** function _isr1 *****************
  4315 ;; Defined at:
  4316 ;;		line 126 in file "newmain.c"
  4317 ;; Parameters:    Size  Location     Type
  4318 ;;		None
  4319 ;; Auto vars:     Size  Location     Type
  4320 ;;		None
  4321 ;; Return value:  Size  Location     Type
  4322 ;;                  1    wreg      void 
  4323 ;; Registers used:
  4324 ;;		wreg, status,0
  4325 ;; Tracked objects:
  4326 ;;		On entry : 0/0
  4327 ;;		On exit  : 0/0
  4328 ;;		Unchanged: 0/0
  4329 ;; Data sizes:     COMMON   BANK0   BANK1   BANK3   BANK2
  4330 ;;      Params:         0       0       0       0       0
  4331 ;;      Locals:         0       0       0       0       0
  4332 ;;      Temps:          2       0       0       0       0
  4333 ;;      Totals:         2       0       0       0       0
  4334 ;;Total ram usage:        2 bytes
  4335 ;; Hardware stack levels used: 1
  4336 ;; This function calls:
  4337 ;;		Nothing
  4338 ;; This function is called by:
  4339 ;;		Interrupt level 1
  4340 ;; This function uses a non-reentrant model
  4341 ;;
  4342                           
  4343                           
  4344                           ;psect for function _isr1
  4345  0CF2                     _isr1:
  4346  0CF2                     i1l1939:
  4347                           
  4348                           ;newmain.c: 128:     if(PIR1bits.TMR1IF)
  4349  0CF2  1283               	bcf	3,5	;RP0=0, select bank0
  4350  0CF3  1303               	bcf	3,6	;RP1=0, select bank0
  4351  0CF4  1C0C               	btfss	12,0	;volatile
  4352  0CF5  2CF7               	goto	u311_21
  4353  0CF6  2CF8               	goto	u311_20
  4354  0CF7                     u311_21:
  4355  0CF7  2D23               	goto	i1l67
  4356  0CF8                     u311_20:
  4357  0CF8                     i1l1941:
  4358                           
  4359                           ;newmain.c: 129:     {;newmain.c: 130:         PORTBbits.RB0 = !PORTBbits.RB0;
  4360  0CF8  1003               	clrc
  4361  0CF9  1C06               	btfss	6,0	;volatile
  4362  0CFA  1403               	setc
  4363  0CFB  1803               	btfsc	3,0
  4364  0CFC  2CFE               	goto	u312_21
  4365  0CFD  2D02               	goto	u312_20
  4366  0CFE                     u312_21:
  4367  0CFE  1283               	bcf	3,5	;RP0=0, select bank0
  4368  0CFF  1303               	bcf	3,6	;RP1=0, select bank0
  4369  0D00  1406               	bsf	6,0	;volatile
  4370  0D01  2D05               	goto	u313_24
  4371  0D02                     u312_20:
  4372  0D02  1283               	bcf	3,5	;RP0=0, select bank0
  4373  0D03  1303               	bcf	3,6	;RP1=0, select bank0
  4374  0D04  1006               	bcf	6,0	;volatile
  4375  0D05                     u313_24:
  4376  0D05                     i1l1943:
  4377                           
  4378                           ;newmain.c: 131:         if(PORTBbits.RB0 == 0)
  4379  0D05  1806               	btfsc	6,0	;volatile
  4380  0D06  2D08               	goto	u314_21
  4381  0D07  2D09               	goto	u314_20
  4382  0D08                     u314_21:
  4383  0D08  2D16               	goto	i1l1947
  4384  0D09                     u314_20:
  4385  0D09                     i1l1945:
  4386                           
  4387                           ;newmain.c: 132:         {;newmain.c: 133:             TMR1H = Toff_H;
  4388  0D09  1683               	bsf	3,5	;RP0=1, select bank1
  4389  0D0A  1303               	bcf	3,6	;RP1=0, select bank1
  4390  0D0B  083E               	movf	_Toff_H^(0+128),w
  4391  0D0C  1283               	bcf	3,5	;RP0=0, select bank0
  4392  0D0D  1303               	bcf	3,6	;RP1=0, select bank0
  4393  0D0E  008F               	movwf	15	;volatile
  4394                           
  4395                           ;newmain.c: 134:             TMR1L = Toff_L;
  4396  0D0F  1683               	bsf	3,5	;RP0=1, select bank1
  4397  0D10  1303               	bcf	3,6	;RP1=0, select bank1
  4398  0D11  083D               	movf	_Toff_L^(0+128),w
  4399  0D12  1283               	bcf	3,5	;RP0=0, select bank0
  4400  0D13  1303               	bcf	3,6	;RP1=0, select bank0
  4401  0D14  008E               	movwf	14	;volatile
  4402                           
  4403                           ;newmain.c: 135:         }
  4404  0D15  2D22               	goto	i1l1949
  4405  0D16                     i1l1947:
  4406                           
  4407                           ;newmain.c: 137:         {;newmain.c: 138:             TMR1H = Ton_H;
  4408  0D16  1683               	bsf	3,5	;RP0=1, select bank1
  4409  0D17  1303               	bcf	3,6	;RP1=0, select bank1
  4410  0D18  0840               	movf	_Ton_H^(0+128),w
  4411  0D19  1283               	bcf	3,5	;RP0=0, select bank0
  4412  0D1A  1303               	bcf	3,6	;RP1=0, select bank0
  4413  0D1B  008F               	movwf	15	;volatile
  4414                           
  4415                           ;newmain.c: 139:             TMR1L = Ton_L;
  4416  0D1C  1683               	bsf	3,5	;RP0=1, select bank1
  4417  0D1D  1303               	bcf	3,6	;RP1=0, select bank1
  4418  0D1E  083F               	movf	_Ton_L^(0+128),w
  4419  0D1F  1283               	bcf	3,5	;RP0=0, select bank0
  4420  0D20  1303               	bcf	3,6	;RP1=0, select bank0
  4421  0D21  008E               	movwf	14	;volatile
  4422  0D22                     i1l1949:
  4423                           
  4424                           ;newmain.c: 141:         PIR1bits.TMR1IF = 0;
  4425  0D22  100C               	bcf	12,0	;volatile
  4426  0D23                     i1l67:
  4427  0D23  0871               	movf	??_isr1+1,w
  4428  0D24  008A               	movwf	10
  4429  0D25  0E70               	swapf	??_isr1,w
  4430  0D26  0083               	movwf	3
  4431  0D27  0EFE               	swapf	btemp,f
  4432  0D28  0E7E               	swapf	btemp,w
  4433  0D29  0009               	retfie
  4434  0D2A                     __end_of_isr1:
  4435  007E                     btemp	set	126	;btemp
  4436  007E                     wtemp0	set	126
  4437                           
  4438                           	psect	intentry
  4439  0004                     __pintentry:	
  4440                           ;incstack = 0
  4441                           ; Regs used in _isr1: [wreg+status,0]
  4442                           
  4443  0004                     interrupt_function:
  4444  007E                     saved_w	set	btemp
  4445  0004  00FE               	movwf	btemp
  4446  0005  0E03               	swapf	3,w
  4447  0006  00F0               	movwf	??_isr1
  4448  0007  080A               	movf	10,w
  4449  0008  00F1               	movwf	??_isr1+1
  4450  0009  120A  158A  2CF2   	ljmp	_isr1
  4451                           
  4452                           	psect	config
  4453                           
  4454                           ;Config register CONFIG @ 0x2007
  4455                           ;	Oscillator Selection bits
  4456                           ;	FOSC = HS, HS oscillator
  4457                           ;	Watchdog Timer Enable bit
  4458                           ;	WDTE = OFF, WDT disabled
  4459                           ;	Power-up Timer Enable bit
  4460                           ;	PWRTE = ON, PWRT enabled
  4461                           ;	Brown-out Reset Enable bit
  4462                           ;	BOREN = OFF, BOR disabled
  4463                           ;	Low-Voltage (Single-Supply) In-Circuit Serial Programming Enable bit
  4464                           ;	LVP = OFF, RB3 is digital I/O, HV on MCLR must be used for programming
  4465                           ;	Data EEPROM Memory Code Protection bit
  4466                           ;	CPD = OFF, Data EEPROM code protection off
  4467                           ;	Flash Program Memory Write Enable bits
  4468                           ;	WRT = OFF, Write protection off; all program memory may be written to by EECON control
  4469                           ;	In-Circuit Debugger Mode bit
  4470                           ;	DEBUG = 0x1, unprogrammed default
  4471                           ;	Flash Program Memory Code Protection bit
  4472                           ;	CP = OFF, Code protection off
  4473  2007                     	org	8199
  4474  2007  3F32               	dw	16178

Data Sizes:
    Strings     0
    Constant    0
    Data        2
    BSS         0
    Persistent  8
    Stack       0

Auto Spaces:
    Space          Size  Autos    Used
    COMMON           14     12      12
    BANK0            80     80      80
    BANK1            80     25      35
    BANK3            96      0       0
    BANK2            96      0       0

Pointer List with Targets:

    None.

Critical Paths under _main in COMMON

    _main->_PWM_50Hz_Init
    ___flmul->__Umul8_16
    ___fldiv->___xxtofl

Critical Paths under _isr1 in COMMON

    None.

Critical Paths under _main in BANK0

    _PWM_Servo->___fltol
    ___fltol->___fladd
    ___flmul->___fldiv
    ___fldiv->___xxtofl
    ___fladd->___flmul

Critical Paths under _isr1 in BANK0

    None.

Critical Paths under _main in BANK1

    _main->_PWM_Servo
    _PWM_Servo->___fltol

Critical Paths under _isr1 in BANK1

    None.

Critical Paths under _main in BANK3

    None.

Critical Paths under _isr1 in BANK3

    None.

Critical Paths under _main in BANK2

    None.

Critical Paths under _isr1 in BANK2

    None.

Call Graph Tables:

 ---------------------------------------------------------------------------------
 (Depth) Function   	        Calls       Base Space   Used Autos Params    Refs
 ---------------------------------------------------------------------------------
 (0) _main                                                 3     3      0    6700
                                             22 BANK1      3     3      0
                      _PWM_50Hz_Init
                          _PWM_Servo
                          _PWM_Start
 ---------------------------------------------------------------------------------
 (1) _PWM_Start                                            0     0      0       0
 ---------------------------------------------------------------------------------
 (1) _PWM_Servo                                           13    13      0    6700
                                              9 BANK1     13    13      0
                            ___fladd
                            ___fldiv
                            ___flmul
                            ___fltol
                           ___xxtofl
 ---------------------------------------------------------------------------------
 (2) ___xxtofl                                            14    10      4     398
                                              2 COMMON     8     4      4
                                              0 BANK0      6     6      0
 ---------------------------------------------------------------------------------
 (2) ___fltol                                             11     7      4     305
                                             78 BANK0      2     2      0
                                              0 BANK1      9     5      4
                            ___fladd (ARG)
                            ___fldiv (ARG)
                            ___flmul (ARG)
                           ___xxtofl (ARG)
 ---------------------------------------------------------------------------------
 (2) ___flmul                                             26    18      8    2417
                                             32 BANK0     26    18      8
                          __Umul8_16
                            ___fldiv (ARG)
                           ___xxtofl (ARG)
 ---------------------------------------------------------------------------------
 (3) __Umul8_16                                            9     7      2     799
                                              2 COMMON     9     7      2
 ---------------------------------------------------------------------------------
 (2) ___fldiv                                             26    18      8    1273
                                              6 BANK0     26    18      8
                           ___xxtofl (ARG)
 ---------------------------------------------------------------------------------
 (2) ___fladd                                             20    12      8    2262
                                             58 BANK0     20    12      8
                            ___fldiv (ARG)
                            ___flmul (ARG)
                           ___xxtofl (ARG)
 ---------------------------------------------------------------------------------
 (1) _PWM_50Hz_Init                                       10    10      0       0
                                              2 COMMON    10    10      0
 ---------------------------------------------------------------------------------
 Estimated maximum stack depth 3
 ---------------------------------------------------------------------------------
 (Depth) Function   	        Calls       Base Space   Used Autos Params    Refs
 ---------------------------------------------------------------------------------
 (4) _isr1                                                 2     2      0       0
                                              0 COMMON     2     2      0
 ---------------------------------------------------------------------------------
 Estimated maximum stack depth 4
 ---------------------------------------------------------------------------------

 Call Graph Graphs:

 _main (ROOT)
   _PWM_50Hz_Init
   _PWM_Servo
     ___fladd
       ___fldiv (ARG)
         ___xxtofl (ARG)
       ___flmul (ARG)
         __Umul8_16
         ___fldiv (ARG)
         ___xxtofl (ARG)
       ___xxtofl (ARG)
     ___fldiv
     ___flmul
     ___fltol
       ___fladd (ARG)
       ___fldiv (ARG)
       ___flmul (ARG)
       ___xxtofl (ARG)
     ___xxtofl
   _PWM_Start

 _isr1 (ROOT)

 Address spaces:
Name               Size   Autos  Total    Cost      Usage
BANK3               60      0       0       9        0.0%
BITBANK3            60      0       0       8        0.0%
SFR3                 0      0       0       4        0.0%
BITSFR3              0      0       0       4        0.0%
BANK2               60      0       0      11        0.0%
BITBANK2            60      0       0      10        0.0%
SFR2                 0      0       0       5        0.0%
BITSFR2              0      0       0       5        0.0%
BANK1               50     19      23       7       43.8%
BITBANK1            50      0       0       6        0.0%
SFR1                 0      0       0       2        0.0%
BITSFR1              0      0       0       2        0.0%
BANK0               50     50      50       5      100.0%
BITBANK0            50      0       0       4        0.0%
SFR0                 0      0       0       1        0.0%
BITSFR0              0      0       0       1        0.0%
COMMON               E      C       C       1       85.7%
BITCOMMON            E      0       0       0        0.0%
CODE                 0      0       0       0        0.0%
DATA                 0      0      7F      12        0.0%
ABS                  0      0      7F       3        0.0%
NULL                 0      0       0       0        0.0%
STACK                0      0       0       2        0.0%
EEDATA             100      0       0       0        0.0%


Microchip Technology PIC Macro Assembler V2.32 build 20210201212658 
Symbol Table                                                                                   Sat Jan 29 20:19:13 2022

                      _T 00C1             ___fldiv@aexp 003F             ___fldiv@bexp 003E  
           ___fldiv@sign 0037                       l35 0DBA                       l51 0FFF  
                     l38 07EA      __Umul8_16@word_mpld 0078                      l502 0666  
                    l504 07E6                      l600 0EDE                      l450 048C  
                    l346 0E35                      l339 0E4C                      l452 0463  
                    l524 07CA                      l349 0E4C                      l446 03E5  
                    l526 07DA                      l518 0758                      l542 0381  
                    l471 057B                      l480 05DB                      l561 0CB6  
                    l554 0375                      l467 0557                      l459 0609  
                    l563 0CC8                      l548 02ED                      l477 059D  
                    l488 05FD                      l592 0EB6                      l489 0609  
                    l586 0E71                      l588 0F08                      l599 0ED2  
                    _Ton 00BB             ___flmul@aexp 0052             ___flmul@bexp 0053  
           ___flmul@sign 004D             ___flmul@temp 0058             ___flmul@prod 0054  
        ??_PWM_50Hz_Init 0072             ___fltol@exp1 006F                     l1311 0CAC  
                   l1401 03EB                     l1313 0CB0                     l1321 0DBB  
                   l1411 03FF                     l1403 03EF                     l1315 0CBF  
                   l1307 0CA3                     l1331 0DF1                     l1323 0DCA  
                   l1501 057A                     l1421 0413                     l1413 0403  
                   l1405 03F3                     l1317 0CC4                     l1309 0CA5  
                   l1333 0DF9                     l1503 057F                     l1511 058B  
                   l1431 0427                     l1423 0417                     l1415 0407  
                   l1407 03F7                     l1351 0E26                     l1343 0E09  
                   l1335 0DFD                     l1327 0DD5                     l1247 07E7  
                   l1505 0582                     l1513 058F                     l1441 0467  
                   l1433 042B                     l1425 041B                     l1417 040B  
                   l1409 03FB                     l1361 038F                     l1601 068C  
                   l1353 0E3A                     l1337 0E01                     l1345 0E1F  
                   l1329 0DEE                     l1531 05D7                     l1523 05A2  
                   l1515 0590                     l1507 0584                     l1451 0480  
                   l1443 0470                     l1427 041F                     l1419 040F  
                   l1435 042F                     l1371 03A6                     l1363 0393  
                   l1611 06B7                     l1355 0E3F                     l1541 05F3  
                   l1533 05E0                     l1525 05A7                     l1517 0594  
                   l1509 0589                     l1461 049E                     l1445 0472  
                   l1453 0484                     l1437 0430                     l1429 0423  
                   l1381 03BC                     l1373 03A7                     l1365 0394  
                   l1357 0382                     l1621 06DC                     l1613 06BF  
                   l1605 0695                     l1701 0033                     l1543 05F7  
                   l1535 05E5                     l1527 05B5                     l1519 059A  
                   l1471 04C8                     l1463 04B5                     l1455 0490  
                   l1447 0476                     l1439 0447                     l1391 03CD  
                   l1383 03BD                     l1367 0399                     l1375 03A9  
                   l1359 0389                     l1631 0707                     l1623 06DD  
                   l1615 06C1                     l1607 06A7                     l1551 060A  
                   l1711 004F                     l1703 0038                     l1545 05F9  
                   l1537 05ED                     l1529 05B9                     l1481 04F1  
                   l1473 04CC                     l1465 04B9                     l1457 0495  
                   l1449 0477                     l1393 03D2                     l1385 03C3  
                   l1377 03B1                     l1369 039E                     l1641 0724  
                   l1617 06C6                     l1625 06E6                     l1633 070B  
                   l1609 06AF                     l1561 0621                     l1553 0611  
                   l1801 02F2                     l1721 0064                     l1713 0054  
                   l1705 003D                     l1547 0604                     l1539 05F2  
                   l1491 055F                     l1483 052F                     l1475 04CD  
                   l1467 04BD                     l1395 03DA                     l1387 03C7  
                   l1379 03B6                     l1651 073C                     l1643 0728  
                   l1635 0711                     l1627 06F8                     l1619 06D8  
                   l1571 0639                     l1563 0626                     l1555 0617  
                   l1803 02F7                     l1811 0328                     l1731 0080  
                   l1723 0069                     l1715 005A                     l1707 0045  
                   l1549 0608                     l1493 0564                     l1485 0535  
                   l1477 04D6                     l1469 04C6                     l1397 03DB  
                   l1389 03C8                     l1661 075D                     l1653 073D  
                   l1645 0729                     l1637 0719                     l1629 06F9  
                   l1581 064E                     l1573 063E                     l1565 062E  
                   l1557 061B                     l1821 035B                     l1813 0335  
                   l1805 0305                     l1741 00AB                     l1733 0085  
                   l1725 0071                     l1717 005E                     l1709 0047  
                   l1901 0F97                     l1487 053A                     l1479 04DB  
                   l1399 03DD                     l1663 0762                     l1671 0793  
                   l1655 0741                     l1647 0732                     l1639 071B  
                   l1591 066E                     l1583 0653                     l1575 0644  
                   l1567 062F                     l1559 061C                     l1823 0369  
                   l1815 0340                     l1807 0309                     l1751 0148  
                   l1743 00C8                     l1727 0073                     l1719 005F  
                   l1903 0FC6                     l1497 056D                     l1489 0549  
                   l1681 07C9                     l1673 07A0                     l1665 0770  
                   l1657 0755                     l1649 0738                     l1593 067A  
                   l1585 065B                     l1577 0648                     l1569 0631  
                   l1825 036D                     l1817 034F                     l1809 0322  
                   l1761 01AB                     l1753 0151                     l1745 00E4  
                   l1737 008E                     l1729 007B                     l1841 0E79  
                   l1833 0E50                     l1905 0FCB                     l1499 0576  
                   l1683 07D0                     l1675 07AE                     l1667 0774  
                   l1595 067E                     l1587 065C                     l1579 0649  
                   l1827 036E                     l1819 0359                     l1771 024B  
                   l1763 01C4                     l1755 0161                     l1747 0110  
                   l1739 009E                     l1851 0E9B                     l1835 0E55  
                   l1907 0FFA                     l1931 0CC9                     l1685 07D4  
                   l1677 07BD                     l1669 078D                     l1589 065E  
                   l1829 0379                     l1781 02B9                     l1773 0271  
                   l1765 01E1                     l1757 017E                     l1749 012C  
                   l1693 0021                     l1861 0ECC                     l1853 0E9F  
                   l1845 0E82                     l1837 0E59                     l1933 0CCE  
                   l1687 07D6                     l1679 07C1                     l1599 0687  
                   l1791 02D1                     l1783 02BD                     l1775 0299  
                   l1767 020E                     l1759 018E                     l1695 0028  
                   l1871 0EFF                     l1863 0ED6                     l1855 0EAD  
                   l1847 0E87                     l1839 0E69                     l1935 0CD4  
                   l1881 0D3C                     l1793 02D2                     l1785 02BE  
                   l1777 02A2                     l1769 021E                     l1697 002E  
                   l1873 0F00                     l1865 0EE0                     l1857 0EBD  
                   l1849 0E94                     l1937 0CD9                     l1891 0DB0  
                   l1883 0D48                     l1795 02D6                     l1787 02C7  
                   l1779 02B0                     l1699 0032                     l1867 0EF6  
                   l1859 0EC8                     l1893 0DB4                     l1885 0D77  
                   l1877 0D2A                     l1797 02EA                     l1789 02CD  
                   l1869 0EFB                     l1887 0D7C                     l1879 0D38  
                   l1895 0F0C                     l1889 0DAB                     l1897 0F87  
                   l1899 0F8B                     u2010 057A                     u2011 0579  
                   u2100 05C8                     u2020 057F                     u2021 057E  
                   u2005 056F                     u2110 05D7                     u2030 0589  
                   u2111 05D6                     u2031 0588                     u3000 0DA5  
                   u2120 05E0                     u2040 058F                     u2200 0648  
                   u2121 05DF                     u2105 05C3                     u2041 058E  
                   u2201 0647                     u2130 05E5                     u2050 0594  
                   u2210 064E                     u2131 05E4                     u2051 0593  
                   u2211 064D                     u3011 0FAC                     u2140 05F2  
                   u2060 059A                     u2300 06F8                     u2220 0653  
                   u3020 0FC0                     u3012 0FAD                     u3005 0DA0  
                   u2141 05F1                     u2061 0599                     u2301 06F7  
                   u2221 0652                     u3013 0FB2                     u2150 05F7  
                   u2070 05A1                     u2310 0711                     u2230 066E  
                   u3014 0FB3                     u2151 05F6                     u2071 05A0  
                   u2311 0710                     u2231 066D                     u3031 0FE0  
                   u3015 0FB8                     u2160 0608                     u2080 05A7  
                   u2400 0762                     u2320 0719                     u2240 068C  
                   u1600 0CC4                     u3040 0FF4                     u3032 0FE1  
                   u3016 0FB9                     u2161 0607                     u2081 05A6  
                   u2401 0761                     u2321 0718                     u2305 06F4  
                   u2241 068B                     u1601 0CC3                     u3033 0FE6  
                   u3025 0FBB                     u2090 05B9                     u2410 0774  
                   u2250 06C6                     u2170 061B                     u1610 0DCA  
                   u3034 0FE7                     u2091 05B8                     u2411 0773  
                   u2251 06C5                     u2171 061A                     u1611 0DC9  
                   u3035 0FEC                     u2420 0783                     u2340 0728  
                   u2180 0621                     u2500 0064                     u1700 0E3F  
                   u1620 0DE5                     u3036 0FED                     u2341 0727  
                   u2181 0620                     u2501 0063                     u1701 0E3E  
                   u3045 0FEF                     u1710 0393                     u2430 07A0  
                   u2190 0626                     u2510 0069                     u1630 0E01  
                   u1711 0392                     u2431 079F                     u2335 071D  
                   u2191 0625                     u2511 0068                     u1631 0E00  
                   u1800 0447                     u1720 0399                     u2440 07BD  
                   u2360 073C                     u2280 06DC                     u2520 0080  
                   u1640 0E08                     u1801 0446                     u1721 0398  
                   u2441 07BC                     u2425 077E                     u2361 073B  
                   u2281 06DB                     u2265 06C8                     u2601 019D  
                   u2521 007F                     u1641 0E07                     u1625 0DE0  
                   u1810 0452                     u1730 039E                     u2450 07D4  
                   u2370 0741                     u2602 01A4                     u2530 0085  
                   u1811 0450                     u1731 039D                     u2451 07D3  
                   u2435 079C                     u2371 0740                     u2355 072B  
                   u2275 06D1                     u2603 01AB                     u2531 0084  
                   u1900 04B9                     u1820 0453                     u1740 03BC  
                   u2380 0755                     u1580 0CB0                     u2460 0032  
                   u1660 0E1E                     u1901 04B8                     u1805 0443  
                   u1741 03BB                     u2445 07B9                     u2381 0754  
                   u1581 0CAF                     u2621 01D3                     u2541 00D6  
                   u2461 0031                     u1661 0E1D                     u1910 04BD  
                   u1830 0467                     u1750 03C7                     u2390 075C  
                   u2710 02BD                     u2622 01DA                     u2542 00DD  
                   u2470 0038                     u1670 0E25                     u1911 04BC  
                   u1831 0466                     u1751 03C6                     u2391 075B  
                   u2295 06DF                     u2711 02BC                     u2631 0200  
                   u2623 01E1                     u2615 01AD                     u2551 00F2  
                   u2543 00E4                     u2471 0037                     u1671 0E24  
                   u1655 0E0A                     u1920 04CC                     u1840 0476  
                   u1760 03CD                     u2800 0335                     u2632 0207  
                   u2552 00F9                     u2480 003D                     u1921 04CB  
                   u1841 0475                     u1761 03CC                     u2801 0334  
                   u2705 02B2                     u2641 022D                     u2633 020E  
                   u2561 011E                     u2553 0100                     u2481 003C  
                   u1770 03D2                     u2810 034F                     u2730 02D1  
                   u2650 0257                     u2642 0234                     u2562 0125  
                   u2490 005E                     u1690 0E3A                     u1771 03D1  
                   u1595 0CB7                     u2811 034E                     u2731 02D0  
                   u2643 023B                     u2571 013A                     u2563 012C  
                   u2491 005D                     u1691 0E39                     u1940 04F1  
                   u1860 048C                     u1780 03EB                     u2820 036D  
                   u2740 02D6                     u2572 0141                     u1941 04F0  
                   u1861 048B                     u1781 03EA                     u2821 036C  
                   u2805 0331                     u2741 02D5                     u2725 02C0  
                   u2661 0263                     u2573 0148                     u1685 0E2A  
                   u3277 0CE7                     u1870 0490                     u1790 03EF  
                   u2750 02EA                     u2670 027F                     u2662 026A  
                   u2910 0ECC                     u2830 0E55                     u1951 0508  
                   u1943 04ED                     u1935 04CF                     u1871 048F  
                   u1855 0479                     u1791 03EE                     u2815 034B  
                   u2751 02E9                     u2663 0271                     u2655 0252  
                   u2591 0170                     u2911 0ECB                     u2831 0E54  
                   u1960 051C                     u1952 0509                     u1880 0495  
                   u2760 02F1                     u2592 0177                     u2920 0ED2  
                   u2840 0E59                     u1961 051D                     u1953 050E  
                   u1881 0494                     u2761 02F0                     u2681 028B  
                   u2593 017E                     u2585 014A                     u2921 0ED1  
                   u2905 0EC1                     u2841 0E58                     u1970 053A  
                   u1962 0522                     u1954 050F                     u2770 02F7  
                   u2682 0292                     u2930 0ED6                     u2850 0E79  
                   u1971 0539                     u1963 0523                     u1955 0514  
                   u1891 04A7                     u2771 02F6                     u2683 0299  
                   u2675 027A                     u2931 0ED5                     u2851 0E78  
                   u1980 055F                     u1956 0515                     u1892 04AE  
                   u2780 0309                     u2940 0EEB                     u1981 055E  
                   u1893 04B5                     u2781 0308                     u1990 0564  
                   u2790 0318                     u2950 0EFB                     u2870 0E9A  
                   u1991 0563                     u2695 029B                     u2951 0EFA  
                   u2871 0E99                     u2960 0EFF                     u2961 0EFE  
                   u2945 0EE6                     u2865 0E8C                     u2890 0EBC  
                   u2971 0D5D                     u2795 0313                     u2891 0EBB  
                   u2980 0D71                     u2972 0D5E                     u2973 0D63  
                   u2885 0EAE                     u2974 0D64                     u2991 0D91  
                   u2975 0D69                     u2992 0D92                     u2976 0D6A  
                   u2993 0D97                     u2985 0D6C                     u2994 0D98  
                   i1l67 0D23                     u2995 0D9D                     u2996 0D9E  
                   _Toff 00B9                     _isr1 0CF2                     _main 0CC9  
                   btemp 007E                     start 000C          ___fldiv@new_exp 0038  
         PWM_Servo@angle 00B5            ___fltol@sign1 006E                    ?_isr1 0070  
        __end_of___fladd 060A                    ?_main 0070          __end_of___fldiv 07E7  
        __end_of___flmul 0382          __end_of___fltol 0E4D                    _TMR1H 000F  
                  _TMR1L 000E                    _Ton_H 00C0                    _Ton_L 00BF  
                  pclath 000A                    status 0003                    wtemp0 007E  
     __size_of_PWM_Servo 00F7       __size_of_PWM_Start 0004          __initialization 000F  
           __end_of_isr1 0D2A             __end_of_main 0CF2                   ??_isr1 0070  
                 ??_main 00B6                   i1l1941 0CF8                   i1l1943 0D05  
                 i1l1945 0D09                   i1l1947 0D16                   i1l1939 0CF2  
                 i1l1949 0D22                   u311_20 0CF8                   u311_21 0CF7  
                 u312_20 0D02                   u312_21 0CFE                   u313_24 0D05  
                 u314_20 0D09                   u314_21 0D08         __end_of___xxtofl 0F09  
                 _Toff_H 00BE                   _Toff_L 00BD                ??___fladd 0062  
              ??___fldiv 002E                ??___flmul 0048                ??___fltol 00A4  
     __size_of__Umul8_16 0027        __end_of_PWM_Servo 1000        __end_of_PWM_Start 07EB  
                 saved_w 007E             ___xxtofl@arg 0022             ___xxtofl@exp 0021  
           ___xxtofl@val 0072  __end_of__initialization 001D               ___fltol@f1 00A0  
         __pcstackCOMMON 0070             __pidataBANK1 07EB        __end_of__Umul8_16 0CC9  
             __pmaintext 0CC9               __pintentry 0004                ?___xxtofl 0072  
  __end_of_PWM_50Hz_Init 0DBB                  ___fladd 0382                  ___fldiv 060A  
                ___flmul 0021                  ___fltol 0DBB                  __ptext1 07E7  
                __ptext2 0F09                  __ptext3 0E4D                  __ptext4 0DBB  
                __ptext5 0021                  __ptext6 0CA2                  __ptext7 060A  
                __ptext8 0382                  __ptext9 0D2A                _T1CONbits 0010  
             ??___xxtofl 0076     end_of_initialization 001D                _PORTBbits 0006  
            ___fladd@grs 006D            ___xxtofl@sign 0020                _TRISBbits 0086  
            ___fldiv@grs 003A              ___fldiv@rem 0033                _PWM_Servo 0F09  
              _PWM_Start 07E7              ___flmul@grs 004E            PWM_Servo@duty 00B3  
    start_initialization 000F               ?_PWM_Servo 0070               ?_PWM_Start 0070  
              __Umul8_16 0CA2              __pdataBANK1 00C1                ___fladd@a 005E  
              ___fladd@b 005A                ___fldiv@a 0026                ___fldiv@b 002A  
              ___flmul@a 0044                ___flmul@b 0040                ___latbits 0002  
          __pcstackBANK0 0020            __pcstackBANK1 00A0        __size_of___xxtofl 00BC  
              __pnvBANK1 00B9                 ?___fladd 005A                 ?___fldiv 0026  
               ?___flmul 0040                 ?___fltol 00A0               ?__Umul8_16 0072  
            ??_PWM_Servo 00A9              ??_PWM_Start 0072        interrupt_function 0004  
               _PIE1bits 008C                 _PIR1bits 000C   __size_of_PWM_50Hz_Init 0091  
            ??__Umul8_16 0074         __size_of___fladd 0288         __size_of___fldiv 01DD  
       __size_of___flmul 0361         __size_of___fltol 0092                 ___xxtofl 0E4D  
               __ptext10 0CF2            _PWM_50Hz_Init 0D2A            __size_of_isr1 0038  
          __size_of_main 0029               _INTCONbits 000B                 intlevel1 0000  
         ?_PWM_50Hz_Init 0070   __Umul8_16@multiplicand 0072            ___fladd@signs 006A  
           ___fladd@aexp 006B             ___fladd@bexp 006C     __Umul8_16@multiplier 007A  
      __Umul8_16@product 0076  
