

Microchip MPLAB XC8 Assembler V2.32 build 20210201212658 
                                                                                               Sat Jan 22 22:42:18 2022

Microchip MPLAB XC8 C Compiler v2.32 (Free license) build 20210201212658 Og1 
     1                           	processor	16F877A
     2                           	pagewidth 120
     3                           	opt	flic
     4                           	psect	strings,global,class=STRING,delta=2,noexec
     5                           	psect	cinit,global,class=CODE,merge=1,delta=2
     6                           	psect	cstackBANK1,global,class=BANK1,space=1,delta=1,noexec
     7                           	psect	cstackCOMMON,global,class=COMMON,space=1,delta=1,noexec
     8                           	psect	cstackBANK0,global,class=BANK0,space=1,delta=1,noexec
     9                           	psect	maintext,global,class=CODE,split=1,delta=2
    10                           	psect	text1,local,class=CODE,merge=1,delta=2,group=1
    11                           	psect	text2,local,class=CODE,merge=1,delta=2,group=2
    12                           	psect	text3,local,class=CODE,merge=1,delta=2,group=2
    13                           	psect	text4,local,class=CODE,merge=1,delta=2,group=2
    14                           	psect	text5,local,class=CODE,merge=1,delta=2,group=2
    15                           	psect	text6,local,class=CODE,merge=1,delta=2,group=2
    16                           	psect	text7,local,class=CODE,merge=1,delta=2,group=2
    17                           	psect	text8,local,class=CODE,merge=1,delta=2,group=2
    18                           	psect	text9,local,class=CODE,merge=1,delta=2
    19                           	psect	text10,local,class=CODE,merge=1,delta=2
    20                           	psect	text11,local,class=CODE,merge=1,delta=2
    21                           	psect	text12,local,class=CODE,merge=1,delta=2
    22                           	psect	text13,local,class=CODE,merge=1,delta=2
    23                           	psect	text14,local,class=CODE,merge=1,delta=2
    24                           	psect	config,global,abs,ovrld,class=CONFIG,space=4,delta=2,noexec
    25                           	dabs	1,0x7E,2
    26  0000                     
    27                           ; Version 2.32
    28                           ; Generated 02/02/2021 GMT
    29                           ; 
    30                           ; Copyright © 2021, Microchip Technology Inc. and its subsidiaries ("Microchip")
    31                           ; All rights reserved.
    32                           ; 
    33                           ; This software is developed by Microchip Technology Inc. and its subsidiaries ("Microch
      +                          ip").
    34                           ; 
    35                           ; Redistribution and use in source and binary forms, with or without modification, are
    36                           ; permitted provided that the following conditions are met:
    37                           ; 
    38                           ;     1. Redistributions of source code must retain the above copyright notice, this lis
      +                          t of
    39                           ;        conditions and the following disclaimer.
    40                           ; 
    41                           ;     2. Redistributions in binary form must reproduce the above copyright notice, this 
      +                          list
    42                           ;        of conditions and the following disclaimer in the documentation and/or other
    43                           ;        materials provided with the distribution. Publication is not required when
    44                           ;        this file is used in an embedded application.
    45                           ; 
    46                           ;     3. Microchip's name may not be used to endorse or promote products derived from th
      +                          is
    47                           ;        software without specific prior written permission.
    48                           ; 
    49                           ; THIS SOFTWARE IS PROVIDED BY MICROCHIP "AS IS" AND ANY EXPRESS OR IMPLIED WARRANTIES,
    50                           ; INCLUDING, BUT NOT LIMITED TO, THE IMPLIED WARRANTIES OF MERCHANTABILITY AND FITNESS F
      +                          OR
    51                           ; PURPOSE ARE DISCLAIMED.  IN NO EVENT SHALL MICROCHIP BE LIABLE FOR ANY DIRECT, INDIREC
      +                          T,
    52                           ; INCIDENTAL, SPECIAL, EXEMPLARY, OR CONSEQUENTIAL DAMAGES (INCLUDING BUT NOT LIMITED TO
    53                           ; PROCUREMENT OF SUBSTITUTE GOODS OR SERVICES; LOSS OF USE, DATA OR PROFITS; OR BUSINESS
    54                           ; INTERRUPTION) HOWSOEVER CAUSED AND ON ANY THEORY OF LIABILITY, WHETHER IN CONTRACT, ST
      +                          RICT
    55                           ; LIABILITY, OR TORT (INCLUDING NEGLIGENCE OR OTHERWISE) ARISING IN ANY WAY OUT OF THE U
      +                          SE OF
    56                           ; THIS SOFTWARE, EVEN IF ADVISED OF THE POSSIBILITY OF SUCH DAMAGE.
    57                           ; 
    58                           ; 
    59                           ; Code-generator required, PIC16F877A Definitions
    60                           ; 
    61                           ; SFR Addresses
    62  0000                     	;# 
    63  0001                     	;# 
    64  0002                     	;# 
    65  0003                     	;# 
    66  0004                     	;# 
    67  0005                     	;# 
    68  0006                     	;# 
    69  0007                     	;# 
    70  0008                     	;# 
    71  0009                     	;# 
    72  000A                     	;# 
    73  000B                     	;# 
    74  000C                     	;# 
    75  000D                     	;# 
    76  000E                     	;# 
    77  000E                     	;# 
    78  000F                     	;# 
    79  0010                     	;# 
    80  0011                     	;# 
    81  0012                     	;# 
    82  0013                     	;# 
    83  0014                     	;# 
    84  0015                     	;# 
    85  0015                     	;# 
    86  0016                     	;# 
    87  0017                     	;# 
    88  0018                     	;# 
    89  0019                     	;# 
    90  001A                     	;# 
    91  001B                     	;# 
    92  001B                     	;# 
    93  001C                     	;# 
    94  001D                     	;# 
    95  001E                     	;# 
    96  001F                     	;# 
    97  0081                     	;# 
    98  0085                     	;# 
    99  0086                     	;# 
   100  0087                     	;# 
   101  0088                     	;# 
   102  0089                     	;# 
   103  008C                     	;# 
   104  008D                     	;# 
   105  008E                     	;# 
   106  0091                     	;# 
   107  0092                     	;# 
   108  0093                     	;# 
   109  0094                     	;# 
   110  0098                     	;# 
   111  0099                     	;# 
   112  009C                     	;# 
   113  009D                     	;# 
   114  009E                     	;# 
   115  009F                     	;# 
   116  010C                     	;# 
   117  010D                     	;# 
   118  010E                     	;# 
   119  010F                     	;# 
   120  018C                     	;# 
   121  018D                     	;# 
   122  0000                     	;# 
   123  0001                     	;# 
   124  0002                     	;# 
   125  0003                     	;# 
   126  0004                     	;# 
   127  0005                     	;# 
   128  0006                     	;# 
   129  0007                     	;# 
   130  0008                     	;# 
   131  0009                     	;# 
   132  000A                     	;# 
   133  000B                     	;# 
   134  000C                     	;# 
   135  000D                     	;# 
   136  000E                     	;# 
   137  000E                     	;# 
   138  000F                     	;# 
   139  0010                     	;# 
   140  0011                     	;# 
   141  0012                     	;# 
   142  0013                     	;# 
   143  0014                     	;# 
   144  0015                     	;# 
   145  0015                     	;# 
   146  0016                     	;# 
   147  0017                     	;# 
   148  0018                     	;# 
   149  0019                     	;# 
   150  001A                     	;# 
   151  001B                     	;# 
   152  001B                     	;# 
   153  001C                     	;# 
   154  001D                     	;# 
   155  001E                     	;# 
   156  001F                     	;# 
   157  0081                     	;# 
   158  0085                     	;# 
   159  0086                     	;# 
   160  0087                     	;# 
   161  0088                     	;# 
   162  0089                     	;# 
   163  008C                     	;# 
   164  008D                     	;# 
   165  008E                     	;# 
   166  0091                     	;# 
   167  0092                     	;# 
   168  0093                     	;# 
   169  0094                     	;# 
   170  0098                     	;# 
   171  0099                     	;# 
   172  009C                     	;# 
   173  009D                     	;# 
   174  009E                     	;# 
   175  009F                     	;# 
   176  010C                     	;# 
   177  010D                     	;# 
   178  010E                     	;# 
   179  010F                     	;# 
   180  018C                     	;# 
   181  018D                     	;# 
   182                           
   183                           	psect	strings
   184  0800                     __pstrings:
   185  0800                     stringtab:
   186  0800                     __stringtab:
   187                           
   188                           ;	String table - string pointers are 1 byte each
   189  0800  1BFF               	btfsc	btemp+1,7
   190  0801  280A               	ljmp	stringcode
   191  0802  1383               	bcf	3,7
   192  0803  187F               	btfsc	btemp+1,0
   193  0804  1783               	bsf	3,7
   194  0805  0800               	movf	0,w
   195  0806  0A84               	incf	4,f
   196  0807  1903               	skipnz
   197  0808  0AFF               	incf	btemp+1,f
   198  0809  0008               	return
   199  080A                     stringcode:
   200  080A                     stringdir:
   201  080A  3008               	movlw	high stringdir
   202  080B  008A               	movwf	10
   203  080C  0804               	movf	4,w
   204  080D  0A84               	incf	4,f
   205  080E  0782               	addwf	2,f
   206  080F                     __stringbase:
   207  080F  3400               	retlw	0
   208  0810                     __end_of__stringtab:
   209  0810                     _dpowers:
   210  0810  3401               	retlw	1
   211  0811  3400               	retlw	0
   212  0812  340A               	retlw	10
   213  0813  3400               	retlw	0
   214  0814  3464               	retlw	100
   215  0815  3400               	retlw	0
   216  0816  34E8               	retlw	232
   217  0817  3403               	retlw	3
   218  0818  3410               	retlw	16
   219  0819  3427               	retlw	39
   220  081A                     __end_of_dpowers:
   221  0008                     _PORTDbits	set	8
   222  000E                     _TMR1L	set	14
   223  000F                     _TMR1H	set	15
   224  0010                     _T1CONbits	set	16
   225  0007                     _PORTC	set	7
   226  0006                     _PORTBbits	set	6
   227  0088                     _TRISDbits	set	136
   228  0087                     _TRISC	set	135
   229  0086                     _TRISBbits	set	134
   230  081A                     STR_1:
   231  081A  3454               	retlw	84	;'T'
   232  081B  3420               	retlw	32	;' '
   233  081C  343D               	retlw	61	;'='
   234  081D  3420               	retlw	32	;' '
   235  081E  3400               	retlw	0
   236  081F                     STR_4:
   237  081F  3466               	retlw	102	;'f'
   238  0820  3420               	retlw	32	;' '
   239  0821  343D               	retlw	61	;'='
   240  0822  3420               	retlw	32	;' '
   241  0823  3400               	retlw	0
   242  0824                     STR_3:
   243  0824  3475               	retlw	117	;'u'
   244  0825  3473               	retlw	115	;'s'
   245  0826  3420               	retlw	32	;' '
   246  0827  3400               	retlw	0
   247  0828                     STR_6:
   248  0828  3448               	retlw	72	;'H'
   249  0829  347A               	retlw	122	;'z'
   250  082A  3420               	retlw	32	;' '
   251  082B  3400               	retlw	0
   252  082C                     STR_2:
   253  082C  3425               	retlw	37	;'%'
   254  082D  3464               	retlw	100	;'d'
   255  082E  3400               	retlw	0
   256  082C                     
   257                           	psect	cinit
   258  07FC                     start_initialization:	
   259                           ; #config settings
   260                           
   261  07FC                     __initialization:
   262  07FC                     end_of_initialization:	
   263                           ;End of C runtime variable initialization code
   264                           
   265  07FC                     __end_of__initialization:
   266  07FC  0183               	clrf	3
   267  07FD  120A  118A  2967   	ljmp	_main	;jump to C main() function
   268                           
   269                           	psect	cstackBANK1
   270  00A0                     __pcstackBANK1:
   271  00A0                     main@bufferT:
   272                           
   273                           ; 6 bytes @ 0x0
   274  00A0                     	ds	6
   275  00A6                     main@bufferf:
   276                           
   277                           ; 6 bytes @ 0x6
   278  00A6                     	ds	6
   279  00AC                     main@f:
   280                           
   281                           ; 4 bytes @ 0xC
   282  00AC                     	ds	4
   283  00B0                     main@counter:
   284                           
   285                           ; 2 bytes @ 0x10
   286  00B0                     	ds	2
   287  00B2                     main@T:
   288                           
   289                           ; 2 bytes @ 0x12
   290  00B2                     	ds	2
   291                           
   292                           	psect	cstackCOMMON
   293  0070                     __pcstackCOMMON:
   294  0070                     ?_LCD_Cmd:
   295  0070                     ??_LCD_Cmd:	
   296                           ; 1 bytes @ 0x0
   297                           
   298  0070                     ?_LCD_Cmd_Init:	
   299                           ; 1 bytes @ 0x0
   300                           
   301  0070                     ??_LCD_Cmd_Init:	
   302                           ; 1 bytes @ 0x0
   303                           
   304  0070                     ?_LCD_Init:	
   305                           ; 1 bytes @ 0x0
   306                           
   307  0070                     ?_LCD_Char:	
   308                           ; 1 bytes @ 0x0
   309                           
   310  0070                     ??_LCD_Char:	
   311                           ; 1 bytes @ 0x0
   312                           
   313  0070                     ?_main:	
   314                           ; 1 bytes @ 0x0
   315                           
   316  0070                     ?__Umul8_16:	
   317                           ; 1 bytes @ 0x0
   318                           
   319  0070                     ?___lwdiv:	
   320                           ; 2 bytes @ 0x0
   321                           
   322  0070                     ?___xxtofl:	
   323                           ; 2 bytes @ 0x0
   324                           
   325  0070                     __Umul8_16@multiplicand:	
   326                           ; 4 bytes @ 0x0
   327                           
   328  0070                     ___lwdiv@divisor:	
   329                           ; 1 bytes @ 0x0
   330                           
   331  0070                     ___xxtofl@val:	
   332                           ; 2 bytes @ 0x0
   333                           
   334                           
   335                           ; 4 bytes @ 0x0
   336  0070                     	ds	1
   337  0071                     LCD_Cmd_Init@cmd:
   338                           
   339                           ; 1 bytes @ 0x1
   340  0071                     	ds	1
   341  0072                     ??__Umul8_16:
   342  0072                     LCD_Cmd@cmd:	
   343                           ; 1 bytes @ 0x2
   344                           
   345  0072                     LCD_Char@c:	
   346                           ; 1 bytes @ 0x2
   347                           
   348  0072                     ___lwdiv@dividend:	
   349                           ; 1 bytes @ 0x2
   350                           
   351                           
   352                           ; 2 bytes @ 0x2
   353  0072                     	ds	1
   354  0073                     ??_LCD_Init:
   355  0073                     ?_LCD_String:	
   356                           ; 1 bytes @ 0x3
   357                           
   358  0073                     LCD_String@str:	
   359                           ; 1 bytes @ 0x3
   360                           
   361                           
   362                           ; 2 bytes @ 0x3
   363  0073                     	ds	1
   364  0074                     ??___lwdiv:
   365  0074                     ??___xxtofl:	
   366                           ; 1 bytes @ 0x4
   367                           
   368  0074                     __Umul8_16@product:	
   369                           ; 1 bytes @ 0x4
   370                           
   371                           
   372                           ; 2 bytes @ 0x4
   373  0074                     	ds	1
   374  0075                     ??_LCD_String:
   375  0075                     ___lwdiv@quotient:	
   376                           ; 1 bytes @ 0x5
   377                           
   378                           
   379                           ; 2 bytes @ 0x5
   380  0075                     	ds	1
   381  0076                     LCD_String@i:
   382  0076                     __Umul8_16@word_mpld:	
   383                           ; 1 bytes @ 0x6
   384                           
   385                           
   386                           ; 2 bytes @ 0x6
   387  0076                     	ds	1
   388  0077                     ?_LCD_GotoCursor_String:
   389  0077                     LCD_GotoCursor_String@col:	
   390                           ; 1 bytes @ 0x7
   391                           
   392  0077                     ___lwdiv@counter:	
   393                           ; 1 bytes @ 0x7
   394                           
   395                           
   396                           ; 1 bytes @ 0x7
   397  0077                     	ds	1
   398  0078                     ?___lwmod:
   399  0078                     __Umul8_16@multiplier:	
   400                           ; 2 bytes @ 0x8
   401                           
   402  0078                     ___xxtofl@sign:	
   403                           ; 1 bytes @ 0x8
   404                           
   405  0078                     LCD_GotoCursor_String@str:	
   406                           ; 1 bytes @ 0x8
   407                           
   408  0078                     ___lwmod@divisor:	
   409                           ; 2 bytes @ 0x8
   410                           
   411                           
   412                           ; 2 bytes @ 0x8
   413  0078                     	ds	1
   414  0079                     ___xxtofl@exp:
   415                           
   416                           ; 1 bytes @ 0x9
   417  0079                     	ds	1
   418  007A                     ??_LCD_GotoCursor_String:
   419  007A                     ___lwmod@dividend:	
   420                           ; 1 bytes @ 0xA
   421                           
   422  007A                     ___xxtofl@arg:	
   423                           ; 2 bytes @ 0xA
   424                           
   425                           
   426                           ; 4 bytes @ 0xA
   427  007A                     	ds	2
   428  007C                     ??___lwmod:
   429                           
   430                           ; 1 bytes @ 0xC
   431  007C                     	ds	1
   432  007D                     ___lwmod@counter:
   433                           
   434                           ; 1 bytes @ 0xD
   435  007D                     	ds	1
   436                           
   437                           	psect	cstackBANK0
   438  0020                     __pcstackBANK0:
   439  0020                     ?_sprintf:
   440  0020                     ?___fldiv:	
   441                           ; 2 bytes @ 0x0
   442                           
   443  0020                     LCD_GotoCursor_String@row:	
   444                           ; 4 bytes @ 0x0
   445                           
   446  0020                     sprintf@f:	
   447                           ; 1 bytes @ 0x0
   448                           
   449  0020                     ___fldiv@a:	
   450                           ; 1 bytes @ 0x0
   451                           
   452                           
   453                           ; 4 bytes @ 0x0
   454  0020                     	ds	1
   455  0021                     _LCD_GotoCursor_String$202:
   456                           
   457                           ; 2 bytes @ 0x1
   458  0021                     	ds	2
   459  0023                     LCD_GotoCursor_String@cmd:
   460                           
   461                           ; 1 bytes @ 0x3
   462  0023                     	ds	1
   463  0024                     ___fldiv@b:
   464                           
   465                           ; 4 bytes @ 0x4
   466  0024                     	ds	1
   467  0025                     ??_sprintf:
   468                           
   469                           ; 1 bytes @ 0x5
   470  0025                     	ds	3
   471  0028                     ??___fldiv:
   472  0028                     sprintf@ap:	
   473                           ; 1 bytes @ 0x8
   474                           
   475                           
   476                           ; 1 bytes @ 0x8
   477  0028                     	ds	1
   478  0029                     sprintf@flag:
   479                           
   480                           ; 1 bytes @ 0x9
   481  0029                     	ds	1
   482  002A                     sprintf@prec:
   483                           
   484                           ; 1 bytes @ 0xA
   485  002A                     	ds	1
   486  002B                     sprintf@val:
   487                           
   488                           ; 2 bytes @ 0xB
   489  002B                     	ds	2
   490  002D                     sprintf@sp:
   491  002D                     ___fldiv@rem:	
   492                           ; 1 bytes @ 0xD
   493                           
   494                           
   495                           ; 4 bytes @ 0xD
   496  002D                     	ds	1
   497  002E                     sprintf@c:
   498                           
   499                           ; 1 bytes @ 0xE
   500  002E                     	ds	3
   501  0031                     ___fldiv@sign:
   502                           
   503                           ; 1 bytes @ 0x11
   504  0031                     	ds	1
   505  0032                     ___fldiv@new_exp:
   506                           
   507                           ; 2 bytes @ 0x12
   508  0032                     	ds	2
   509  0034                     ___fldiv@grs:
   510                           
   511                           ; 4 bytes @ 0x14
   512  0034                     	ds	4
   513  0038                     ___fldiv@bexp:
   514                           
   515                           ; 1 bytes @ 0x18
   516  0038                     	ds	1
   517  0039                     ___fldiv@aexp:
   518                           
   519                           ; 1 bytes @ 0x19
   520  0039                     	ds	1
   521  003A                     ?___flmul:
   522  003A                     ___flmul@b:	
   523                           ; 4 bytes @ 0x1A
   524                           
   525                           
   526                           ; 4 bytes @ 0x1A
   527  003A                     	ds	4
   528  003E                     ___flmul@a:
   529                           
   530                           ; 4 bytes @ 0x1E
   531  003E                     	ds	4
   532  0042                     ??___flmul:
   533                           
   534                           ; 1 bytes @ 0x22
   535  0042                     	ds	5
   536  0047                     ___flmul@sign:
   537                           
   538                           ; 1 bytes @ 0x27
   539  0047                     	ds	1
   540  0048                     ___flmul@grs:
   541                           
   542                           ; 4 bytes @ 0x28
   543  0048                     	ds	4
   544  004C                     ___flmul@aexp:
   545                           
   546                           ; 1 bytes @ 0x2C
   547  004C                     	ds	1
   548  004D                     ___flmul@bexp:
   549                           
   550                           ; 1 bytes @ 0x2D
   551  004D                     	ds	1
   552  004E                     ___flmul@prod:
   553                           
   554                           ; 4 bytes @ 0x2E
   555  004E                     	ds	4
   556  0052                     ___flmul@temp:
   557                           
   558                           ; 2 bytes @ 0x32
   559  0052                     	ds	2
   560  0054                     ?___fltol:
   561  0054                     ___fltol@f1:	
   562                           ; 4 bytes @ 0x34
   563                           
   564                           
   565                           ; 4 bytes @ 0x34
   566  0054                     	ds	4
   567  0058                     ??___fltol:
   568                           
   569                           ; 1 bytes @ 0x38
   570  0058                     	ds	5
   571  005D                     ___fltol@sign1:
   572                           
   573                           ; 1 bytes @ 0x3D
   574  005D                     	ds	1
   575  005E                     ___fltol@exp1:
   576                           
   577                           ; 1 bytes @ 0x3E
   578  005E                     	ds	1
   579  005F                     ??_main:
   580                           
   581                           ; 1 bytes @ 0x3F
   582  005F                     	ds	3
   583                           
   584                           	psect	maintext
   585  0167                     __pmaintext:	
   586 ;;
   587 ;;Main: autosize = 0, tempsize = 3, incstack = 0, save=0
   588 ;;
   589 ;; *************** function _main *****************
   590 ;; Defined at:
   591 ;;		line 140 in file "newmain.c"
   592 ;; Parameters:    Size  Location     Type
   593 ;;		None
   594 ;; Auto vars:     Size  Location     Type
   595 ;;  bufferf         6    6[BANK1 ] unsigned char [6]
   596 ;;  bufferT         6    0[BANK1 ] unsigned char [6]
   597 ;;  f               4   12[BANK1 ] long 
   598 ;;  T               2   18[BANK1 ] unsigned int 
   599 ;;  counter         2   16[BANK1 ] unsigned int 
   600 ;; Return value:  Size  Location     Type
   601 ;;                  1    wreg      void 
   602 ;; Registers used:
   603 ;;		wreg, fsr0l, fsr0h, status,2, status,0, btemp+1, pclath, cstack
   604 ;; Tracked objects:
   605 ;;		On entry : B00/0
   606 ;;		On exit  : 0/0
   607 ;;		Unchanged: 0/0
   608 ;; Data sizes:     COMMON   BANK0   BANK1   BANK3   BANK2
   609 ;;      Params:         0       0       0       0       0
   610 ;;      Locals:         0       0      20       0       0
   611 ;;      Temps:          0       3       0       0       0
   612 ;;      Totals:         0       3      20       0       0
   613 ;;Total ram usage:       23 bytes
   614 ;; Hardware stack levels required when called: 3
   615 ;; This function calls:
   616 ;;		_LCD_GotoCursor_String
   617 ;;		_LCD_Init
   618 ;;		_LCD_String
   619 ;;		___fldiv
   620 ;;		___flmul
   621 ;;		___fltol
   622 ;;		___lwdiv
   623 ;;		___xxtofl
   624 ;;		_sprintf
   625 ;; This function is called by:
   626 ;;		Startup code after reset
   627 ;; This function uses a non-reentrant model
   628 ;;
   629                           
   630                           
   631                           ;psect for function _main
   632  0167                     _main:
   633  0167                     l1947:	
   634                           ;incstack = 0
   635                           ; Regs used in _main: [wreg-fsr0h+status,2+status,0+btemp+1+pclath+cstack]
   636                           
   637                           
   638                           ;newmain.c: 142:     unsigned int counter, T;;newmain.c: 143:     long f;;newmain.c: 144
      +                          :     char bufferT[6];;newmain.c: 145:     char bufferf[6];;newmain.c: 146:     LCD_Init
      +                          ();
   639  0167  120A  158A  26C1  120A  118A  	fcall	_LCD_Init
   640  016C                     l1949:
   641                           
   642                           ;newmain.c: 147:     LCD_GotoCursor_String(1, 1, "T = ");
   643  016C  01F7               	clrf	LCD_GotoCursor_String@col
   644  016D  0AF7               	incf	LCD_GotoCursor_String@col,f
   645  016E  300B               	movlw	(low ((STR_1-__stringbase)| (0+32768)))& (0+255)
   646  016F  00F8               	movwf	LCD_GotoCursor_String@str
   647  0170  3080               	movlw	128
   648  0171  00F9               	movwf	LCD_GotoCursor_String@str+1
   649  0172  3001               	movlw	1
   650  0173  120A  158A  25E0  120A  118A  	fcall	_LCD_GotoCursor_String
   651  0178                     l1951:
   652                           
   653                           ;newmain.c: 148:     TRISDbits.TRISD0 = 1;
   654  0178  1683               	bsf	3,5	;RP0=1, select bank1
   655  0179  1303               	bcf	3,6	;RP1=0, select bank1
   656  017A  1408               	bsf	8,0	;volatile
   657  017B                     l1953:
   658                           
   659                           ;newmain.c: 150:     T1CONbits.TMR1CS = 0;
   660  017B  1283               	bcf	3,5	;RP0=0, select bank0
   661  017C  1303               	bcf	3,6	;RP1=0, select bank0
   662  017D  1090               	bcf	16,1	;volatile
   663  017E                     l1955:
   664                           
   665                           ;newmain.c: 151:     T1CONbits.T1CKPS1 = 0;
   666  017E  1290               	bcf	16,5	;volatile
   667  017F                     l1957:
   668                           
   669                           ;newmain.c: 152:     T1CONbits.T1CKPS0 = 0;
   670  017F  1210               	bcf	16,4	;volatile
   671  0180                     l1959:
   672                           
   673                           ;newmain.c: 155:     {;newmain.c: 156:         TMR1H = TMR1L = 0;
   674  0180  1283               	bcf	3,5	;RP0=0, select bank0
   675  0181  1303               	bcf	3,6	;RP1=0, select bank0
   676  0182  018E               	clrf	14	;volatile
   677  0183  018F               	clrf	15	;volatile
   678  0184                     l69:	
   679                           ;newmain.c: 157:         while(PORTDbits.RD0 == 1);
   680                           
   681  0184  1808               	btfsc	8,0	;volatile
   682  0185  2987               	goto	u2461
   683  0186  2988               	goto	u2460
   684  0187                     u2461:
   685  0187  2984               	goto	l69
   686  0188                     u2460:
   687  0188                     l72:
   688  0188  1C08               	btfss	8,0	;volatile
   689  0189  298B               	goto	u2471
   690  018A  298C               	goto	u2470
   691  018B                     u2471:
   692  018B  2988               	goto	l72
   693  018C                     u2470:
   694  018C                     l74:
   695                           
   696                           ;newmain.c: 159:         T1CONbits.TMR1ON = 1;
   697  018C  1410               	bsf	16,0	;volatile
   698  018D                     l75:	
   699                           ;newmain.c: 160:         while(PORTDbits.RD0 == 1);
   700                           
   701  018D  1808               	btfsc	8,0	;volatile
   702  018E  2990               	goto	u2481
   703  018F  2991               	goto	u2480
   704  0190                     u2481:
   705  0190  298D               	goto	l75
   706  0191                     u2480:
   707  0191                     l78:
   708  0191  1C08               	btfss	8,0	;volatile
   709  0192  2994               	goto	u2491
   710  0193  2995               	goto	u2490
   711  0194                     u2491:
   712  0194  2991               	goto	l78
   713  0195                     u2490:
   714  0195                     l80:
   715                           
   716                           ;newmain.c: 162:         T1CONbits.TMR1ON = 0;
   717  0195  1010               	bcf	16,0	;volatile
   718  0196                     l1961:
   719                           
   720                           ;newmain.c: 163:         counter = TMR1H;
   721  0196  080F               	movf	15,w	;volatile
   722  0197  00DF               	movwf	??_main
   723  0198  01E0               	clrf	??_main+1
   724  0199  085F               	movf	??_main,w
   725  019A  1683               	bsf	3,5	;RP0=1, select bank1
   726  019B  1303               	bcf	3,6	;RP1=0, select bank1
   727  019C  00B0               	movwf	main@counter^(0+128)
   728  019D  1283               	bcf	3,5	;RP0=0, select bank0
   729  019E  1303               	bcf	3,6	;RP1=0, select bank0
   730  019F  0860               	movf	??_main+1,w
   731  01A0  1683               	bsf	3,5	;RP0=1, select bank1
   732  01A1  1303               	bcf	3,6	;RP1=0, select bank1
   733  01A2  00B1               	movwf	(main@counter+1)^(0+128)
   734                           
   735                           ;newmain.c: 164:         counter <<= 8;
   736  01A3  3008               	movlw	8
   737  01A4                     u2505:
   738  01A4  1003               	clrc
   739  01A5  0DB0               	rlf	main@counter^(0+128),f
   740  01A6  0DB1               	rlf	(main@counter+1)^(0+128),f
   741  01A7  3EFF               	addlw	-1
   742  01A8  1D03               	skipz
   743  01A9  29A4               	goto	u2505
   744                           
   745                           ;newmain.c: 165:         counter |= TMR1L;
   746  01AA  1283               	bcf	3,5	;RP0=0, select bank0
   747  01AB  1303               	bcf	3,6	;RP1=0, select bank0
   748  01AC  080E               	movf	14,w	;volatile
   749  01AD  00DF               	movwf	??_main
   750  01AE  01E0               	clrf	??_main+1
   751  01AF  085F               	movf	??_main,w
   752  01B0  1683               	bsf	3,5	;RP0=1, select bank1
   753  01B1  1303               	bcf	3,6	;RP1=0, select bank1
   754  01B2  04B0               	iorwf	main@counter^(0+128),f
   755  01B3  1283               	bcf	3,5	;RP0=0, select bank0
   756  01B4  1303               	bcf	3,6	;RP1=0, select bank0
   757  01B5  0860               	movf	??_main+1,w
   758  01B6  1683               	bsf	3,5	;RP0=1, select bank1
   759  01B7  1303               	bcf	3,6	;RP1=0, select bank1
   760  01B8  04B1               	iorwf	(main@counter+1)^(0+128),f
   761  01B9                     l1963:
   762                           
   763                           ;newmain.c: 167:         T = counter/5;
   764  01B9  3005               	movlw	5
   765  01BA  00F0               	movwf	___lwdiv@divisor
   766  01BB  3000               	movlw	0
   767  01BC  00F1               	movwf	___lwdiv@divisor+1
   768  01BD  0831               	movf	(main@counter+1)^(0+128),w
   769  01BE  00F3               	movwf	___lwdiv@dividend+1
   770  01BF  0830               	movf	main@counter^(0+128),w
   771  01C0  00F2               	movwf	___lwdiv@dividend
   772  01C1  120A  158A  2702  120A  118A  	fcall	___lwdiv
   773  01C6  0871               	movf	?___lwdiv+1,w
   774  01C7  1683               	bsf	3,5	;RP0=1, select bank1
   775  01C8  1303               	bcf	3,6	;RP1=0, select bank1
   776  01C9  00B3               	movwf	(main@T+1)^(0+128)
   777  01CA  0870               	movf	?___lwdiv,w
   778  01CB  00B2               	movwf	main@T^(0+128)
   779  01CC                     l1965:
   780                           
   781                           ;newmain.c: 168:         sprintf(bufferT, "%d", T);
   782  01CC  301D               	movlw	(low ((STR_2-__stringbase)| (0+32768)))& (0+255)
   783  01CD  1283               	bcf	3,5	;RP0=0, select bank0
   784  01CE  1303               	bcf	3,6	;RP1=0, select bank0
   785  01CF  00DF               	movwf	??_main
   786  01D0  085F               	movf	??_main,w
   787  01D1  00A0               	movwf	sprintf@f
   788  01D2  1683               	bsf	3,5	;RP0=1, select bank1
   789  01D3  1303               	bcf	3,6	;RP1=0, select bank1
   790  01D4  0833               	movf	(main@T+1)^(0+128),w
   791  01D5  1283               	bcf	3,5	;RP0=0, select bank0
   792  01D6  1303               	bcf	3,6	;RP1=0, select bank0
   793  01D7  00A2               	movwf	?_sprintf+2
   794  01D8  1683               	bsf	3,5	;RP0=1, select bank1
   795  01D9  1303               	bcf	3,6	;RP1=0, select bank1
   796  01DA  0832               	movf	main@T^(0+128),w
   797  01DB  1283               	bcf	3,5	;RP0=0, select bank0
   798  01DC  1303               	bcf	3,6	;RP1=0, select bank0
   799  01DD  00A1               	movwf	?_sprintf+1
   800  01DE  30A0               	movlw	(low (main@bufferT| 0))& (0+255)
   801  01DF  120A  118A  207F  120A  118A  	fcall	_sprintf
   802  01E4                     l1967:
   803                           
   804                           ;newmain.c: 169:         LCD_GotoCursor_String(1, 5, bufferT);
   805  01E4  3005               	movlw	5
   806  01E5  1283               	bcf	3,5	;RP0=0, select bank0
   807  01E6  1303               	bcf	3,6	;RP1=0, select bank0
   808  01E7  00DF               	movwf	??_main
   809  01E8  085F               	movf	??_main,w
   810  01E9  00F7               	movwf	LCD_GotoCursor_String@col
   811  01EA  30A0               	movlw	(low (main@bufferT| 0))& (0+255)
   812  01EB  00F8               	movwf	LCD_GotoCursor_String@str
   813  01EC  3000               	movlw	0
   814  01ED  00F9               	movwf	LCD_GotoCursor_String@str+1
   815  01EE  3001               	movlw	1
   816  01EF  120A  158A  25E0  120A  118A  	fcall	_LCD_GotoCursor_String
   817  01F4                     l1969:
   818                           
   819                           ;newmain.c: 170:         LCD_String("us ");
   820  01F4  3015               	movlw	(low ((STR_3-__stringbase)| (0+32768)))& (0+255)
   821  01F5  00F3               	movwf	LCD_String@str
   822  01F6  3080               	movlw	128
   823  01F7  00F4               	movwf	LCD_String@str+1
   824  01F8  120A  158A  262E  120A  118A  	fcall	_LCD_String
   825  01FD                     l1971:
   826                           
   827                           ;newmain.c: 172:         f = (1.0/T)*1000000;
   828  01FD  303F               	movlw	63
   829  01FE  1283               	bcf	3,5	;RP0=0, select bank0
   830  01FF  1303               	bcf	3,6	;RP1=0, select bank0
   831  0200  00A7               	movwf	___fldiv@b+3
   832  0201  3080               	movlw	128
   833  0202  00A6               	movwf	___fldiv@b+2
   834  0203  3000               	movlw	0
   835  0204  00A5               	movwf	___fldiv@b+1
   836  0205  3000               	movlw	0
   837  0206  00A4               	movwf	___fldiv@b
   838  0207  1683               	bsf	3,5	;RP0=1, select bank1
   839  0208  1303               	bcf	3,6	;RP1=0, select bank1
   840  0209  0832               	movf	main@T^(0+128),w
   841  020A  00F0               	movwf	___xxtofl@val
   842  020B  0833               	movf	(main@T+1)^(0+128),w
   843  020C  00F1               	movwf	___xxtofl@val+1
   844  020D  01F2               	clrf	___xxtofl@val+2
   845  020E  01F3               	clrf	___xxtofl@val+3
   846  020F  3000               	movlw	0
   847  0210  120A  158A  2746  120A  118A  	fcall	___xxtofl
   848  0215  0873               	movf	?___xxtofl+3,w
   849  0216  1283               	bcf	3,5	;RP0=0, select bank0
   850  0217  1303               	bcf	3,6	;RP1=0, select bank0
   851  0218  00A3               	movwf	___fldiv@a+3
   852  0219  0872               	movf	?___xxtofl+2,w
   853  021A  00A2               	movwf	___fldiv@a+2
   854  021B  0871               	movf	?___xxtofl+1,w
   855  021C  00A1               	movwf	___fldiv@a+1
   856  021D  0870               	movf	?___xxtofl,w
   857  021E  00A0               	movwf	___fldiv@a
   858  021F  120A  118A  22BE  120A  118A  	fcall	___fldiv
   859  0224  1283               	bcf	3,5	;RP0=0, select bank0
   860  0225  1303               	bcf	3,6	;RP1=0, select bank0
   861  0226  0823               	movf	?___fldiv+3,w
   862  0227  00C1               	movwf	___flmul@a+3
   863  0228  0822               	movf	?___fldiv+2,w
   864  0229  00C0               	movwf	___flmul@a+2
   865  022A  0821               	movf	?___fldiv+1,w
   866  022B  00BF               	movwf	___flmul@a+1
   867  022C  0820               	movf	?___fldiv,w
   868  022D  00BE               	movwf	___flmul@a
   869  022E  3049               	movlw	73
   870  022F  00BD               	movwf	___flmul@b+3
   871  0230  3074               	movlw	116
   872  0231  00BC               	movwf	___flmul@b+2
   873  0232  3024               	movlw	36
   874  0233  00BB               	movwf	___flmul@b+1
   875  0234  3000               	movlw	0
   876  0235  00BA               	movwf	___flmul@b
   877  0236  120A  118A  249B  120A  118A  	fcall	___flmul
   878  023B  1283               	bcf	3,5	;RP0=0, select bank0
   879  023C  1303               	bcf	3,6	;RP1=0, select bank0
   880  023D  083D               	movf	?___flmul+3,w
   881  023E  00D7               	movwf	___fltol@f1+3
   882  023F  083C               	movf	?___flmul+2,w
   883  0240  00D6               	movwf	___fltol@f1+2
   884  0241  083B               	movf	?___flmul+1,w
   885  0242  00D5               	movwf	___fltol@f1+1
   886  0243  083A               	movf	?___flmul,w
   887  0244  00D4               	movwf	___fltol@f1
   888  0245  120A  118A  2003  120A  118A  	fcall	___fltol
   889  024A  1283               	bcf	3,5	;RP0=0, select bank0
   890  024B  1303               	bcf	3,6	;RP1=0, select bank0
   891  024C  0857               	movf	?___fltol+3,w
   892  024D  1683               	bsf	3,5	;RP0=1, select bank1
   893  024E  1303               	bcf	3,6	;RP1=0, select bank1
   894  024F  00AF               	movwf	(main@f+3)^(0+128)
   895  0250  1283               	bcf	3,5	;RP0=0, select bank0
   896  0251  1303               	bcf	3,6	;RP1=0, select bank0
   897  0252  0856               	movf	?___fltol+2,w
   898  0253  1683               	bsf	3,5	;RP0=1, select bank1
   899  0254  1303               	bcf	3,6	;RP1=0, select bank1
   900  0255  00AE               	movwf	(main@f+2)^(0+128)
   901  0256  1283               	bcf	3,5	;RP0=0, select bank0
   902  0257  1303               	bcf	3,6	;RP1=0, select bank0
   903  0258  0855               	movf	?___fltol+1,w
   904  0259  1683               	bsf	3,5	;RP0=1, select bank1
   905  025A  1303               	bcf	3,6	;RP1=0, select bank1
   906  025B  00AD               	movwf	(main@f+1)^(0+128)
   907  025C  1283               	bcf	3,5	;RP0=0, select bank0
   908  025D  1303               	bcf	3,6	;RP1=0, select bank0
   909  025E  0854               	movf	?___fltol,w
   910  025F  1683               	bsf	3,5	;RP0=1, select bank1
   911  0260  1303               	bcf	3,6	;RP1=0, select bank1
   912  0261  00AC               	movwf	main@f^(0+128)
   913  0262                     l1973:
   914                           
   915                           ;newmain.c: 173:         LCD_GotoCursor_String(2, 1, "f = ");
   916  0262  01F7               	clrf	LCD_GotoCursor_String@col
   917  0263  0AF7               	incf	LCD_GotoCursor_String@col,f
   918  0264  3010               	movlw	(low ((STR_4-__stringbase)| (0+32768)))& (0+255)
   919  0265  00F8               	movwf	LCD_GotoCursor_String@str
   920  0266  3080               	movlw	128
   921  0267  00F9               	movwf	LCD_GotoCursor_String@str+1
   922  0268  3002               	movlw	2
   923  0269  120A  158A  25E0  120A  118A  	fcall	_LCD_GotoCursor_String
   924  026E                     l1975:
   925                           
   926                           ;newmain.c: 174:         sprintf(bufferf, "%d", f);
   927  026E  301D               	movlw	(low ((STR_2-__stringbase)| (0+32768)))& (0+255)
   928  026F  1283               	bcf	3,5	;RP0=0, select bank0
   929  0270  1303               	bcf	3,6	;RP1=0, select bank0
   930  0271  00DF               	movwf	??_main
   931  0272  085F               	movf	??_main,w
   932  0273  00A0               	movwf	sprintf@f
   933  0274  1683               	bsf	3,5	;RP0=1, select bank1
   934  0275  1303               	bcf	3,6	;RP1=0, select bank1
   935  0276  082F               	movf	(main@f+3)^(0+128),w
   936  0277  1283               	bcf	3,5	;RP0=0, select bank0
   937  0278  1303               	bcf	3,6	;RP1=0, select bank0
   938  0279  00A4               	movwf	?_sprintf+4
   939  027A  1683               	bsf	3,5	;RP0=1, select bank1
   940  027B  1303               	bcf	3,6	;RP1=0, select bank1
   941  027C  082E               	movf	(main@f+2)^(0+128),w
   942  027D  1283               	bcf	3,5	;RP0=0, select bank0
   943  027E  1303               	bcf	3,6	;RP1=0, select bank0
   944  027F  00A3               	movwf	?_sprintf+3
   945  0280  1683               	bsf	3,5	;RP0=1, select bank1
   946  0281  1303               	bcf	3,6	;RP1=0, select bank1
   947  0282  082D               	movf	(main@f+1)^(0+128),w
   948  0283  1283               	bcf	3,5	;RP0=0, select bank0
   949  0284  1303               	bcf	3,6	;RP1=0, select bank0
   950  0285  00A2               	movwf	?_sprintf+2
   951  0286  1683               	bsf	3,5	;RP0=1, select bank1
   952  0287  1303               	bcf	3,6	;RP1=0, select bank1
   953  0288  082C               	movf	main@f^(0+128),w
   954  0289  1283               	bcf	3,5	;RP0=0, select bank0
   955  028A  1303               	bcf	3,6	;RP1=0, select bank0
   956  028B  00A1               	movwf	?_sprintf+1
   957  028C  30A6               	movlw	(low (main@bufferf| 0))& (0+255)
   958  028D  120A  118A  207F  120A  118A  	fcall	_sprintf
   959  0292                     l1977:
   960                           
   961                           ;newmain.c: 175:         LCD_GotoCursor_String(2, 5, bufferf);
   962  0292  3005               	movlw	5
   963  0293  1283               	bcf	3,5	;RP0=0, select bank0
   964  0294  1303               	bcf	3,6	;RP1=0, select bank0
   965  0295  00DF               	movwf	??_main
   966  0296  085F               	movf	??_main,w
   967  0297  00F7               	movwf	LCD_GotoCursor_String@col
   968  0298  30A6               	movlw	(low (main@bufferf| 0))& (0+255)
   969  0299  00F8               	movwf	LCD_GotoCursor_String@str
   970  029A  3000               	movlw	0
   971  029B  00F9               	movwf	LCD_GotoCursor_String@str+1
   972  029C  3002               	movlw	2
   973  029D  120A  158A  25E0  120A  118A  	fcall	_LCD_GotoCursor_String
   974  02A2                     l1979:
   975                           
   976                           ;newmain.c: 176:         LCD_String("Hz ");
   977  02A2  3019               	movlw	(low ((STR_6-__stringbase)| (0+32768)))& (0+255)
   978  02A3  00F3               	movwf	LCD_String@str
   979  02A4  3080               	movlw	128
   980  02A5  00F4               	movwf	LCD_String@str+1
   981  02A6  120A  158A  262E  120A  118A  	fcall	_LCD_String
   982  02AB                     l1981:
   983                           
   984                           ;newmain.c: 178:         _delay((unsigned long)((1000)*(20000000/4000.0)));
   985  02AB  301A               	movlw	26
   986  02AC  1283               	bcf	3,5	;RP0=0, select bank0
   987  02AD  1303               	bcf	3,6	;RP1=0, select bank0
   988  02AE  00E1               	movwf	??_main+2
   989  02AF  305E               	movlw	94
   990  02B0  00E0               	movwf	??_main+1
   991  02B1  306D               	movlw	109
   992  02B2  00DF               	movwf	??_main
   993  02B3                     u2517:
   994  02B3  0BDF               	decfsz	??_main,f
   995  02B4  2AB3               	goto	u2517
   996  02B5  0BE0               	decfsz	??_main+1,f
   997  02B6  2AB3               	goto	u2517
   998  02B7  0BE1               	decfsz	??_main+2,f
   999  02B8  2AB3               	goto	u2517
  1000  02B9  2ABA               	nop2
  1001  02BA  2980               	goto	l1959
  1002  02BB  120A  118A  2800   	ljmp	start
  1003  02BE                     __end_of_main:
  1004                           
  1005                           	psect	text1
  1006  007F                     __ptext1:	
  1007 ;; *************** function _sprintf *****************
  1008 ;; Defined at:
  1009 ;;		line 505 in file "D:\File Install MBLAB IDE\XC8\pic\sources\c90\common\doprnt.c"
  1010 ;; Parameters:    Size  Location     Type
  1011 ;;  sp              1    wreg     PTR unsigned char 
  1012 ;;		 -> main@bufferf(6), main@bufferT(6), 
  1013 ;;  f               1    0[BANK0 ] PTR const unsigned char 
  1014 ;;		 -> STR_5(3), STR_2(3), 
  1015 ;; Auto vars:     Size  Location     Type
  1016 ;;  sp              1   13[BANK0 ] PTR unsigned char 
  1017 ;;		 -> main@bufferf(6), main@bufferT(6), 
  1018 ;;  tmpval          4    0        struct .
  1019 ;;  val             2   11[BANK0 ] unsigned int 
  1020 ;;  cp              2    0        PTR const unsigned char 
  1021 ;;  len             2    0        unsigned int 
  1022 ;;  c               1   14[BANK0 ] unsigned char 
  1023 ;;  prec            1   10[BANK0 ] char 
  1024 ;;  flag            1    9[BANK0 ] unsigned char 
  1025 ;;  ap              1    8[BANK0 ] PTR void [1]
  1026 ;;		 -> ?_sprintf(2), 
  1027 ;; Return value:  Size  Location     Type
  1028 ;;                  2    0[BANK0 ] int 
  1029 ;; Registers used:
  1030 ;;		wreg, fsr0l, fsr0h, status,2, status,0, btemp+1, pclath, cstack
  1031 ;; Tracked objects:
  1032 ;;		On entry : 0/0
  1033 ;;		On exit  : 0/0
  1034 ;;		Unchanged: 0/0
  1035 ;; Data sizes:     COMMON   BANK0   BANK1   BANK3   BANK2
  1036 ;;      Params:         0       5       0       0       0
  1037 ;;      Locals:         0       7       0       0       0
  1038 ;;      Temps:          0       3       0       0       0
  1039 ;;      Totals:         0      15       0       0       0
  1040 ;;Total ram usage:       15 bytes
  1041 ;; Hardware stack levels used: 1
  1042 ;; Hardware stack levels required when called: 1
  1043 ;; This function calls:
  1044 ;;		___lwdiv
  1045 ;;		___lwmod
  1046 ;; This function is called by:
  1047 ;;		_main
  1048 ;; This function uses a non-reentrant model
  1049 ;;
  1050                           
  1051                           
  1052                           ;psect for function _sprintf
  1053  007F                     _sprintf:
  1054                           
  1055                           ;incstack = 0
  1056                           ; Regs used in _sprintf: [wreg-fsr0h+status,2+status,0+btemp+1+pclath+cstack]
  1057                           ;sprintf@sp stored from wreg
  1058  007F  1283               	bcf	3,5	;RP0=0, select bank0
  1059  0080  1303               	bcf	3,6	;RP1=0, select bank0
  1060  0081  00AD               	movwf	sprintf@sp
  1061  0082                     l1501:
  1062                           
  1063                           ;D:\File Install MBLAB IDE\XC8\pic\sources\c90\common\doprnt.c: 505: sprintf(char * sp, 
      +                          const char * f, ...);D:\File Install MBLAB IDE\XC8\pic\sources\c90\common\doprnt.c: 506:
      +                           {;D:\File Install MBLAB IDE\XC8\pic\sources\c90\common\doprnt.c: 507:  va_list ap;;D:\F
      +                          ile Install MBLAB IDE\XC8\pic\sources\c90\common\doprnt.c: 512:  char c;;D:\File Install
      +                           MBLAB IDE\XC8\pic\sources\c90\common\doprnt.c: 521:  signed char prec;;D:\File Install 
      +                          MBLAB IDE\XC8\pic\sources\c90\common\doprnt.c: 525:  unsigned char flag;
  1064  0082  3021               	movlw	(low ((?_sprintf| 0+1)))& (0+255)
  1065  0083  00A5               	movwf	??_sprintf
  1066  0084  0825               	movf	??_sprintf,w
  1067  0085  00A8               	movwf	sprintf@ap
  1068                           
  1069                           ;D:\File Install MBLAB IDE\XC8\pic\sources\c90\common\doprnt.c: 553:  while((c = *f++)) 
      +                          {
  1070  0086  2950               	goto	l1553
  1071  0087                     l1503:
  1072                           
  1073                           ;D:\File Install MBLAB IDE\XC8\pic\sources\c90\common\doprnt.c: 555:   if(c != '%')
  1074  0087  3025               	movlw	37
  1075  0088  062E               	xorwf	sprintf@c,w
  1076  0089  1903               	btfsc	3,2
  1077  008A  288C               	goto	u1471
  1078  008B  288D               	goto	u1470
  1079  008C                     u1471:
  1080  008C  2899               	goto	l1509
  1081  008D                     u1470:
  1082  008D                     l1505:
  1083                           
  1084                           ;D:\File Install MBLAB IDE\XC8\pic\sources\c90\common\doprnt.c: 557:   {;D:\File Install
      +                           MBLAB IDE\XC8\pic\sources\c90\common\doprnt.c: 558:    ((*sp++ = (c)));
  1085  008D  082E               	movf	sprintf@c,w
  1086  008E  00A5               	movwf	??_sprintf
  1087  008F  082D               	movf	sprintf@sp,w
  1088  0090  0084               	movwf	4
  1089  0091  0825               	movf	??_sprintf,w
  1090  0092  1383               	bcf	3,7	;select IRP bank0
  1091  0093  0080               	movwf	0
  1092  0094                     l1507:
  1093  0094  3001               	movlw	1
  1094  0095  00A5               	movwf	??_sprintf
  1095  0096  0825               	movf	??_sprintf,w
  1096  0097  07AD               	addwf	sprintf@sp,f
  1097                           
  1098                           ;D:\File Install MBLAB IDE\XC8\pic\sources\c90\common\doprnt.c: 559:    continue;
  1099  0098  2950               	goto	l1553
  1100  0099                     l1509:
  1101                           
  1102                           ;D:\File Install MBLAB IDE\XC8\pic\sources\c90\common\doprnt.c: 565:   flag = 0;
  1103  0099  01A9               	clrf	sprintf@flag
  1104  009A                     l1513:	
  1105                           ;D:\File Install MBLAB IDE\XC8\pic\sources\c90\common\doprnt.c: 661:   switch(c = *f++) 
      +                          {
  1106                           
  1107  009A  3001               	movlw	1
  1108  009B  07A0               	addwf	sprintf@f,f
  1109  009C  30FF               	movlw	-1
  1110  009D  0720               	addwf	sprintf@f,w
  1111  009E  0084               	movwf	4
  1112  009F  120A  158A  200A  120A  118A  	fcall	stringdir
  1113  00A4  00AE               	movwf	sprintf@c
  1114  00A5  00A5               	movwf	??_sprintf
  1115  00A6  01A6               	clrf	??_sprintf+1
  1116                           
  1117                           ; Switch on 2 bytes has been partitioned into a top level switch of size 1, and 1 sub-sw
      +                          itches
  1118                           ; Switch size 1, requested type "simple"
  1119                           ; Number of cases is 1, Range of values is 0 to 0
  1120                           ; switch strategies available:
  1121                           ; Name         Instructions Cycles
  1122                           ; simple_byte            4     3 (average)
  1123                           ; direct_byte           11     8 (fixed)
  1124                           ; jumptable            260     6 (fixed)
  1125                           ;	Chosen strategy is simple_byte
  1126  00A7  0826               	movf	??_sprintf+1,w
  1127  00A8  3A00               	xorlw	0	; case 0
  1128  00A9  1903               	skipnz
  1129  00AA  28AC               	goto	l2003
  1130  00AB  2950               	goto	l1553
  1131  00AC                     l2003:
  1132                           
  1133                           ; Switch size 1, requested type "simple"
  1134                           ; Number of cases is 3, Range of values is 0 to 105
  1135                           ; switch strategies available:
  1136                           ; Name         Instructions Cycles
  1137                           ; simple_byte           10     6 (average)
  1138                           ; jumptable            260     6 (fixed)
  1139                           ;	Chosen strategy is simple_byte
  1140  00AC  0825               	movf	??_sprintf,w
  1141  00AD  3A00               	xorlw	0	; case 0
  1142  00AE  1903               	skipnz
  1143  00AF  2962               	goto	l1555
  1144  00B0  3A64               	xorlw	100	; case 100
  1145  00B1  1903               	skipnz
  1146  00B2  28B7               	goto	l1515
  1147  00B3  3A0D               	xorlw	13	; case 105
  1148  00B4  1903               	skipnz
  1149  00B5  28B7               	goto	l1515
  1150  00B6  2950               	goto	l1553
  1151  00B7                     l1515:
  1152                           
  1153                           ;D:\File Install MBLAB IDE\XC8\pic\sources\c90\common\doprnt.c: 1279:   {;D:\File Instal
      +                          l MBLAB IDE\XC8\pic\sources\c90\common\doprnt.c: 1285:     val = (unsigned int)(*(int *)
      +                          __va_arg((*(int **)ap), (int)0));
  1154  00B7  0828               	movf	sprintf@ap,w
  1155  00B8  0084               	movwf	4
  1156  00B9  1383               	bcf	3,7	;select IRP bank0
  1157  00BA  0800               	movf	0,w
  1158  00BB  00AB               	movwf	sprintf@val
  1159  00BC  0A84               	incf	4,f
  1160  00BD  0800               	movf	0,w
  1161  00BE  00AC               	movwf	sprintf@val+1
  1162  00BF                     l1517:
  1163  00BF  3002               	movlw	2
  1164  00C0  00A5               	movwf	??_sprintf
  1165  00C1  0825               	movf	??_sprintf,w
  1166  00C2  07A8               	addwf	sprintf@ap,f
  1167  00C3                     l1519:
  1168                           
  1169                           ;D:\File Install MBLAB IDE\XC8\pic\sources\c90\common\doprnt.c: 1287:    if((int)val < 0
      +                          ) {
  1170  00C3  1FAC               	btfss	sprintf@val+1,7
  1171  00C4  28C6               	goto	u1481
  1172  00C5  28C7               	goto	u1480
  1173  00C6                     u1481:
  1174  00C6  28D0               	goto	l1525
  1175  00C7                     u1480:
  1176  00C7                     l1521:
  1177                           
  1178                           ;D:\File Install MBLAB IDE\XC8\pic\sources\c90\common\doprnt.c: 1288:     flag |= 0x03;
  1179  00C7  3003               	movlw	3
  1180  00C8  00A5               	movwf	??_sprintf
  1181  00C9  0825               	movf	??_sprintf,w
  1182  00CA  04A9               	iorwf	sprintf@flag,f
  1183  00CB                     l1523:
  1184                           
  1185                           ;D:\File Install MBLAB IDE\XC8\pic\sources\c90\common\doprnt.c: 1289:     val = -val;
  1186  00CB  09AB               	comf	sprintf@val,f
  1187  00CC  09AC               	comf	sprintf@val+1,f
  1188  00CD  0AAB               	incf	sprintf@val,f
  1189  00CE  1903               	skipnz
  1190  00CF  0AAC               	incf	sprintf@val+1,f
  1191  00D0                     l1525:
  1192                           
  1193                           ;D:\File Install MBLAB IDE\XC8\pic\sources\c90\common\doprnt.c: 1292:   };D:\File Instal
      +                          l MBLAB IDE\XC8\pic\sources\c90\common\doprnt.c: 1331:    for(c = 1 ; c != sizeof dpower
      +                          s/sizeof dpowers[0] ; c++)
  1194  00D0  01AE               	clrf	sprintf@c
  1195  00D1  0AAE               	incf	sprintf@c,f
  1196  00D2                     l1531:
  1197                           
  1198                           ;D:\File Install MBLAB IDE\XC8\pic\sources\c90\common\doprnt.c: 1332:     if(val < dpowe
      +                          rs[c])
  1199  00D2  082E               	movf	sprintf@c,w
  1200  00D3  00A5               	movwf	??_sprintf
  1201  00D4  0725               	addwf	??_sprintf,w
  1202  00D5  3E01               	addlw	low ((_dpowers-__stringbase)| (0+32768))
  1203  00D6  0084               	movwf	4
  1204  00D7  120A  158A  200A  120A  118A  	fcall	stringdir
  1205  00DC  00A6               	movwf	??_sprintf+1
  1206  00DD  120A  158A  200A  120A  118A  	fcall	stringdir
  1207  00E2  00A7               	movwf	??_sprintf+2
  1208  00E3  0827               	movf	??_sprintf+2,w
  1209  00E4  022C               	subwf	sprintf@val+1,w
  1210  00E5  1D03               	skipz
  1211  00E6  28E9               	goto	u1495
  1212  00E7  0826               	movf	??_sprintf+1,w
  1213  00E8  022B               	subwf	sprintf@val,w
  1214  00E9                     u1495:
  1215  00E9  1803               	skipnc
  1216  00EA  28EC               	goto	u1491
  1217  00EB  28ED               	goto	u1490
  1218  00EC                     u1491:
  1219  00EC  28EE               	goto	l1535
  1220  00ED                     u1490:
  1221  00ED  28F8               	goto	l1537
  1222  00EE                     l1535:
  1223  00EE  3001               	movlw	1
  1224  00EF  00A5               	movwf	??_sprintf
  1225  00F0  0825               	movf	??_sprintf,w
  1226  00F1  07AE               	addwf	sprintf@c,f
  1227  00F2  3005               	movlw	5
  1228  00F3  062E               	xorwf	sprintf@c,w
  1229  00F4  1D03               	btfss	3,2
  1230  00F5  28F7               	goto	u1501
  1231  00F6  28F8               	goto	u1500
  1232  00F7                     u1501:
  1233  00F7  28D2               	goto	l1531
  1234  00F8                     u1500:
  1235  00F8                     l1537:
  1236                           
  1237                           ;D:\File Install MBLAB IDE\XC8\pic\sources\c90\common\doprnt.c: 1448:   {;D:\File Instal
      +                          l MBLAB IDE\XC8\pic\sources\c90\common\doprnt.c: 1464:    if(flag & 0x03)
  1238  00F8  0829               	movf	sprintf@flag,w
  1239  00F9  3903               	andlw	3
  1240  00FA  1903               	btfsc	3,2
  1241  00FB  28FD               	goto	u1511
  1242  00FC  28FE               	goto	u1510
  1243  00FD                     u1511:
  1244  00FD  2909               	goto	l1543
  1245  00FE                     u1510:
  1246  00FE                     l1539:
  1247                           
  1248                           ;D:\File Install MBLAB IDE\XC8\pic\sources\c90\common\doprnt.c: 1465:     ((*sp++ = ('-'
      +                          )));
  1249  00FE  302D               	movlw	45
  1250  00FF  00A5               	movwf	??_sprintf
  1251  0100  082D               	movf	sprintf@sp,w
  1252  0101  0084               	movwf	4
  1253  0102  0825               	movf	??_sprintf,w
  1254  0103  1383               	bcf	3,7	;select IRP bank0
  1255  0104  0080               	movwf	0
  1256  0105                     l1541:
  1257  0105  3001               	movlw	1
  1258  0106  00A5               	movwf	??_sprintf
  1259  0107  0825               	movf	??_sprintf,w
  1260  0108  07AD               	addwf	sprintf@sp,f
  1261  0109                     l1543:
  1262                           
  1263                           ;D:\File Install MBLAB IDE\XC8\pic\sources\c90\common\doprnt.c: 1495:   };D:\File Instal
      +                          l MBLAB IDE\XC8\pic\sources\c90\common\doprnt.c: 1498:   prec = c;
  1264  0109  082E               	movf	sprintf@c,w
  1265  010A  00A5               	movwf	??_sprintf
  1266  010B  0825               	movf	??_sprintf,w
  1267  010C  00AA               	movwf	sprintf@prec
  1268                           
  1269                           ;D:\File Install MBLAB IDE\XC8\pic\sources\c90\common\doprnt.c: 1500:   while(prec--) {
  1270  010D  2947               	goto	l1551
  1271  010E                     l1545:
  1272                           
  1273                           ;D:\File Install MBLAB IDE\XC8\pic\sources\c90\common\doprnt.c: 1504:    {;D:\File Insta
      +                          ll MBLAB IDE\XC8\pic\sources\c90\common\doprnt.c: 1515:     c = (val / dpowers[(unsigned
      +                           char)prec]) % 10 + '0';
  1274  010E  300A               	movlw	10
  1275  010F  00F8               	movwf	___lwmod@divisor
  1276  0110  3000               	movlw	0
  1277  0111  00F9               	movwf	___lwmod@divisor+1
  1278  0112  082A               	movf	sprintf@prec,w
  1279  0113  00A5               	movwf	??_sprintf
  1280  0114  0725               	addwf	??_sprintf,w
  1281  0115  3E01               	addlw	low ((_dpowers-__stringbase)| (0+32768))
  1282  0116  0084               	movwf	4
  1283  0117  120A  158A  200A  120A  118A  	fcall	stringdir
  1284  011C  00F0               	movwf	___lwdiv@divisor
  1285  011D  120A  158A  200A  120A  118A  	fcall	stringdir
  1286  0122  00F1               	movwf	___lwdiv@divisor+1
  1287  0123  082C               	movf	sprintf@val+1,w
  1288  0124  00F3               	movwf	___lwdiv@dividend+1
  1289  0125  082B               	movf	sprintf@val,w
  1290  0126  00F2               	movwf	___lwdiv@dividend
  1291  0127  120A  158A  2702  120A  118A  	fcall	___lwdiv
  1292  012C  0871               	movf	?___lwdiv+1,w
  1293  012D  00FB               	movwf	___lwmod@dividend+1
  1294  012E  0870               	movf	?___lwdiv,w
  1295  012F  00FA               	movwf	___lwmod@dividend
  1296  0130  120A  158A  2687  120A  118A  	fcall	___lwmod
  1297  0135  0878               	movf	?___lwmod,w
  1298  0136  3E30               	addlw	48
  1299  0137  1283               	bcf	3,5	;RP0=0, select bank0
  1300  0138  1303               	bcf	3,6	;RP1=0, select bank0
  1301  0139  00A6               	movwf	??_sprintf+1
  1302  013A  0826               	movf	??_sprintf+1,w
  1303  013B  00AE               	movwf	sprintf@c
  1304  013C                     l1547:
  1305                           
  1306                           ;D:\File Install MBLAB IDE\XC8\pic\sources\c90\common\doprnt.c: 1549:    };D:\File Insta
      +                          ll MBLAB IDE\XC8\pic\sources\c90\common\doprnt.c: 1550:    ((*sp++ = (c)));
  1307  013C  082E               	movf	sprintf@c,w
  1308  013D  00A5               	movwf	??_sprintf
  1309  013E  082D               	movf	sprintf@sp,w
  1310  013F  0084               	movwf	4
  1311  0140  0825               	movf	??_sprintf,w
  1312  0141  1383               	bcf	3,7	;select IRP bank0
  1313  0142  0080               	movwf	0
  1314  0143                     l1549:
  1315  0143  3001               	movlw	1
  1316  0144  00A5               	movwf	??_sprintf
  1317  0145  0825               	movf	??_sprintf,w
  1318  0146  07AD               	addwf	sprintf@sp,f
  1319  0147                     l1551:
  1320                           
  1321                           ;D:\File Install MBLAB IDE\XC8\pic\sources\c90\common\doprnt.c: 1500:   while(prec--) {
  1322  0147  30FF               	movlw	255
  1323  0148  00A5               	movwf	??_sprintf
  1324  0149  0825               	movf	??_sprintf,w
  1325  014A  07AA               	addwf	sprintf@prec,f
  1326  014B  0A2A               	incf	sprintf@prec,w
  1327  014C  1D03               	btfss	3,2
  1328  014D  294F               	goto	u1521
  1329  014E  2950               	goto	u1520
  1330  014F                     u1521:
  1331  014F  290E               	goto	l1545
  1332  0150                     u1520:
  1333  0150                     l1553:
  1334                           
  1335                           ;D:\File Install MBLAB IDE\XC8\pic\sources\c90\common\doprnt.c: 553:  while((c = *f++)) 
      +                          {
  1336  0150  3001               	movlw	1
  1337  0151  07A0               	addwf	sprintf@f,f
  1338  0152  30FF               	movlw	-1
  1339  0153  0720               	addwf	sprintf@f,w
  1340  0154  0084               	movwf	4
  1341  0155  120A  158A  200A  120A  118A  	fcall	stringdir
  1342  015A  00A5               	movwf	??_sprintf
  1343  015B  0825               	movf	??_sprintf,w
  1344  015C  00AE               	movwf	sprintf@c
  1345  015D  082E               	movf	sprintf@c,w
  1346  015E  1D03               	btfss	3,2
  1347  015F  2961               	goto	u1531
  1348  0160  2962               	goto	u1530
  1349  0161                     u1531:
  1350  0161  2887               	goto	l1503
  1351  0162                     u1530:
  1352  0162                     l1555:
  1353                           
  1354                           ;D:\File Install MBLAB IDE\XC8\pic\sources\c90\common\doprnt.c: 1564:  *sp = 0;
  1355  0162  082D               	movf	sprintf@sp,w
  1356  0163  0084               	movwf	4
  1357  0164  1383               	bcf	3,7	;select IRP bank0
  1358  0165  0180               	clrf	0
  1359  0166                     l193:
  1360  0166  0008               	return
  1361  0167                     __end_of_sprintf:
  1362                           
  1363                           	psect	text2
  1364  0E87                     __ptext2:	
  1365 ;; *************** function ___lwmod *****************
  1366 ;; Defined at:
  1367 ;;		line 5 in file "D:\File Install MBLAB IDE\XC8\pic\sources\c90\common\lwmod.c"
  1368 ;; Parameters:    Size  Location     Type
  1369 ;;  divisor         2    8[COMMON] unsigned int 
  1370 ;;  dividend        2   10[COMMON] unsigned int 
  1371 ;; Auto vars:     Size  Location     Type
  1372 ;;  counter         1   13[COMMON] unsigned char 
  1373 ;; Return value:  Size  Location     Type
  1374 ;;                  2    8[COMMON] unsigned int 
  1375 ;; Registers used:
  1376 ;;		wreg, status,2, status,0
  1377 ;; Tracked objects:
  1378 ;;		On entry : 0/0
  1379 ;;		On exit  : 0/0
  1380 ;;		Unchanged: 0/0
  1381 ;; Data sizes:     COMMON   BANK0   BANK1   BANK3   BANK2
  1382 ;;      Params:         4       0       0       0       0
  1383 ;;      Locals:         1       0       0       0       0
  1384 ;;      Temps:          1       0       0       0       0
  1385 ;;      Totals:         6       0       0       0       0
  1386 ;;Total ram usage:        6 bytes
  1387 ;; Hardware stack levels used: 1
  1388 ;; This function calls:
  1389 ;;		Nothing
  1390 ;; This function is called by:
  1391 ;;		_sprintf
  1392 ;; This function uses a non-reentrant model
  1393 ;;
  1394                           
  1395                           
  1396                           ;psect for function ___lwmod
  1397  0E87                     ___lwmod:
  1398  0E87                     l1431:	
  1399                           ;incstack = 0
  1400                           ; Regs used in ___lwmod: [wreg+status,2+status,0]
  1401                           
  1402  0E87  0878               	movf	___lwmod@divisor,w
  1403  0E88  0479               	iorwf	___lwmod@divisor+1,w
  1404  0E89  1903               	btfsc	3,2
  1405  0E8A  2E8C               	goto	u1371
  1406  0E8B  2E8D               	goto	u1370
  1407  0E8C                     u1371:
  1408  0E8C  2EBC               	goto	l1449
  1409  0E8D                     u1370:
  1410  0E8D                     l1433:
  1411  0E8D  01FD               	clrf	___lwmod@counter
  1412  0E8E  0AFD               	incf	___lwmod@counter,f
  1413  0E8F  2E9B               	goto	l1439
  1414  0E90                     l1435:
  1415  0E90  3001               	movlw	1
  1416  0E91                     u1385:
  1417  0E91  1003               	clrc
  1418  0E92  0DF8               	rlf	___lwmod@divisor,f
  1419  0E93  0DF9               	rlf	___lwmod@divisor+1,f
  1420  0E94  3EFF               	addlw	-1
  1421  0E95  1D03               	skipz
  1422  0E96  2E91               	goto	u1385
  1423  0E97                     l1437:
  1424  0E97  3001               	movlw	1
  1425  0E98  00FC               	movwf	??___lwmod
  1426  0E99  087C               	movf	??___lwmod,w
  1427  0E9A  07FD               	addwf	___lwmod@counter,f
  1428  0E9B                     l1439:
  1429  0E9B  1FF9               	btfss	___lwmod@divisor+1,7
  1430  0E9C  2E9E               	goto	u1391
  1431  0E9D  2E9F               	goto	u1390
  1432  0E9E                     u1391:
  1433  0E9E  2E90               	goto	l1435
  1434  0E9F                     u1390:
  1435  0E9F                     l1441:
  1436  0E9F  0879               	movf	___lwmod@divisor+1,w
  1437  0EA0  027B               	subwf	___lwmod@dividend+1,w
  1438  0EA1  1D03               	skipz
  1439  0EA2  2EA5               	goto	u1405
  1440  0EA3  0878               	movf	___lwmod@divisor,w
  1441  0EA4  027A               	subwf	___lwmod@dividend,w
  1442  0EA5                     u1405:
  1443  0EA5  1C03               	skipc
  1444  0EA6  2EA8               	goto	u1401
  1445  0EA7  2EA9               	goto	u1400
  1446  0EA8                     u1401:
  1447  0EA8  2EAF               	goto	l1445
  1448  0EA9                     u1400:
  1449  0EA9                     l1443:
  1450  0EA9  0878               	movf	___lwmod@divisor,w
  1451  0EAA  02FA               	subwf	___lwmod@dividend,f
  1452  0EAB  0879               	movf	___lwmod@divisor+1,w
  1453  0EAC  1C03               	skipc
  1454  0EAD  03FB               	decf	___lwmod@dividend+1,f
  1455  0EAE  02FB               	subwf	___lwmod@dividend+1,f
  1456  0EAF                     l1445:
  1457  0EAF  3001               	movlw	1
  1458  0EB0                     u1415:
  1459  0EB0  1003               	clrc
  1460  0EB1  0CF9               	rrf	___lwmod@divisor+1,f
  1461  0EB2  0CF8               	rrf	___lwmod@divisor,f
  1462  0EB3  3EFF               	addlw	-1
  1463  0EB4  1D03               	skipz
  1464  0EB5  2EB0               	goto	u1415
  1465  0EB6                     l1447:
  1466  0EB6  3001               	movlw	1
  1467  0EB7  02FD               	subwf	___lwmod@counter,f
  1468  0EB8  1D03               	btfss	3,2
  1469  0EB9  2EBB               	goto	u1421
  1470  0EBA  2EBC               	goto	u1420
  1471  0EBB                     u1421:
  1472  0EBB  2E9F               	goto	l1441
  1473  0EBC                     u1420:
  1474  0EBC                     l1449:
  1475  0EBC  087B               	movf	___lwmod@dividend+1,w
  1476  0EBD  00F9               	movwf	?___lwmod+1
  1477  0EBE  087A               	movf	___lwmod@dividend,w
  1478  0EBF  00F8               	movwf	?___lwmod
  1479  0EC0                     l479:
  1480  0EC0  0008               	return
  1481  0EC1                     __end_of___lwmod:
  1482                           
  1483                           	psect	text3
  1484  0F02                     __ptext3:	
  1485 ;; *************** function ___lwdiv *****************
  1486 ;; Defined at:
  1487 ;;		line 5 in file "D:\File Install MBLAB IDE\XC8\pic\sources\c90\common\lwdiv.c"
  1488 ;; Parameters:    Size  Location     Type
  1489 ;;  divisor         2    0[COMMON] unsigned int 
  1490 ;;  dividend        2    2[COMMON] unsigned int 
  1491 ;; Auto vars:     Size  Location     Type
  1492 ;;  quotient        2    5[COMMON] unsigned int 
  1493 ;;  counter         1    7[COMMON] unsigned char 
  1494 ;; Return value:  Size  Location     Type
  1495 ;;                  2    0[COMMON] unsigned int 
  1496 ;; Registers used:
  1497 ;;		wreg, status,2, status,0
  1498 ;; Tracked objects:
  1499 ;;		On entry : 0/0
  1500 ;;		On exit  : 0/0
  1501 ;;		Unchanged: 0/0
  1502 ;; Data sizes:     COMMON   BANK0   BANK1   BANK3   BANK2
  1503 ;;      Params:         4       0       0       0       0
  1504 ;;      Locals:         3       0       0       0       0
  1505 ;;      Temps:          1       0       0       0       0
  1506 ;;      Totals:         8       0       0       0       0
  1507 ;;Total ram usage:        8 bytes
  1508 ;; Hardware stack levels used: 1
  1509 ;; This function calls:
  1510 ;;		Nothing
  1511 ;; This function is called by:
  1512 ;;		_main
  1513 ;;		_sprintf
  1514 ;; This function uses a non-reentrant model
  1515 ;;
  1516                           
  1517                           
  1518                           ;psect for function ___lwdiv
  1519  0F02                     ___lwdiv:
  1520  0F02                     l1405:	
  1521                           ;incstack = 0
  1522                           ; Regs used in ___lwdiv: [wreg+status,2+status,0]
  1523                           
  1524  0F02  01F5               	clrf	___lwdiv@quotient
  1525  0F03  01F6               	clrf	___lwdiv@quotient+1
  1526  0F04                     l1407:
  1527  0F04  0870               	movf	___lwdiv@divisor,w
  1528  0F05  0471               	iorwf	___lwdiv@divisor+1,w
  1529  0F06  1903               	btfsc	3,2
  1530  0F07  2F09               	goto	u1301
  1531  0F08  2F0A               	goto	u1300
  1532  0F09                     u1301:
  1533  0F09  2F41               	goto	l1427
  1534  0F0A                     u1300:
  1535  0F0A                     l1409:
  1536  0F0A  01F7               	clrf	___lwdiv@counter
  1537  0F0B  0AF7               	incf	___lwdiv@counter,f
  1538  0F0C  2F18               	goto	l1415
  1539  0F0D                     l1411:
  1540  0F0D  3001               	movlw	1
  1541  0F0E                     u1315:
  1542  0F0E  1003               	clrc
  1543  0F0F  0DF0               	rlf	___lwdiv@divisor,f
  1544  0F10  0DF1               	rlf	___lwdiv@divisor+1,f
  1545  0F11  3EFF               	addlw	-1
  1546  0F12  1D03               	skipz
  1547  0F13  2F0E               	goto	u1315
  1548  0F14                     l1413:
  1549  0F14  3001               	movlw	1
  1550  0F15  00F4               	movwf	??___lwdiv
  1551  0F16  0874               	movf	??___lwdiv,w
  1552  0F17  07F7               	addwf	___lwdiv@counter,f
  1553  0F18                     l1415:
  1554  0F18  1FF1               	btfss	___lwdiv@divisor+1,7
  1555  0F19  2F1B               	goto	u1321
  1556  0F1A  2F1C               	goto	u1320
  1557  0F1B                     u1321:
  1558  0F1B  2F0D               	goto	l1411
  1559  0F1C                     u1320:
  1560  0F1C                     l1417:
  1561  0F1C  3001               	movlw	1
  1562  0F1D                     u1335:
  1563  0F1D  1003               	clrc
  1564  0F1E  0DF5               	rlf	___lwdiv@quotient,f
  1565  0F1F  0DF6               	rlf	___lwdiv@quotient+1,f
  1566  0F20  3EFF               	addlw	-1
  1567  0F21  1D03               	skipz
  1568  0F22  2F1D               	goto	u1335
  1569  0F23  0871               	movf	___lwdiv@divisor+1,w
  1570  0F24  0273               	subwf	___lwdiv@dividend+1,w
  1571  0F25  1D03               	skipz
  1572  0F26  2F29               	goto	u1345
  1573  0F27  0870               	movf	___lwdiv@divisor,w
  1574  0F28  0272               	subwf	___lwdiv@dividend,w
  1575  0F29                     u1345:
  1576  0F29  1C03               	skipc
  1577  0F2A  2F2C               	goto	u1341
  1578  0F2B  2F2D               	goto	u1340
  1579  0F2C                     u1341:
  1580  0F2C  2F34               	goto	l1423
  1581  0F2D                     u1340:
  1582  0F2D                     l1419:
  1583  0F2D  0870               	movf	___lwdiv@divisor,w
  1584  0F2E  02F2               	subwf	___lwdiv@dividend,f
  1585  0F2F  0871               	movf	___lwdiv@divisor+1,w
  1586  0F30  1C03               	skipc
  1587  0F31  03F3               	decf	___lwdiv@dividend+1,f
  1588  0F32  02F3               	subwf	___lwdiv@dividend+1,f
  1589  0F33                     l1421:
  1590  0F33  1475               	bsf	___lwdiv@quotient,0
  1591  0F34                     l1423:
  1592  0F34  3001               	movlw	1
  1593  0F35                     u1355:
  1594  0F35  1003               	clrc
  1595  0F36  0CF1               	rrf	___lwdiv@divisor+1,f
  1596  0F37  0CF0               	rrf	___lwdiv@divisor,f
  1597  0F38  3EFF               	addlw	-1
  1598  0F39  1D03               	skipz
  1599  0F3A  2F35               	goto	u1355
  1600  0F3B                     l1425:
  1601  0F3B  3001               	movlw	1
  1602  0F3C  02F7               	subwf	___lwdiv@counter,f
  1603  0F3D  1D03               	btfss	3,2
  1604  0F3E  2F40               	goto	u1361
  1605  0F3F  2F41               	goto	u1360
  1606  0F40                     u1361:
  1607  0F40  2F1C               	goto	l1417
  1608  0F41                     u1360:
  1609  0F41                     l1427:
  1610  0F41  0876               	movf	___lwdiv@quotient+1,w
  1611  0F42  00F1               	movwf	?___lwdiv+1
  1612  0F43  0875               	movf	___lwdiv@quotient,w
  1613  0F44  00F0               	movwf	?___lwdiv
  1614  0F45                     l469:
  1615  0F45  0008               	return
  1616  0F46                     __end_of___lwdiv:
  1617                           
  1618                           	psect	text4
  1619  0F46                     __ptext4:	
  1620 ;; *************** function ___xxtofl *****************
  1621 ;; Defined at:
  1622 ;;		line 10 in file "D:\File Install MBLAB IDE\XC8\pic\sources\c90\common\xxtofl.c"
  1623 ;; Parameters:    Size  Location     Type
  1624 ;;  sign            1    wreg     unsigned char 
  1625 ;;  val             4    0[COMMON] long 
  1626 ;; Auto vars:     Size  Location     Type
  1627 ;;  sign            1    8[COMMON] unsigned char 
  1628 ;;  arg             4   10[COMMON] unsigned long 
  1629 ;;  exp             1    9[COMMON] unsigned char 
  1630 ;; Return value:  Size  Location     Type
  1631 ;;                  4    0[COMMON] unsigned char 
  1632 ;; Registers used:
  1633 ;;		wreg, status,2, status,0
  1634 ;; Tracked objects:
  1635 ;;		On entry : 0/0
  1636 ;;		On exit  : 0/0
  1637 ;;		Unchanged: 0/0
  1638 ;; Data sizes:     COMMON   BANK0   BANK1   BANK3   BANK2
  1639 ;;      Params:         4       0       0       0       0
  1640 ;;      Locals:         6       0       0       0       0
  1641 ;;      Temps:          4       0       0       0       0
  1642 ;;      Totals:        14       0       0       0       0
  1643 ;;Total ram usage:       14 bytes
  1644 ;; Hardware stack levels used: 1
  1645 ;; This function calls:
  1646 ;;		Nothing
  1647 ;; This function is called by:
  1648 ;;		_main
  1649 ;; This function uses a non-reentrant model
  1650 ;;
  1651                           
  1652                           
  1653                           ;psect for function ___xxtofl
  1654  0F46                     ___xxtofl:
  1655                           
  1656                           ;incstack = 0
  1657                           ; Regs used in ___xxtofl: [wreg+status,2+status,0]
  1658                           ;___xxtofl@sign stored from wreg
  1659  0F46  00F8               	movwf	___xxtofl@sign
  1660  0F47                     l1881:
  1661  0F47  0878               	movf	___xxtofl@sign,w
  1662  0F48  1903               	btfsc	3,2
  1663  0F49  2F4B               	goto	u2301
  1664  0F4A  2F4C               	goto	u2300
  1665  0F4B                     u2301:
  1666  0F4B  2F60               	goto	l1887
  1667  0F4C                     u2300:
  1668  0F4C                     l1883:
  1669  0F4C  1FF3               	btfss	___xxtofl@val+3,7
  1670  0F4D  2F4F               	goto	u2311
  1671  0F4E  2F50               	goto	u2310
  1672  0F4F                     u2311:
  1673  0F4F  2F60               	goto	l1887
  1674  0F50                     u2310:
  1675  0F50                     l1885:
  1676  0F50  0970               	comf	___xxtofl@val,w
  1677  0F51  00FA               	movwf	___xxtofl@arg
  1678  0F52  0971               	comf	___xxtofl@val+1,w
  1679  0F53  00FB               	movwf	___xxtofl@arg+1
  1680  0F54  0972               	comf	___xxtofl@val+2,w
  1681  0F55  00FC               	movwf	___xxtofl@arg+2
  1682  0F56  0973               	comf	___xxtofl@val+3,w
  1683  0F57  00FD               	movwf	___xxtofl@arg+3
  1684  0F58  0AFA               	incf	___xxtofl@arg,f
  1685  0F59  1903               	skipnz
  1686  0F5A  0AFB               	incf	___xxtofl@arg+1,f
  1687  0F5B  1903               	skipnz
  1688  0F5C  0AFC               	incf	___xxtofl@arg+2,f
  1689  0F5D  1903               	skipnz
  1690  0F5E  0AFD               	incf	___xxtofl@arg+3,f
  1691  0F5F  2F68               	goto	l630
  1692  0F60                     l1887:
  1693  0F60  0873               	movf	___xxtofl@val+3,w
  1694  0F61  00FD               	movwf	___xxtofl@arg+3
  1695  0F62  0872               	movf	___xxtofl@val+2,w
  1696  0F63  00FC               	movwf	___xxtofl@arg+2
  1697  0F64  0871               	movf	___xxtofl@val+1,w
  1698  0F65  00FB               	movwf	___xxtofl@arg+1
  1699  0F66  0870               	movf	___xxtofl@val,w
  1700  0F67  00FA               	movwf	___xxtofl@arg
  1701  0F68                     l630:
  1702  0F68  0873               	movf	___xxtofl@val+3,w
  1703  0F69  0472               	iorwf	___xxtofl@val+2,w
  1704  0F6A  0471               	iorwf	___xxtofl@val+1,w
  1705  0F6B  0470               	iorwf	___xxtofl@val,w
  1706  0F6C  1D03               	skipz
  1707  0F6D  2F6F               	goto	u2321
  1708  0F6E  2F70               	goto	u2320
  1709  0F6F                     u2321:
  1710  0F6F  2F79               	goto	l1893
  1711  0F70                     u2320:
  1712  0F70                     l1889:
  1713  0F70  3000               	movlw	0
  1714  0F71  00F3               	movwf	?___xxtofl+3
  1715  0F72  3000               	movlw	0
  1716  0F73  00F2               	movwf	?___xxtofl+2
  1717  0F74  3000               	movlw	0
  1718  0F75  00F1               	movwf	?___xxtofl+1
  1719  0F76  3000               	movlw	0
  1720  0F77  00F0               	movwf	?___xxtofl
  1721  0F78  2FFF               	goto	l632
  1722  0F79                     l1893:
  1723  0F79  3096               	movlw	150
  1724  0F7A  00F4               	movwf	??___xxtofl
  1725  0F7B  0874               	movf	??___xxtofl,w
  1726  0F7C  00F9               	movwf	___xxtofl@exp
  1727  0F7D  2F8B               	goto	l1897
  1728  0F7E                     l1895:
  1729  0F7E  3001               	movlw	1
  1730  0F7F  00F4               	movwf	??___xxtofl
  1731  0F80  0874               	movf	??___xxtofl,w
  1732  0F81  07F9               	addwf	___xxtofl@exp,f
  1733  0F82  3001               	movlw	1
  1734  0F83                     u2335:
  1735  0F83  1003               	clrc
  1736  0F84  0CFD               	rrf	___xxtofl@arg+3,f
  1737  0F85  0CFC               	rrf	___xxtofl@arg+2,f
  1738  0F86  0CFB               	rrf	___xxtofl@arg+1,f
  1739  0F87  0CFA               	rrf	___xxtofl@arg,f
  1740  0F88  3EFF               	addlw	-1
  1741  0F89  1D03               	skipz
  1742  0F8A  2F83               	goto	u2335
  1743  0F8B                     l1897:
  1744  0F8B  30FE               	movlw	254
  1745  0F8C  057D               	andwf	___xxtofl@arg+3,w
  1746  0F8D  1D03               	btfss	3,2
  1747  0F8E  2F90               	goto	u2341
  1748  0F8F  2F91               	goto	u2340
  1749  0F90                     u2341:
  1750  0F90  2F7E               	goto	l1895
  1751  0F91                     u2340:
  1752  0F91  2FAD               	goto	l636
  1753  0F92                     l1899:
  1754  0F92  3001               	movlw	1
  1755  0F93  00F4               	movwf	??___xxtofl
  1756  0F94  0874               	movf	??___xxtofl,w
  1757  0F95  07F9               	addwf	___xxtofl@exp,f
  1758  0F96                     l1901:
  1759  0F96  3001               	movlw	1
  1760  0F97  07FA               	addwf	___xxtofl@arg,f
  1761  0F98  3000               	movlw	0
  1762  0F99  1803               	skipnc
  1763  0F9A  3001               	movlw	1
  1764  0F9B  07FB               	addwf	___xxtofl@arg+1,f
  1765  0F9C  3000               	movlw	0
  1766  0F9D  1803               	skipnc
  1767  0F9E  3001               	movlw	1
  1768  0F9F  07FC               	addwf	___xxtofl@arg+2,f
  1769  0FA0  3000               	movlw	0
  1770  0FA1  1803               	skipnc
  1771  0FA2  3001               	movlw	1
  1772  0FA3  07FD               	addwf	___xxtofl@arg+3,f
  1773  0FA4                     l1903:
  1774  0FA4  3001               	movlw	1
  1775  0FA5                     u2355:
  1776  0FA5  1003               	clrc
  1777  0FA6  0CFD               	rrf	___xxtofl@arg+3,f
  1778  0FA7  0CFC               	rrf	___xxtofl@arg+2,f
  1779  0FA8  0CFB               	rrf	___xxtofl@arg+1,f
  1780  0FA9  0CFA               	rrf	___xxtofl@arg,f
  1781  0FAA  3EFF               	addlw	-1
  1782  0FAB  1D03               	skipz
  1783  0FAC  2FA5               	goto	u2355
  1784  0FAD                     l636:
  1785  0FAD  30FF               	movlw	255
  1786  0FAE  057D               	andwf	___xxtofl@arg+3,w
  1787  0FAF  1D03               	btfss	3,2
  1788  0FB0  2FB2               	goto	u2361
  1789  0FB1  2FB3               	goto	u2360
  1790  0FB2                     u2361:
  1791  0FB2  2F92               	goto	l1899
  1792  0FB3                     u2360:
  1793  0FB3  2FBF               	goto	l1907
  1794  0FB4                     l1905:
  1795  0FB4  3001               	movlw	1
  1796  0FB5  02F9               	subwf	___xxtofl@exp,f
  1797  0FB6  3001               	movlw	1
  1798  0FB7  00F4               	movwf	??___xxtofl
  1799  0FB8                     u2375:
  1800  0FB8  1003               	clrc
  1801  0FB9  0DFA               	rlf	___xxtofl@arg,f
  1802  0FBA  0DFB               	rlf	___xxtofl@arg+1,f
  1803  0FBB  0DFC               	rlf	___xxtofl@arg+2,f
  1804  0FBC  0DFD               	rlf	___xxtofl@arg+3,f
  1805  0FBD  0BF4               	decfsz	??___xxtofl,f
  1806  0FBE  2FB8               	goto	u2375
  1807  0FBF                     l1907:
  1808  0FBF  1BFC               	btfsc	___xxtofl@arg+2,7
  1809  0FC0  2FC2               	goto	u2381
  1810  0FC1  2FC3               	goto	u2380
  1811  0FC2                     u2381:
  1812  0FC2  2FC9               	goto	l643
  1813  0FC3                     u2380:
  1814  0FC3                     l1909:
  1815  0FC3  3002               	movlw	2
  1816  0FC4  0279               	subwf	___xxtofl@exp,w
  1817  0FC5  1803               	skipnc
  1818  0FC6  2FC8               	goto	u2391
  1819  0FC7  2FC9               	goto	u2390
  1820  0FC8                     u2391:
  1821  0FC8  2FB4               	goto	l1905
  1822  0FC9                     u2390:
  1823  0FC9                     l643:
  1824  0FC9  1879               	btfsc	___xxtofl@exp,0
  1825  0FCA  2FCC               	goto	u2401
  1826  0FCB  2FCD               	goto	u2400
  1827  0FCC                     u2401:
  1828  0FCC  2FD5               	goto	l644
  1829  0FCD                     u2400:
  1830  0FCD                     l1911:
  1831  0FCD  30FF               	movlw	255
  1832  0FCE  05FA               	andwf	___xxtofl@arg,f
  1833  0FCF  30FF               	movlw	255
  1834  0FD0  05FB               	andwf	___xxtofl@arg+1,f
  1835  0FD1  307F               	movlw	127
  1836  0FD2  05FC               	andwf	___xxtofl@arg+2,f
  1837  0FD3  30FF               	movlw	255
  1838  0FD4  05FD               	andwf	___xxtofl@arg+3,f
  1839  0FD5                     l644:
  1840  0FD5  1003               	clrc
  1841  0FD6  0CF9               	rrf	___xxtofl@exp,f
  1842  0FD7                     l1913:
  1843  0FD7  0879               	movf	___xxtofl@exp,w
  1844  0FD8  00F4               	movwf	??___xxtofl
  1845  0FD9  01F5               	clrf	??___xxtofl+1
  1846  0FDA  01F6               	clrf	??___xxtofl+2
  1847  0FDB  01F7               	clrf	??___xxtofl+3
  1848  0FDC  3018               	movlw	24
  1849  0FDD                     u2415:
  1850  0FDD  1003               	clrc
  1851  0FDE  0DF4               	rlf	??___xxtofl,f
  1852  0FDF  0DF5               	rlf	??___xxtofl+1,f
  1853  0FE0  0DF6               	rlf	??___xxtofl+2,f
  1854  0FE1  0DF7               	rlf	??___xxtofl+3,f
  1855  0FE2                     u2410:
  1856  0FE2  3EFF               	addlw	-1
  1857  0FE3  1D03               	skipz
  1858  0FE4  2FDD               	goto	u2415
  1859  0FE5  0874               	movf	??___xxtofl,w
  1860  0FE6  04FA               	iorwf	___xxtofl@arg,f
  1861  0FE7  0875               	movf	??___xxtofl+1,w
  1862  0FE8  04FB               	iorwf	___xxtofl@arg+1,f
  1863  0FE9  0876               	movf	??___xxtofl+2,w
  1864  0FEA  04FC               	iorwf	___xxtofl@arg+2,f
  1865  0FEB  0877               	movf	??___xxtofl+3,w
  1866  0FEC  04FD               	iorwf	___xxtofl@arg+3,f
  1867  0FED                     l1915:
  1868  0FED  0878               	movf	___xxtofl@sign,w
  1869  0FEE  1903               	btfsc	3,2
  1870  0FEF  2FF1               	goto	u2421
  1871  0FF0  2FF2               	goto	u2420
  1872  0FF1                     u2421:
  1873  0FF1  2FF7               	goto	l1921
  1874  0FF2                     u2420:
  1875  0FF2                     l1917:
  1876  0FF2  1FF3               	btfss	___xxtofl@val+3,7
  1877  0FF3  2FF5               	goto	u2431
  1878  0FF4  2FF6               	goto	u2430
  1879  0FF5                     u2431:
  1880  0FF5  2FF7               	goto	l1921
  1881  0FF6                     u2430:
  1882  0FF6                     l1919:
  1883  0FF6  17FD               	bsf	___xxtofl@arg+3,7
  1884  0FF7                     l1921:
  1885  0FF7  087D               	movf	___xxtofl@arg+3,w
  1886  0FF8  00F3               	movwf	?___xxtofl+3
  1887  0FF9  087C               	movf	___xxtofl@arg+2,w
  1888  0FFA  00F2               	movwf	?___xxtofl+2
  1889  0FFB  087B               	movf	___xxtofl@arg+1,w
  1890  0FFC  00F1               	movwf	?___xxtofl+1
  1891  0FFD  087A               	movf	___xxtofl@arg,w
  1892  0FFE  00F0               	movwf	?___xxtofl
  1893  0FFF                     l632:
  1894  0FFF  0008               	return
  1895  1000                     __end_of___xxtofl:
  1896                           
  1897                           	psect	text5
  1898  0003                     __ptext5:	
  1899 ;; *************** function ___fltol *****************
  1900 ;; Defined at:
  1901 ;;		line 43 in file "D:\File Install MBLAB IDE\XC8\pic\sources\c90\common\fltol.c"
  1902 ;; Parameters:    Size  Location     Type
  1903 ;;  f1              4   52[BANK0 ] unsigned char 
  1904 ;; Auto vars:     Size  Location     Type
  1905 ;;  exp1            1   62[BANK0 ] unsigned char 
  1906 ;;  sign1           1   61[BANK0 ] unsigned char 
  1907 ;; Return value:  Size  Location     Type
  1908 ;;                  4   52[BANK0 ] long 
  1909 ;; Registers used:
  1910 ;;		wreg, status,2, status,0
  1911 ;; Tracked objects:
  1912 ;;		On entry : 0/0
  1913 ;;		On exit  : 0/0
  1914 ;;		Unchanged: 0/0
  1915 ;; Data sizes:     COMMON   BANK0   BANK1   BANK3   BANK2
  1916 ;;      Params:         0       4       0       0       0
  1917 ;;      Locals:         0       2       0       0       0
  1918 ;;      Temps:          0       5       0       0       0
  1919 ;;      Totals:         0      11       0       0       0
  1920 ;;Total ram usage:       11 bytes
  1921 ;; Hardware stack levels used: 1
  1922 ;; This function calls:
  1923 ;;		Nothing
  1924 ;; This function is called by:
  1925 ;;		_main
  1926 ;; This function uses a non-reentrant model
  1927 ;;
  1928                           
  1929                           
  1930                           ;psect for function ___fltol
  1931  0003                     ___fltol:
  1932  0003                     l1563:	
  1933                           ;incstack = 0
  1934                           ; Regs used in ___fltol: [wreg+status,2+status,0]
  1935                           
  1936  0003  1003               	clrc
  1937  0004  1283               	bcf	3,5	;RP0=0, select bank0
  1938  0005  1303               	bcf	3,6	;RP1=0, select bank0
  1939  0006  0D56               	rlf	___fltol@f1+2,w
  1940  0007  0D57               	rlf	___fltol@f1+3,w
  1941  0008  00D8               	movwf	??___fltol
  1942  0009  0858               	movf	??___fltol,w
  1943  000A  00DE               	movwf	___fltol@exp1
  1944  000B  085E               	movf	___fltol@exp1,w
  1945  000C  1D03               	btfss	3,2
  1946  000D  280F               	goto	u1541
  1947  000E  2810               	goto	u1540
  1948  000F                     u1541:
  1949  000F  2819               	goto	l1569
  1950  0010                     u1540:
  1951  0010                     l1565:
  1952  0010  3000               	movlw	0
  1953  0011  00D7               	movwf	?___fltol+3
  1954  0012  3000               	movlw	0
  1955  0013  00D6               	movwf	?___fltol+2
  1956  0014  3000               	movlw	0
  1957  0015  00D5               	movwf	?___fltol+1
  1958  0016  3000               	movlw	0
  1959  0017  00D4               	movwf	?___fltol
  1960  0018  287E               	goto	l383
  1961  0019                     l1569:
  1962  0019  0854               	movf	___fltol@f1,w
  1963  001A  00D8               	movwf	??___fltol
  1964  001B  0855               	movf	___fltol@f1+1,w
  1965  001C  00D9               	movwf	??___fltol+1
  1966  001D  0856               	movf	___fltol@f1+2,w
  1967  001E  00DA               	movwf	??___fltol+2
  1968  001F  0857               	movf	___fltol@f1+3,w
  1969  0020  00DB               	movwf	??___fltol+3
  1970  0021  301F               	movlw	31
  1971  0022                     u1555:
  1972  0022  1003               	clrc
  1973  0023  0CDB               	rrf	??___fltol+3,f
  1974  0024  0CDA               	rrf	??___fltol+2,f
  1975  0025  0CD9               	rrf	??___fltol+1,f
  1976  0026  0CD8               	rrf	??___fltol,f
  1977  0027                     u1550:
  1978  0027  3EFF               	addlw	-1
  1979  0028  1D03               	skipz
  1980  0029  2822               	goto	u1555
  1981  002A  0858               	movf	??___fltol,w
  1982  002B  00DC               	movwf	??___fltol+4
  1983  002C  085C               	movf	??___fltol+4,w
  1984  002D  00DD               	movwf	___fltol@sign1
  1985  002E                     l1571:
  1986  002E  17D6               	bsf	___fltol@f1+2,7
  1987  002F                     l1573:
  1988  002F  30FF               	movlw	255
  1989  0030  05D4               	andwf	___fltol@f1,f
  1990  0031  30FF               	movlw	255
  1991  0032  05D5               	andwf	___fltol@f1+1,f
  1992  0033  30FF               	movlw	255
  1993  0034  05D6               	andwf	___fltol@f1+2,f
  1994  0035  3000               	movlw	0
  1995  0036  05D7               	andwf	___fltol@f1+3,f
  1996  0037                     l1575:
  1997  0037  3096               	movlw	150
  1998  0038  02DE               	subwf	___fltol@exp1,f
  1999  0039                     l1577:
  2000  0039  1FDE               	btfss	___fltol@exp1,7
  2001  003A  283C               	goto	u1561
  2002  003B  283D               	goto	u1560
  2003  003C                     u1561:
  2004  003C  2857               	goto	l1587
  2005  003D                     u1560:
  2006  003D                     l1579:
  2007  003D  085E               	movf	___fltol@exp1,w
  2008  003E  3A80               	xorlw	128
  2009  003F  3E97               	addlw	151
  2010  0040  1803               	skipnc
  2011  0041  2843               	goto	u1571
  2012  0042  2844               	goto	u1570
  2013  0043                     u1571:
  2014  0043  2845               	goto	l1585
  2015  0044                     u1570:
  2016  0044  2810               	goto	l1565
  2017  0045                     l1585:
  2018  0045  3001               	movlw	1
  2019  0046                     u1585:
  2020  0046  1003               	clrc
  2021  0047  0CD7               	rrf	___fltol@f1+3,f
  2022  0048  0CD6               	rrf	___fltol@f1+2,f
  2023  0049  0CD5               	rrf	___fltol@f1+1,f
  2024  004A  0CD4               	rrf	___fltol@f1,f
  2025  004B  3EFF               	addlw	-1
  2026  004C  1D03               	skipz
  2027  004D  2846               	goto	u1585
  2028  004E  3001               	movlw	1
  2029  004F  00D8               	movwf	??___fltol
  2030  0050  0858               	movf	??___fltol,w
  2031  0051  07DE               	addwf	___fltol@exp1,f
  2032  0052  1D03               	btfss	3,2
  2033  0053  2855               	goto	u1591
  2034  0054  2856               	goto	u1590
  2035  0055                     u1591:
  2036  0055  2845               	goto	l1585
  2037  0056                     u1590:
  2038  0056  286E               	goto	l1595
  2039  0057                     l1587:
  2040  0057  3020               	movlw	32
  2041  0058  025E               	subwf	___fltol@exp1,w
  2042  0059  1C03               	skipc
  2043  005A  285C               	goto	u1601
  2044  005B  285D               	goto	u1600
  2045  005C                     u1601:
  2046  005C  2869               	goto	l390
  2047  005D                     u1600:
  2048  005D  2810               	goto	l1565
  2049  005E                     l1593:
  2050  005E  3001               	movlw	1
  2051  005F  00D8               	movwf	??___fltol
  2052  0060                     u1615:
  2053  0060  1003               	clrc
  2054  0061  0DD4               	rlf	___fltol@f1,f
  2055  0062  0DD5               	rlf	___fltol@f1+1,f
  2056  0063  0DD6               	rlf	___fltol@f1+2,f
  2057  0064  0DD7               	rlf	___fltol@f1+3,f
  2058  0065  0BD8               	decfsz	??___fltol,f
  2059  0066  2860               	goto	u1615
  2060  0067  3001               	movlw	1
  2061  0068  02DE               	subwf	___fltol@exp1,f
  2062  0069                     l390:
  2063  0069  085E               	movf	___fltol@exp1,w
  2064  006A  1D03               	btfss	3,2
  2065  006B  286D               	goto	u1621
  2066  006C  286E               	goto	u1620
  2067  006D                     u1621:
  2068  006D  285E               	goto	l1593
  2069  006E                     u1620:
  2070  006E                     l1595:
  2071  006E  085D               	movf	___fltol@sign1,w
  2072  006F  1903               	btfsc	3,2
  2073  0070  2872               	goto	u1631
  2074  0071  2873               	goto	u1630
  2075  0072                     u1631:
  2076  0072  287E               	goto	l393
  2077  0073                     u1630:
  2078  0073                     l1597:
  2079  0073  09D4               	comf	___fltol@f1,f
  2080  0074  09D5               	comf	___fltol@f1+1,f
  2081  0075  09D6               	comf	___fltol@f1+2,f
  2082  0076  09D7               	comf	___fltol@f1+3,f
  2083  0077  0AD4               	incf	___fltol@f1,f
  2084  0078  1903               	skipnz
  2085  0079  0AD5               	incf	___fltol@f1+1,f
  2086  007A  1903               	skipnz
  2087  007B  0AD6               	incf	___fltol@f1+2,f
  2088  007C  1903               	skipnz
  2089  007D  0AD7               	incf	___fltol@f1+3,f
  2090  007E                     l393:
  2091  007E                     l383:
  2092  007E  0008               	return
  2093  007F                     __end_of___fltol:
  2094                           
  2095                           	psect	text6
  2096  049B                     __ptext6:	
  2097 ;; *************** function ___flmul *****************
  2098 ;; Defined at:
  2099 ;;		line 8 in file "D:\File Install MBLAB IDE\XC8\pic\sources\c90\common\sprcmul.c"
  2100 ;; Parameters:    Size  Location     Type
  2101 ;;  b               4   26[BANK0 ] long 
  2102 ;;  a               4   30[BANK0 ] long 
  2103 ;; Auto vars:     Size  Location     Type
  2104 ;;  prod            4   46[BANK0 ] struct .
  2105 ;;  grs             4   40[BANK0 ] unsigned long 
  2106 ;;  temp            2   50[BANK0 ] struct .
  2107 ;;  bexp            1   45[BANK0 ] unsigned char 
  2108 ;;  aexp            1   44[BANK0 ] unsigned char 
  2109 ;;  sign            1   39[BANK0 ] unsigned char 
  2110 ;; Return value:  Size  Location     Type
  2111 ;;                  4   26[BANK0 ] unsigned char 
  2112 ;; Registers used:
  2113 ;;		wreg, status,2, status,0, btemp+1, pclath, cstack
  2114 ;; Tracked objects:
  2115 ;;		On entry : 0/0
  2116 ;;		On exit  : 0/0
  2117 ;;		Unchanged: 0/0
  2118 ;; Data sizes:     COMMON   BANK0   BANK1   BANK3   BANK2
  2119 ;;      Params:         0       8       0       0       0
  2120 ;;      Locals:         0      13       0       0       0
  2121 ;;      Temps:          0       5       0       0       0
  2122 ;;      Totals:         0      26       0       0       0
  2123 ;;Total ram usage:       26 bytes
  2124 ;; Hardware stack levels used: 1
  2125 ;; Hardware stack levels required when called: 1
  2126 ;; This function calls:
  2127 ;;		__Umul8_16
  2128 ;; This function is called by:
  2129 ;;		_main
  2130 ;; This function uses a non-reentrant model
  2131 ;;
  2132                           
  2133                           
  2134                           ;psect for function ___flmul
  2135  049B                     ___flmul:
  2136  049B                     l1741:	
  2137                           ;incstack = 0
  2138                           ; Regs used in ___flmul: [wreg+status,2+status,0+btemp+1+pclath+cstack]
  2139                           
  2140  049B  1283               	bcf	3,5	;RP0=0, select bank0
  2141  049C  1303               	bcf	3,6	;RP1=0, select bank0
  2142  049D  083D               	movf	___flmul@b+3,w
  2143  049E  3980               	andlw	128
  2144  049F  00C2               	movwf	??___flmul
  2145  04A0  0842               	movf	??___flmul,w
  2146  04A1  00C7               	movwf	___flmul@sign
  2147  04A2                     l1743:
  2148  04A2  083D               	movf	___flmul@b+3,w
  2149  04A3  00C2               	movwf	??___flmul
  2150  04A4  0742               	addwf	??___flmul,w
  2151  04A5  00C3               	movwf	??___flmul+1
  2152  04A6  0843               	movf	??___flmul+1,w
  2153  04A7  00CD               	movwf	___flmul@bexp
  2154  04A8                     l1745:
  2155  04A8  1FBC               	btfss	___flmul@b+2,7
  2156  04A9  2CAB               	goto	u1931
  2157  04AA  2CAC               	goto	u1930
  2158  04AB                     u1931:
  2159  04AB  2CAD               	goto	l1749
  2160  04AC                     u1930:
  2161  04AC                     l1747:
  2162  04AC  144D               	bsf	___flmul@bexp,0
  2163  04AD                     l1749:
  2164  04AD  084D               	movf	___flmul@bexp,w
  2165  04AE  1903               	btfsc	3,2
  2166  04AF  2CB1               	goto	u1941
  2167  04B0  2CB2               	goto	u1940
  2168  04B1                     u1941:
  2169  04B1  2CC1               	goto	l1757
  2170  04B2                     u1940:
  2171  04B2                     l1751:
  2172  04B2  0A4D               	incf	___flmul@bexp,w
  2173  04B3  1D03               	btfss	3,2
  2174  04B4  2CB6               	goto	u1951
  2175  04B5  2CB7               	goto	u1950
  2176  04B6                     u1951:
  2177  04B6  2CBF               	goto	l1755
  2178  04B7                     u1950:
  2179  04B7                     l1753:
  2180  04B7  3000               	movlw	0
  2181  04B8  00BD               	movwf	___flmul@b+3
  2182  04B9  3000               	movlw	0
  2183  04BA  00BC               	movwf	___flmul@b+2
  2184  04BB  3000               	movlw	0
  2185  04BC  00BB               	movwf	___flmul@b+1
  2186  04BD  3000               	movlw	0
  2187  04BE  00BA               	movwf	___flmul@b
  2188  04BF                     l1755:
  2189  04BF  17BC               	bsf	___flmul@b+2,7
  2190  04C0  2CC9               	goto	l1759
  2191  04C1                     l1757:
  2192  04C1  3000               	movlw	0
  2193  04C2  00BD               	movwf	___flmul@b+3
  2194  04C3  3000               	movlw	0
  2195  04C4  00BC               	movwf	___flmul@b+2
  2196  04C5  3000               	movlw	0
  2197  04C6  00BB               	movwf	___flmul@b+1
  2198  04C7  3000               	movlw	0
  2199  04C8  00BA               	movwf	___flmul@b
  2200  04C9                     l1759:
  2201  04C9  0841               	movf	___flmul@a+3,w
  2202  04CA  3980               	andlw	128
  2203  04CB  00C2               	movwf	??___flmul
  2204  04CC  0842               	movf	??___flmul,w
  2205  04CD  06C7               	xorwf	___flmul@sign,f
  2206  04CE                     l1761:
  2207  04CE  0841               	movf	___flmul@a+3,w
  2208  04CF  00C2               	movwf	??___flmul
  2209  04D0  0742               	addwf	??___flmul,w
  2210  04D1  00C3               	movwf	??___flmul+1
  2211  04D2  0843               	movf	??___flmul+1,w
  2212  04D3  00CC               	movwf	___flmul@aexp
  2213  04D4                     l1763:
  2214  04D4  1FC0               	btfss	___flmul@a+2,7
  2215  04D5  2CD7               	goto	u1961
  2216  04D6  2CD8               	goto	u1960
  2217  04D7                     u1961:
  2218  04D7  2CD9               	goto	l1767
  2219  04D8                     u1960:
  2220  04D8                     l1765:
  2221  04D8  144C               	bsf	___flmul@aexp,0
  2222  04D9                     l1767:
  2223  04D9  084C               	movf	___flmul@aexp,w
  2224  04DA  1903               	btfsc	3,2
  2225  04DB  2CDD               	goto	u1971
  2226  04DC  2CDE               	goto	u1970
  2227  04DD                     u1971:
  2228  04DD  2CED               	goto	l1775
  2229  04DE                     u1970:
  2230  04DE                     l1769:
  2231  04DE  0A4C               	incf	___flmul@aexp,w
  2232  04DF  1D03               	btfss	3,2
  2233  04E0  2CE2               	goto	u1981
  2234  04E1  2CE3               	goto	u1980
  2235  04E2                     u1981:
  2236  04E2  2CEB               	goto	l1773
  2237  04E3                     u1980:
  2238  04E3                     l1771:
  2239  04E3  3000               	movlw	0
  2240  04E4  00C1               	movwf	___flmul@a+3
  2241  04E5  3000               	movlw	0
  2242  04E6  00C0               	movwf	___flmul@a+2
  2243  04E7  3000               	movlw	0
  2244  04E8  00BF               	movwf	___flmul@a+1
  2245  04E9  3000               	movlw	0
  2246  04EA  00BE               	movwf	___flmul@a
  2247  04EB                     l1773:
  2248  04EB  17C0               	bsf	___flmul@a+2,7
  2249  04EC  2CF5               	goto	l1777
  2250  04ED                     l1775:
  2251  04ED  3000               	movlw	0
  2252  04EE  00C1               	movwf	___flmul@a+3
  2253  04EF  3000               	movlw	0
  2254  04F0  00C0               	movwf	___flmul@a+2
  2255  04F1  3000               	movlw	0
  2256  04F2  00BF               	movwf	___flmul@a+1
  2257  04F3  3000               	movlw	0
  2258  04F4  00BE               	movwf	___flmul@a
  2259  04F5                     l1777:
  2260  04F5  084C               	movf	___flmul@aexp,w
  2261  04F6  1903               	btfsc	3,2
  2262  04F7  2CF9               	goto	u1991
  2263  04F8  2CFA               	goto	u1990
  2264  04F9                     u1991:
  2265  04F9  2CFF               	goto	l1781
  2266  04FA                     u1990:
  2267  04FA                     l1779:
  2268  04FA  084D               	movf	___flmul@bexp,w
  2269  04FB  1D03               	btfss	3,2
  2270  04FC  2CFE               	goto	u2001
  2271  04FD  2CFF               	goto	u2000
  2272  04FE                     u2001:
  2273  04FE  2D08               	goto	l1785
  2274  04FF                     u2000:
  2275  04FF                     l1781:
  2276  04FF  3000               	movlw	0
  2277  0500  00BD               	movwf	?___flmul+3
  2278  0501  3000               	movlw	0
  2279  0502  00BC               	movwf	?___flmul+2
  2280  0503  3000               	movlw	0
  2281  0504  00BB               	movwf	?___flmul+1
  2282  0505  3000               	movlw	0
  2283  0506  00BA               	movwf	?___flmul
  2284  0507  2FFB               	goto	l586
  2285  0508                     l1785:
  2286  0508  083A               	movf	___flmul@b,w
  2287  0509  00C2               	movwf	??___flmul
  2288  050A  0842               	movf	??___flmul,w
  2289  050B  00F0               	movwf	__Umul8_16@multiplicand
  2290  050C  0840               	movf	___flmul@a+2,w
  2291  050D  120A  158A  2607  120A  118A  	fcall	__Umul8_16
  2292  0512  0871               	movf	?__Umul8_16+1,w
  2293  0513  1283               	bcf	3,5	;RP0=0, select bank0
  2294  0514  1303               	bcf	3,6	;RP1=0, select bank0
  2295  0515  00D3               	movwf	___flmul@temp+1
  2296  0516  0870               	movf	?__Umul8_16,w
  2297  0517  00D2               	movwf	___flmul@temp
  2298  0518                     l1787:
  2299  0518  0852               	movf	___flmul@temp,w
  2300  0519  00C2               	movwf	??___flmul
  2301  051A  01C3               	clrf	??___flmul+1
  2302  051B  01C4               	clrf	??___flmul+2
  2303  051C  01C5               	clrf	??___flmul+3
  2304  051D  0845               	movf	??___flmul+3,w
  2305  051E  00CB               	movwf	___flmul@grs+3
  2306  051F  0844               	movf	??___flmul+2,w
  2307  0520  00CA               	movwf	___flmul@grs+2
  2308  0521  0843               	movf	??___flmul+1,w
  2309  0522  00C9               	movwf	___flmul@grs+1
  2310  0523  0842               	movf	??___flmul,w
  2311  0524  00C8               	movwf	___flmul@grs
  2312  0525                     l1789:
  2313  0525  0853               	movf	___flmul@temp+1,w
  2314  0526  00C2               	movwf	??___flmul
  2315  0527  01C3               	clrf	??___flmul+1
  2316  0528  01C4               	clrf	??___flmul+2
  2317  0529  01C5               	clrf	??___flmul+3
  2318  052A  0845               	movf	??___flmul+3,w
  2319  052B  00D1               	movwf	___flmul@prod+3
  2320  052C  0844               	movf	??___flmul+2,w
  2321  052D  00D0               	movwf	___flmul@prod+2
  2322  052E  0843               	movf	??___flmul+1,w
  2323  052F  00CF               	movwf	___flmul@prod+1
  2324  0530  0842               	movf	??___flmul,w
  2325  0531  00CE               	movwf	___flmul@prod
  2326  0532  083B               	movf	___flmul@b+1,w
  2327  0533  00C2               	movwf	??___flmul
  2328  0534  0842               	movf	??___flmul,w
  2329  0535  00F0               	movwf	__Umul8_16@multiplicand
  2330  0536  083F               	movf	___flmul@a+1,w
  2331  0537  120A  158A  2607  120A  118A  	fcall	__Umul8_16
  2332  053C  0871               	movf	?__Umul8_16+1,w
  2333  053D  1283               	bcf	3,5	;RP0=0, select bank0
  2334  053E  1303               	bcf	3,6	;RP1=0, select bank0
  2335  053F  00D3               	movwf	___flmul@temp+1
  2336  0540  0870               	movf	?__Umul8_16,w
  2337  0541  00D2               	movwf	___flmul@temp
  2338  0542                     l1791:
  2339  0542  0852               	movf	___flmul@temp,w
  2340  0543  00C2               	movwf	??___flmul
  2341  0544  01C3               	clrf	??___flmul+1
  2342  0545  01C4               	clrf	??___flmul+2
  2343  0546  01C5               	clrf	??___flmul+3
  2344  0547  0842               	movf	??___flmul,w
  2345  0548  07C8               	addwf	___flmul@grs,f
  2346  0549  0843               	movf	??___flmul+1,w
  2347  054A  1103               	clrz
  2348  054B  1803               	skipnc
  2349  054C  3E01               	addlw	1
  2350  054D  1903               	skipnz
  2351  054E  2D50               	goto	u2011
  2352  054F  07C9               	addwf	___flmul@grs+1,f
  2353  0550                     u2011:
  2354  0550  0844               	movf	??___flmul+2,w
  2355  0551  1103               	clrz
  2356  0552  1803               	skipnc
  2357  0553  3E01               	addlw	1
  2358  0554  1903               	skipnz
  2359  0555  2D57               	goto	u2012
  2360  0556  07CA               	addwf	___flmul@grs+2,f
  2361  0557                     u2012:
  2362  0557  0845               	movf	??___flmul+3,w
  2363  0558  1103               	clrz
  2364  0559  1803               	skipnc
  2365  055A  3E01               	addlw	1
  2366  055B  1903               	skipnz
  2367  055C  2D5E               	goto	u2013
  2368  055D  07CB               	addwf	___flmul@grs+3,f
  2369  055E                     u2013:
  2370  055E                     l1793:
  2371  055E  0853               	movf	___flmul@temp+1,w
  2372  055F  00C2               	movwf	??___flmul
  2373  0560  01C3               	clrf	??___flmul+1
  2374  0561  01C4               	clrf	??___flmul+2
  2375  0562  01C5               	clrf	??___flmul+3
  2376  0563  0842               	movf	??___flmul,w
  2377  0564  07CE               	addwf	___flmul@prod,f
  2378  0565  0843               	movf	??___flmul+1,w
  2379  0566  1103               	clrz
  2380  0567  1803               	skipnc
  2381  0568  3E01               	addlw	1
  2382  0569  1903               	skipnz
  2383  056A  2D6C               	goto	u2021
  2384  056B  07CF               	addwf	___flmul@prod+1,f
  2385  056C                     u2021:
  2386  056C  0844               	movf	??___flmul+2,w
  2387  056D  1103               	clrz
  2388  056E  1803               	skipnc
  2389  056F  3E01               	addlw	1
  2390  0570  1903               	skipnz
  2391  0571  2D73               	goto	u2022
  2392  0572  07D0               	addwf	___flmul@prod+2,f
  2393  0573                     u2022:
  2394  0573  0845               	movf	??___flmul+3,w
  2395  0574  1103               	clrz
  2396  0575  1803               	skipnc
  2397  0576  3E01               	addlw	1
  2398  0577  1903               	skipnz
  2399  0578  2D7A               	goto	u2023
  2400  0579  07D1               	addwf	___flmul@prod+3,f
  2401  057A                     u2023:
  2402  057A  083C               	movf	___flmul@b+2,w
  2403  057B  00C2               	movwf	??___flmul
  2404  057C  0842               	movf	??___flmul,w
  2405  057D  00F0               	movwf	__Umul8_16@multiplicand
  2406  057E  083E               	movf	___flmul@a,w
  2407  057F  120A  158A  2607  120A  118A  	fcall	__Umul8_16
  2408  0584  0871               	movf	?__Umul8_16+1,w
  2409  0585  1283               	bcf	3,5	;RP0=0, select bank0
  2410  0586  1303               	bcf	3,6	;RP1=0, select bank0
  2411  0587  00D3               	movwf	___flmul@temp+1
  2412  0588  0870               	movf	?__Umul8_16,w
  2413  0589  00D2               	movwf	___flmul@temp
  2414  058A                     l1795:
  2415  058A  0852               	movf	___flmul@temp,w
  2416  058B  00C2               	movwf	??___flmul
  2417  058C  01C3               	clrf	??___flmul+1
  2418  058D  01C4               	clrf	??___flmul+2
  2419  058E  01C5               	clrf	??___flmul+3
  2420  058F  0842               	movf	??___flmul,w
  2421  0590  07C8               	addwf	___flmul@grs,f
  2422  0591  0843               	movf	??___flmul+1,w
  2423  0592  1103               	clrz
  2424  0593  1803               	skipnc
  2425  0594  3E01               	addlw	1
  2426  0595  1903               	skipnz
  2427  0596  2D98               	goto	u2031
  2428  0597  07C9               	addwf	___flmul@grs+1,f
  2429  0598                     u2031:
  2430  0598  0844               	movf	??___flmul+2,w
  2431  0599  1103               	clrz
  2432  059A  1803               	skipnc
  2433  059B  3E01               	addlw	1
  2434  059C  1903               	skipnz
  2435  059D  2D9F               	goto	u2032
  2436  059E  07CA               	addwf	___flmul@grs+2,f
  2437  059F                     u2032:
  2438  059F  0845               	movf	??___flmul+3,w
  2439  05A0  1103               	clrz
  2440  05A1  1803               	skipnc
  2441  05A2  3E01               	addlw	1
  2442  05A3  1903               	skipnz
  2443  05A4  2DA6               	goto	u2033
  2444  05A5  07CB               	addwf	___flmul@grs+3,f
  2445  05A6                     u2033:
  2446  05A6                     l1797:
  2447  05A6  0853               	movf	___flmul@temp+1,w
  2448  05A7  00C2               	movwf	??___flmul
  2449  05A8  01C3               	clrf	??___flmul+1
  2450  05A9  01C4               	clrf	??___flmul+2
  2451  05AA  01C5               	clrf	??___flmul+3
  2452  05AB  0842               	movf	??___flmul,w
  2453  05AC  07CE               	addwf	___flmul@prod,f
  2454  05AD  0843               	movf	??___flmul+1,w
  2455  05AE  1103               	clrz
  2456  05AF  1803               	skipnc
  2457  05B0  3E01               	addlw	1
  2458  05B1  1903               	skipnz
  2459  05B2  2DB4               	goto	u2041
  2460  05B3  07CF               	addwf	___flmul@prod+1,f
  2461  05B4                     u2041:
  2462  05B4  0844               	movf	??___flmul+2,w
  2463  05B5  1103               	clrz
  2464  05B6  1803               	skipnc
  2465  05B7  3E01               	addlw	1
  2466  05B8  1903               	skipnz
  2467  05B9  2DBB               	goto	u2042
  2468  05BA  07D0               	addwf	___flmul@prod+2,f
  2469  05BB                     u2042:
  2470  05BB  0845               	movf	??___flmul+3,w
  2471  05BC  1103               	clrz
  2472  05BD  1803               	skipnc
  2473  05BE  3E01               	addlw	1
  2474  05BF  1903               	skipnz
  2475  05C0  2DC2               	goto	u2043
  2476  05C1  07D1               	addwf	___flmul@prod+3,f
  2477  05C2                     u2043:
  2478  05C2                     l1799:
  2479  05C2  3008               	movlw	8
  2480  05C3  00C2               	movwf	??___flmul
  2481  05C4                     u2055:
  2482  05C4  1003               	clrc
  2483  05C5  0DC8               	rlf	___flmul@grs,f
  2484  05C6  0DC9               	rlf	___flmul@grs+1,f
  2485  05C7  0DCA               	rlf	___flmul@grs+2,f
  2486  05C8  0DCB               	rlf	___flmul@grs+3,f
  2487  05C9  0BC2               	decfsz	??___flmul,f
  2488  05CA  2DC4               	goto	u2055
  2489  05CB                     l1801:
  2490  05CB  083B               	movf	___flmul@b+1,w
  2491  05CC  00C2               	movwf	??___flmul
  2492  05CD  0842               	movf	??___flmul,w
  2493  05CE  00F0               	movwf	__Umul8_16@multiplicand
  2494  05CF  083E               	movf	___flmul@a,w
  2495  05D0  120A  158A  2607  120A  118A  	fcall	__Umul8_16
  2496  05D5  0871               	movf	?__Umul8_16+1,w
  2497  05D6  1283               	bcf	3,5	;RP0=0, select bank0
  2498  05D7  1303               	bcf	3,6	;RP1=0, select bank0
  2499  05D8  00D3               	movwf	___flmul@temp+1
  2500  05D9  0870               	movf	?__Umul8_16,w
  2501  05DA  00D2               	movwf	___flmul@temp
  2502  05DB                     l1803:
  2503  05DB  0852               	movf	___flmul@temp,w
  2504  05DC  00C2               	movwf	??___flmul
  2505  05DD  0853               	movf	___flmul@temp+1,w
  2506  05DE  00C3               	movwf	??___flmul+1
  2507  05DF  01C4               	clrf	??___flmul+2
  2508  05E0  01C5               	clrf	??___flmul+3
  2509  05E1  0842               	movf	??___flmul,w
  2510  05E2  07C8               	addwf	___flmul@grs,f
  2511  05E3  0843               	movf	??___flmul+1,w
  2512  05E4  1103               	clrz
  2513  05E5  1803               	skipnc
  2514  05E6  3E01               	addlw	1
  2515  05E7  1903               	skipnz
  2516  05E8  2DEA               	goto	u2061
  2517  05E9  07C9               	addwf	___flmul@grs+1,f
  2518  05EA                     u2061:
  2519  05EA  0844               	movf	??___flmul+2,w
  2520  05EB  1103               	clrz
  2521  05EC  1803               	skipnc
  2522  05ED  3E01               	addlw	1
  2523  05EE  1903               	skipnz
  2524  05EF  2DF1               	goto	u2062
  2525  05F0  07CA               	addwf	___flmul@grs+2,f
  2526  05F1                     u2062:
  2527  05F1  0845               	movf	??___flmul+3,w
  2528  05F2  1103               	clrz
  2529  05F3  1803               	skipnc
  2530  05F4  3E01               	addlw	1
  2531  05F5  1903               	skipnz
  2532  05F6  2DF8               	goto	u2063
  2533  05F7  07CB               	addwf	___flmul@grs+3,f
  2534  05F8                     u2063:
  2535  05F8                     l1805:
  2536  05F8  083A               	movf	___flmul@b,w
  2537  05F9  00C2               	movwf	??___flmul
  2538  05FA  0842               	movf	??___flmul,w
  2539  05FB  00F0               	movwf	__Umul8_16@multiplicand
  2540  05FC  083F               	movf	___flmul@a+1,w
  2541  05FD  120A  158A  2607  120A  118A  	fcall	__Umul8_16
  2542  0602  0871               	movf	?__Umul8_16+1,w
  2543  0603  1283               	bcf	3,5	;RP0=0, select bank0
  2544  0604  1303               	bcf	3,6	;RP1=0, select bank0
  2545  0605  00D3               	movwf	___flmul@temp+1
  2546  0606  0870               	movf	?__Umul8_16,w
  2547  0607  00D2               	movwf	___flmul@temp
  2548  0608                     l1807:
  2549  0608  0852               	movf	___flmul@temp,w
  2550  0609  00C2               	movwf	??___flmul
  2551  060A  0853               	movf	___flmul@temp+1,w
  2552  060B  00C3               	movwf	??___flmul+1
  2553  060C  01C4               	clrf	??___flmul+2
  2554  060D  01C5               	clrf	??___flmul+3
  2555  060E  0842               	movf	??___flmul,w
  2556  060F  07C8               	addwf	___flmul@grs,f
  2557  0610  0843               	movf	??___flmul+1,w
  2558  0611  1103               	clrz
  2559  0612  1803               	skipnc
  2560  0613  3E01               	addlw	1
  2561  0614  1903               	skipnz
  2562  0615  2E17               	goto	u2071
  2563  0616  07C9               	addwf	___flmul@grs+1,f
  2564  0617                     u2071:
  2565  0617  0844               	movf	??___flmul+2,w
  2566  0618  1103               	clrz
  2567  0619  1803               	skipnc
  2568  061A  3E01               	addlw	1
  2569  061B  1903               	skipnz
  2570  061C  2E1E               	goto	u2072
  2571  061D  07CA               	addwf	___flmul@grs+2,f
  2572  061E                     u2072:
  2573  061E  0845               	movf	??___flmul+3,w
  2574  061F  1103               	clrz
  2575  0620  1803               	skipnc
  2576  0621  3E01               	addlw	1
  2577  0622  1903               	skipnz
  2578  0623  2E25               	goto	u2073
  2579  0624  07CB               	addwf	___flmul@grs+3,f
  2580  0625                     u2073:
  2581  0625                     l1809:
  2582  0625  3008               	movlw	8
  2583  0626  00C2               	movwf	??___flmul
  2584  0627                     u2085:
  2585  0627  1003               	clrc
  2586  0628  0DC8               	rlf	___flmul@grs,f
  2587  0629  0DC9               	rlf	___flmul@grs+1,f
  2588  062A  0DCA               	rlf	___flmul@grs+2,f
  2589  062B  0DCB               	rlf	___flmul@grs+3,f
  2590  062C  0BC2               	decfsz	??___flmul,f
  2591  062D  2E27               	goto	u2085
  2592  062E  083A               	movf	___flmul@b,w
  2593  062F  00C2               	movwf	??___flmul
  2594  0630  0842               	movf	??___flmul,w
  2595  0631  00F0               	movwf	__Umul8_16@multiplicand
  2596  0632  083E               	movf	___flmul@a,w
  2597  0633  120A  158A  2607  120A  118A  	fcall	__Umul8_16
  2598  0638  0871               	movf	?__Umul8_16+1,w
  2599  0639  1283               	bcf	3,5	;RP0=0, select bank0
  2600  063A  1303               	bcf	3,6	;RP1=0, select bank0
  2601  063B  00D3               	movwf	___flmul@temp+1
  2602  063C  0870               	movf	?__Umul8_16,w
  2603  063D  00D2               	movwf	___flmul@temp
  2604  063E                     l1811:
  2605  063E  0852               	movf	___flmul@temp,w
  2606  063F  00C2               	movwf	??___flmul
  2607  0640  0853               	movf	___flmul@temp+1,w
  2608  0641  00C3               	movwf	??___flmul+1
  2609  0642  01C4               	clrf	??___flmul+2
  2610  0643  01C5               	clrf	??___flmul+3
  2611  0644  0842               	movf	??___flmul,w
  2612  0645  07C8               	addwf	___flmul@grs,f
  2613  0646  0843               	movf	??___flmul+1,w
  2614  0647  1103               	clrz
  2615  0648  1803               	skipnc
  2616  0649  3E01               	addlw	1
  2617  064A  1903               	skipnz
  2618  064B  2E4D               	goto	u2091
  2619  064C  07C9               	addwf	___flmul@grs+1,f
  2620  064D                     u2091:
  2621  064D  0844               	movf	??___flmul+2,w
  2622  064E  1103               	clrz
  2623  064F  1803               	skipnc
  2624  0650  3E01               	addlw	1
  2625  0651  1903               	skipnz
  2626  0652  2E54               	goto	u2092
  2627  0653  07CA               	addwf	___flmul@grs+2,f
  2628  0654                     u2092:
  2629  0654  0845               	movf	??___flmul+3,w
  2630  0655  1103               	clrz
  2631  0656  1803               	skipnc
  2632  0657  3E01               	addlw	1
  2633  0658  1903               	skipnz
  2634  0659  2E5B               	goto	u2093
  2635  065A  07CB               	addwf	___flmul@grs+3,f
  2636  065B                     u2093:
  2637  065B                     l1813:
  2638  065B  083B               	movf	___flmul@b+1,w
  2639  065C  00C2               	movwf	??___flmul
  2640  065D  0842               	movf	??___flmul,w
  2641  065E  00F0               	movwf	__Umul8_16@multiplicand
  2642  065F  0840               	movf	___flmul@a+2,w
  2643  0660  120A  158A  2607  120A  118A  	fcall	__Umul8_16
  2644  0665  0871               	movf	?__Umul8_16+1,w
  2645  0666  1283               	bcf	3,5	;RP0=0, select bank0
  2646  0667  1303               	bcf	3,6	;RP1=0, select bank0
  2647  0668  00D3               	movwf	___flmul@temp+1
  2648  0669  0870               	movf	?__Umul8_16,w
  2649  066A  00D2               	movwf	___flmul@temp
  2650  066B  0852               	movf	___flmul@temp,w
  2651  066C  00C2               	movwf	??___flmul
  2652  066D  0853               	movf	___flmul@temp+1,w
  2653  066E  00C3               	movwf	??___flmul+1
  2654  066F  01C4               	clrf	??___flmul+2
  2655  0670  01C5               	clrf	??___flmul+3
  2656  0671  0842               	movf	??___flmul,w
  2657  0672  07CE               	addwf	___flmul@prod,f
  2658  0673  0843               	movf	??___flmul+1,w
  2659  0674  1103               	clrz
  2660  0675  1803               	skipnc
  2661  0676  3E01               	addlw	1
  2662  0677  1903               	skipnz
  2663  0678  2E7A               	goto	u2101
  2664  0679  07CF               	addwf	___flmul@prod+1,f
  2665  067A                     u2101:
  2666  067A  0844               	movf	??___flmul+2,w
  2667  067B  1103               	clrz
  2668  067C  1803               	skipnc
  2669  067D  3E01               	addlw	1
  2670  067E  1903               	skipnz
  2671  067F  2E81               	goto	u2102
  2672  0680  07D0               	addwf	___flmul@prod+2,f
  2673  0681                     u2102:
  2674  0681  0845               	movf	??___flmul+3,w
  2675  0682  1103               	clrz
  2676  0683  1803               	skipnc
  2677  0684  3E01               	addlw	1
  2678  0685  1903               	skipnz
  2679  0686  2E88               	goto	u2103
  2680  0687  07D1               	addwf	___flmul@prod+3,f
  2681  0688                     u2103:
  2682  0688                     l1815:
  2683  0688  083C               	movf	___flmul@b+2,w
  2684  0689  00C2               	movwf	??___flmul
  2685  068A  0842               	movf	??___flmul,w
  2686  068B  00F0               	movwf	__Umul8_16@multiplicand
  2687  068C  083F               	movf	___flmul@a+1,w
  2688  068D  120A  158A  2607  120A  118A  	fcall	__Umul8_16
  2689  0692  0871               	movf	?__Umul8_16+1,w
  2690  0693  1283               	bcf	3,5	;RP0=0, select bank0
  2691  0694  1303               	bcf	3,6	;RP1=0, select bank0
  2692  0695  00D3               	movwf	___flmul@temp+1
  2693  0696  0870               	movf	?__Umul8_16,w
  2694  0697  00D2               	movwf	___flmul@temp
  2695  0698                     l1817:
  2696  0698  0852               	movf	___flmul@temp,w
  2697  0699  00C2               	movwf	??___flmul
  2698  069A  0853               	movf	___flmul@temp+1,w
  2699  069B  00C3               	movwf	??___flmul+1
  2700  069C  01C4               	clrf	??___flmul+2
  2701  069D  01C5               	clrf	??___flmul+3
  2702  069E  0842               	movf	??___flmul,w
  2703  069F  07CE               	addwf	___flmul@prod,f
  2704  06A0  0843               	movf	??___flmul+1,w
  2705  06A1  1103               	clrz
  2706  06A2  1803               	skipnc
  2707  06A3  3E01               	addlw	1
  2708  06A4  1903               	skipnz
  2709  06A5  2EA7               	goto	u2111
  2710  06A6  07CF               	addwf	___flmul@prod+1,f
  2711  06A7                     u2111:
  2712  06A7  0844               	movf	??___flmul+2,w
  2713  06A8  1103               	clrz
  2714  06A9  1803               	skipnc
  2715  06AA  3E01               	addlw	1
  2716  06AB  1903               	skipnz
  2717  06AC  2EAE               	goto	u2112
  2718  06AD  07D0               	addwf	___flmul@prod+2,f
  2719  06AE                     u2112:
  2720  06AE  0845               	movf	??___flmul+3,w
  2721  06AF  1103               	clrz
  2722  06B0  1803               	skipnc
  2723  06B1  3E01               	addlw	1
  2724  06B2  1903               	skipnz
  2725  06B3  2EB5               	goto	u2113
  2726  06B4  07D1               	addwf	___flmul@prod+3,f
  2727  06B5                     u2113:
  2728  06B5  083C               	movf	___flmul@b+2,w
  2729  06B6  00C2               	movwf	??___flmul
  2730  06B7  0842               	movf	??___flmul,w
  2731  06B8  00F0               	movwf	__Umul8_16@multiplicand
  2732  06B9  0840               	movf	___flmul@a+2,w
  2733  06BA  120A  158A  2607  120A  118A  	fcall	__Umul8_16
  2734  06BF  0871               	movf	?__Umul8_16+1,w
  2735  06C0  1283               	bcf	3,5	;RP0=0, select bank0
  2736  06C1  1303               	bcf	3,6	;RP1=0, select bank0
  2737  06C2  00D3               	movwf	___flmul@temp+1
  2738  06C3  0870               	movf	?__Umul8_16,w
  2739  06C4  00D2               	movwf	___flmul@temp
  2740  06C5                     l1819:
  2741  06C5  0852               	movf	___flmul@temp,w
  2742  06C6  00C2               	movwf	??___flmul
  2743  06C7  0853               	movf	___flmul@temp+1,w
  2744  06C8  00C3               	movwf	??___flmul+1
  2745  06C9  01C4               	clrf	??___flmul+2
  2746  06CA  01C5               	clrf	??___flmul+3
  2747  06CB  3008               	movlw	8
  2748  06CC                     u2125:
  2749  06CC  1003               	clrc
  2750  06CD  0DC2               	rlf	??___flmul,f
  2751  06CE  0DC3               	rlf	??___flmul+1,f
  2752  06CF  0DC4               	rlf	??___flmul+2,f
  2753  06D0  0DC5               	rlf	??___flmul+3,f
  2754  06D1                     u2120:
  2755  06D1  3EFF               	addlw	-1
  2756  06D2  1D03               	skipz
  2757  06D3  2ECC               	goto	u2125
  2758  06D4  0842               	movf	??___flmul,w
  2759  06D5  07CE               	addwf	___flmul@prod,f
  2760  06D6  0843               	movf	??___flmul+1,w
  2761  06D7  1103               	clrz
  2762  06D8  1803               	skipnc
  2763  06D9  3E01               	addlw	1
  2764  06DA  1903               	skipnz
  2765  06DB  2EDD               	goto	u2131
  2766  06DC  07CF               	addwf	___flmul@prod+1,f
  2767  06DD                     u2131:
  2768  06DD  0844               	movf	??___flmul+2,w
  2769  06DE  1103               	clrz
  2770  06DF  1803               	skipnc
  2771  06E0  3E01               	addlw	1
  2772  06E1  1903               	skipnz
  2773  06E2  2EE4               	goto	u2132
  2774  06E3  07D0               	addwf	___flmul@prod+2,f
  2775  06E4                     u2132:
  2776  06E4  0845               	movf	??___flmul+3,w
  2777  06E5  1103               	clrz
  2778  06E6  1803               	skipnc
  2779  06E7  3E01               	addlw	1
  2780  06E8  1903               	skipnz
  2781  06E9  2EEB               	goto	u2133
  2782  06EA  07D1               	addwf	___flmul@prod+3,f
  2783  06EB                     u2133:
  2784  06EB                     l1821:
  2785  06EB  0848               	movf	___flmul@grs,w
  2786  06EC  00C2               	movwf	??___flmul
  2787  06ED  0849               	movf	___flmul@grs+1,w
  2788  06EE  00C3               	movwf	??___flmul+1
  2789  06EF  084A               	movf	___flmul@grs+2,w
  2790  06F0  00C4               	movwf	??___flmul+2
  2791  06F1  084B               	movf	___flmul@grs+3,w
  2792  06F2  00C5               	movwf	??___flmul+3
  2793  06F3  3018               	movlw	24
  2794  06F4                     u2145:
  2795  06F4  1003               	clrc
  2796  06F5  0CC5               	rrf	??___flmul+3,f
  2797  06F6  0CC4               	rrf	??___flmul+2,f
  2798  06F7  0CC3               	rrf	??___flmul+1,f
  2799  06F8  0CC2               	rrf	??___flmul,f
  2800  06F9                     u2140:
  2801  06F9  3EFF               	addlw	-1
  2802  06FA  1D03               	skipz
  2803  06FB  2EF4               	goto	u2145
  2804  06FC  0842               	movf	??___flmul,w
  2805  06FD  07CE               	addwf	___flmul@prod,f
  2806  06FE  0843               	movf	??___flmul+1,w
  2807  06FF  1103               	clrz
  2808  0700  1803               	skipnc
  2809  0701  3E01               	addlw	1
  2810  0702  1903               	skipnz
  2811  0703  2F05               	goto	u2151
  2812  0704  07CF               	addwf	___flmul@prod+1,f
  2813  0705                     u2151:
  2814  0705  0844               	movf	??___flmul+2,w
  2815  0706  1103               	clrz
  2816  0707  1803               	skipnc
  2817  0708  3E01               	addlw	1
  2818  0709  1903               	skipnz
  2819  070A  2F0C               	goto	u2152
  2820  070B  07D0               	addwf	___flmul@prod+2,f
  2821  070C                     u2152:
  2822  070C  0845               	movf	??___flmul+3,w
  2823  070D  1103               	clrz
  2824  070E  1803               	skipnc
  2825  070F  3E01               	addlw	1
  2826  0710  1903               	skipnz
  2827  0711  2F13               	goto	u2153
  2828  0712  07D1               	addwf	___flmul@prod+3,f
  2829  0713                     u2153:
  2830  0713                     l1823:
  2831  0713  3008               	movlw	8
  2832  0714  00C2               	movwf	??___flmul
  2833  0715                     u2165:
  2834  0715  1003               	clrc
  2835  0716  0DC8               	rlf	___flmul@grs,f
  2836  0717  0DC9               	rlf	___flmul@grs+1,f
  2837  0718  0DCA               	rlf	___flmul@grs+2,f
  2838  0719  0DCB               	rlf	___flmul@grs+3,f
  2839  071A  0BC2               	decfsz	??___flmul,f
  2840  071B  2F15               	goto	u2165
  2841  071C                     l1825:
  2842  071C  084D               	movf	___flmul@bexp,w
  2843  071D  074C               	addwf	___flmul@aexp,w
  2844  071E  00C2               	movwf	??___flmul
  2845  071F  01C3               	clrf	??___flmul+1
  2846  0720  0DC3               	rlf	??___flmul+1,f
  2847  0721  0842               	movf	??___flmul,w
  2848  0722  3E82               	addlw	130
  2849  0723  00D2               	movwf	___flmul@temp
  2850  0724  0843               	movf	??___flmul+1,w
  2851  0725  1803               	skipnc
  2852  0726  3E01               	addlw	1
  2853  0727  3EFF               	addlw	255
  2854  0728  00D3               	movwf	___flmul@temp+1
  2855  0729  2F47               	goto	l1837
  2856  072A                     l1827:
  2857  072A  3001               	movlw	1
  2858  072B  00C2               	movwf	??___flmul
  2859  072C                     u2175:
  2860  072C  1003               	clrc
  2861  072D  0DCE               	rlf	___flmul@prod,f
  2862  072E  0DCF               	rlf	___flmul@prod+1,f
  2863  072F  0DD0               	rlf	___flmul@prod+2,f
  2864  0730  0DD1               	rlf	___flmul@prod+3,f
  2865  0731  0BC2               	decfsz	??___flmul,f
  2866  0732  2F2C               	goto	u2175
  2867  0733                     l1829:
  2868  0733  1FCB               	btfss	___flmul@grs+3,7
  2869  0734  2F36               	goto	u2181
  2870  0735  2F37               	goto	u2180
  2871  0736                     u2181:
  2872  0736  2F38               	goto	l1833
  2873  0737                     u2180:
  2874  0737                     l1831:
  2875  0737  144E               	bsf	___flmul@prod,0
  2876  0738                     l1833:
  2877  0738  3001               	movlw	1
  2878  0739  00C2               	movwf	??___flmul
  2879  073A                     u2195:
  2880  073A  1003               	clrc
  2881  073B  0DC8               	rlf	___flmul@grs,f
  2882  073C  0DC9               	rlf	___flmul@grs+1,f
  2883  073D  0DCA               	rlf	___flmul@grs+2,f
  2884  073E  0DCB               	rlf	___flmul@grs+3,f
  2885  073F  0BC2               	decfsz	??___flmul,f
  2886  0740  2F3A               	goto	u2195
  2887  0741                     l1835:
  2888  0741  30FF               	movlw	255
  2889  0742  07D2               	addwf	___flmul@temp,f
  2890  0743  1803               	skipnc
  2891  0744  0AD3               	incf	___flmul@temp+1,f
  2892  0745  30FF               	movlw	255
  2893  0746  07D3               	addwf	___flmul@temp+1,f
  2894  0747                     l1837:
  2895  0747  1FD0               	btfss	___flmul@prod+2,7
  2896  0748  2F4A               	goto	u2201
  2897  0749  2F4B               	goto	u2200
  2898  074A                     u2201:
  2899  074A  2F2A               	goto	l1827
  2900  074B                     u2200:
  2901  074B                     l1839:
  2902  074B  01CC               	clrf	___flmul@aexp
  2903  074C                     l1841:
  2904  074C  1FCB               	btfss	___flmul@grs+3,7
  2905  074D  2F4F               	goto	u2211
  2906  074E  2F50               	goto	u2210
  2907  074F                     u2211:
  2908  074F  2F6C               	goto	l1849
  2909  0750                     u2210:
  2910  0750                     l1843:
  2911  0750  30FF               	movlw	255
  2912  0751  0548               	andwf	___flmul@grs,w
  2913  0752  00C2               	movwf	??___flmul
  2914  0753  30FF               	movlw	255
  2915  0754  0549               	andwf	___flmul@grs+1,w
  2916  0755  00C3               	movwf	??___flmul+1
  2917  0756  30FF               	movlw	255
  2918  0757  054A               	andwf	___flmul@grs+2,w
  2919  0758  00C4               	movwf	??___flmul+2
  2920  0759  307F               	movlw	127
  2921  075A  054B               	andwf	___flmul@grs+3,w
  2922  075B  00C5               	movwf	??___flmul+3
  2923  075C  0845               	movf	??___flmul+3,w
  2924  075D  0444               	iorwf	??___flmul+2,w
  2925  075E  0443               	iorwf	??___flmul+1,w
  2926  075F  0442               	iorwf	??___flmul,w
  2927  0760  1903               	skipnz
  2928  0761  2F63               	goto	u2221
  2929  0762  2F64               	goto	u2220
  2930  0763                     u2221:
  2931  0763  2F67               	goto	l592
  2932  0764                     u2220:
  2933  0764                     l1845:
  2934  0764  01CC               	clrf	___flmul@aexp
  2935  0765  0ACC               	incf	___flmul@aexp,f
  2936  0766  2F6C               	goto	l1849
  2937  0767                     l592:
  2938  0767  1C4E               	btfss	___flmul@prod,0
  2939  0768  2F6A               	goto	u2231
  2940  0769  2F6B               	goto	u2230
  2941  076A                     u2231:
  2942  076A  2F6C               	goto	l1849
  2943  076B                     u2230:
  2944  076B  2F64               	goto	l1845
  2945  076C                     l1849:
  2946  076C  084C               	movf	___flmul@aexp,w
  2947  076D  1903               	btfsc	3,2
  2948  076E  2F70               	goto	u2241
  2949  076F  2F71               	goto	u2240
  2950  0770                     u2241:
  2951  0770  2FA2               	goto	l1859
  2952  0771                     u2240:
  2953  0771                     l1851:
  2954  0771  3001               	movlw	1
  2955  0772  07CE               	addwf	___flmul@prod,f
  2956  0773  3000               	movlw	0
  2957  0774  1803               	skipnc
  2958  0775  3001               	movlw	1
  2959  0776  07CF               	addwf	___flmul@prod+1,f
  2960  0777  3000               	movlw	0
  2961  0778  1803               	skipnc
  2962  0779  3001               	movlw	1
  2963  077A  07D0               	addwf	___flmul@prod+2,f
  2964  077B  3000               	movlw	0
  2965  077C  1803               	skipnc
  2966  077D  3001               	movlw	1
  2967  077E  07D1               	addwf	___flmul@prod+3,f
  2968  077F                     l1853:
  2969  077F  1C51               	btfss	___flmul@prod+3,0
  2970  0780  2F82               	goto	u2251
  2971  0781  2F83               	goto	u2250
  2972  0782                     u2251:
  2973  0782  2FA2               	goto	l1859
  2974  0783                     u2250:
  2975  0783                     l1855:
  2976  0783  084E               	movf	___flmul@prod,w
  2977  0784  00C2               	movwf	??___flmul
  2978  0785  084F               	movf	___flmul@prod+1,w
  2979  0786  00C3               	movwf	??___flmul+1
  2980  0787  0850               	movf	___flmul@prod+2,w
  2981  0788  00C4               	movwf	??___flmul+2
  2982  0789  0851               	movf	___flmul@prod+3,w
  2983  078A  00C5               	movwf	??___flmul+3
  2984  078B  3001               	movlw	1
  2985  078C  00C6               	movwf	??___flmul+4
  2986  078D                     u2265:
  2987  078D  0D45               	rlf	??___flmul+3,w
  2988  078E  0CC5               	rrf	??___flmul+3,f
  2989  078F  0CC4               	rrf	??___flmul+2,f
  2990  0790  0CC3               	rrf	??___flmul+1,f
  2991  0791  0CC2               	rrf	??___flmul,f
  2992  0792                     u2260:
  2993  0792  0BC6               	decfsz	??___flmul+4,f
  2994  0793  2F8D               	goto	u2265
  2995  0794  0845               	movf	??___flmul+3,w
  2996  0795  00D1               	movwf	___flmul@prod+3
  2997  0796  0844               	movf	??___flmul+2,w
  2998  0797  00D0               	movwf	___flmul@prod+2
  2999  0798  0843               	movf	??___flmul+1,w
  3000  0799  00CF               	movwf	___flmul@prod+1
  3001  079A  0842               	movf	??___flmul,w
  3002  079B  00CE               	movwf	___flmul@prod
  3003  079C                     l1857:
  3004  079C  3001               	movlw	1
  3005  079D  07D2               	addwf	___flmul@temp,f
  3006  079E  1803               	skipnc
  3007  079F  0AD3               	incf	___flmul@temp+1,f
  3008  07A0  3000               	movlw	0
  3009  07A1  07D3               	addwf	___flmul@temp+1,f
  3010  07A2                     l1859:
  3011  07A2  0853               	movf	___flmul@temp+1,w
  3012  07A3  3A80               	xorlw	128
  3013  07A4  00FF               	movwf	btemp+1
  3014  07A5  3080               	movlw	128
  3015  07A6  027F               	subwf	btemp+1,w
  3016  07A7  1D03               	skipz
  3017  07A8  2FAB               	goto	u2275
  3018  07A9  30FF               	movlw	255
  3019  07AA  0252               	subwf	___flmul@temp,w
  3020  07AB                     u2275:
  3021  07AB  1C03               	skipc
  3022  07AC  2FAE               	goto	u2271
  3023  07AD  2FAF               	goto	u2270
  3024  07AE                     u2271:
  3025  07AE  2FBA               	goto	l1863
  3026  07AF                     u2270:
  3027  07AF                     l1861:
  3028  07AF  307F               	movlw	127
  3029  07B0  1283               	bcf	3,5	;RP0=0, select bank0
  3030  07B1  1303               	bcf	3,6	;RP1=0, select bank0
  3031  07B2  00D1               	movwf	___flmul@prod+3
  3032  07B3  3080               	movlw	128
  3033  07B4  00D0               	movwf	___flmul@prod+2
  3034  07B5  3000               	movlw	0
  3035  07B6  00CF               	movwf	___flmul@prod+1
  3036  07B7  3000               	movlw	0
  3037  07B8  00CE               	movwf	___flmul@prod
  3038  07B9  2FEF               	goto	l598
  3039  07BA                     l1863:
  3040  07BA  1283               	bcf	3,5	;RP0=0, select bank0
  3041  07BB  1303               	bcf	3,6	;RP1=0, select bank0
  3042  07BC  0853               	movf	___flmul@temp+1,w
  3043  07BD  3A80               	xorlw	128
  3044  07BE  00FF               	movwf	btemp+1
  3045  07BF  3080               	movlw	128
  3046  07C0  027F               	subwf	btemp+1,w
  3047  07C1  1D03               	skipz
  3048  07C2  2FC5               	goto	u2285
  3049  07C3  3001               	movlw	1
  3050  07C4  0252               	subwf	___flmul@temp,w
  3051  07C5                     u2285:
  3052  07C5  1803               	skipnc
  3053  07C6  2FC8               	goto	u2281
  3054  07C7  2FC9               	goto	u2280
  3055  07C8                     u2281:
  3056  07C8  2FD5               	goto	l1869
  3057  07C9                     u2280:
  3058  07C9                     l1865:
  3059  07C9  3000               	movlw	0
  3060  07CA  1283               	bcf	3,5	;RP0=0, select bank0
  3061  07CB  1303               	bcf	3,6	;RP1=0, select bank0
  3062  07CC  00D1               	movwf	___flmul@prod+3
  3063  07CD  3000               	movlw	0
  3064  07CE  00D0               	movwf	___flmul@prod+2
  3065  07CF  3000               	movlw	0
  3066  07D0  00CF               	movwf	___flmul@prod+1
  3067  07D1  3000               	movlw	0
  3068  07D2  00CE               	movwf	___flmul@prod
  3069  07D3                     l1867:
  3070  07D3  01C7               	clrf	___flmul@sign
  3071  07D4  2FEF               	goto	l598
  3072  07D5                     l1869:
  3073  07D5  1283               	bcf	3,5	;RP0=0, select bank0
  3074  07D6  1303               	bcf	3,6	;RP1=0, select bank0
  3075  07D7  0852               	movf	___flmul@temp,w
  3076  07D8  00C2               	movwf	??___flmul
  3077  07D9  0842               	movf	??___flmul,w
  3078  07DA  00CD               	movwf	___flmul@bexp
  3079  07DB  30FF               	movlw	255
  3080  07DC  05CE               	andwf	___flmul@prod,f
  3081  07DD  30FF               	movlw	255
  3082  07DE  05CF               	andwf	___flmul@prod+1,f
  3083  07DF  307F               	movlw	127
  3084  07E0  05D0               	andwf	___flmul@prod+2,f
  3085  07E1  3000               	movlw	0
  3086  07E2  05D1               	andwf	___flmul@prod+3,f
  3087  07E3                     l1871:
  3088  07E3  1C4D               	btfss	___flmul@bexp,0
  3089  07E4  2FE6               	goto	u2291
  3090  07E5  2FE7               	goto	u2290
  3091  07E6                     u2291:
  3092  07E6  2FE8               	goto	l1875
  3093  07E7                     u2290:
  3094  07E7                     l1873:
  3095  07E7  17D0               	bsf	___flmul@prod+2,7
  3096  07E8                     l1875:
  3097  07E8  084D               	movf	___flmul@bexp,w
  3098  07E9  00C2               	movwf	??___flmul
  3099  07EA  1003               	clrc
  3100  07EB  0C42               	rrf	??___flmul,w
  3101  07EC  00C3               	movwf	??___flmul+1
  3102  07ED  0843               	movf	??___flmul+1,w
  3103  07EE  00D1               	movwf	___flmul@prod+3
  3104  07EF                     l598:
  3105  07EF  0847               	movf	___flmul@sign,w
  3106  07F0  00C2               	movwf	??___flmul
  3107  07F1  0842               	movf	??___flmul,w
  3108  07F2  04D1               	iorwf	___flmul@prod+3,f
  3109  07F3                     l1877:
  3110  07F3  0851               	movf	___flmul@prod+3,w
  3111  07F4  00BD               	movwf	?___flmul+3
  3112  07F5  0850               	movf	___flmul@prod+2,w
  3113  07F6  00BC               	movwf	?___flmul+2
  3114  07F7  084F               	movf	___flmul@prod+1,w
  3115  07F8  00BB               	movwf	?___flmul+1
  3116  07F9  084E               	movf	___flmul@prod,w
  3117  07FA  00BA               	movwf	?___flmul
  3118  07FB                     l586:
  3119  07FB  0008               	return
  3120  07FC                     __end_of___flmul:
  3121                           
  3122                           	psect	text7
  3123  0E07                     __ptext7:	
  3124 ;; *************** function __Umul8_16 *****************
  3125 ;; Defined at:
  3126 ;;		line 4 in file "D:\File Install MBLAB IDE\XC8\pic\sources\c90\common\Umul8_16.c"
  3127 ;; Parameters:    Size  Location     Type
  3128 ;;  multiplier      1    wreg     unsigned char 
  3129 ;;  multiplicand    1    0[COMMON] unsigned char 
  3130 ;; Auto vars:     Size  Location     Type
  3131 ;;  multiplier      1    8[COMMON] unsigned char 
  3132 ;;  word_mpld       2    6[COMMON] unsigned int 
  3133 ;;  product         2    4[COMMON] unsigned int 
  3134 ;; Return value:  Size  Location     Type
  3135 ;;                  2    0[COMMON] unsigned int 
  3136 ;; Registers used:
  3137 ;;		wreg, status,2, status,0
  3138 ;; Tracked objects:
  3139 ;;		On entry : 0/0
  3140 ;;		On exit  : 0/0
  3141 ;;		Unchanged: 0/0
  3142 ;; Data sizes:     COMMON   BANK0   BANK1   BANK3   BANK2
  3143 ;;      Params:         2       0       0       0       0
  3144 ;;      Locals:         5       0       0       0       0
  3145 ;;      Temps:          2       0       0       0       0
  3146 ;;      Totals:         9       0       0       0       0
  3147 ;;Total ram usage:        9 bytes
  3148 ;; Hardware stack levels used: 1
  3149 ;; This function calls:
  3150 ;;		Nothing
  3151 ;; This function is called by:
  3152 ;;		___flmul
  3153 ;; This function uses a non-reentrant model
  3154 ;;
  3155                           
  3156                           
  3157                           ;psect for function __Umul8_16
  3158  0E07                     __Umul8_16:
  3159                           
  3160                           ;incstack = 0
  3161                           ; Regs used in __Umul8_16: [wreg+status,2+status,0]
  3162                           ;__Umul8_16@multiplier stored from wreg
  3163  0E07  00F8               	movwf	__Umul8_16@multiplier
  3164  0E08                     l1453:
  3165  0E08  01F4               	clrf	__Umul8_16@product
  3166  0E09  01F5               	clrf	__Umul8_16@product+1
  3167  0E0A                     l1455:
  3168  0E0A  0870               	movf	__Umul8_16@multiplicand,w
  3169  0E0B  00F2               	movwf	??__Umul8_16
  3170  0E0C  01F3               	clrf	??__Umul8_16+1
  3171  0E0D  0872               	movf	??__Umul8_16,w
  3172  0E0E  00F6               	movwf	__Umul8_16@word_mpld
  3173  0E0F  0873               	movf	??__Umul8_16+1,w
  3174  0E10  00F7               	movwf	__Umul8_16@word_mpld+1
  3175  0E11                     l1457:
  3176  0E11  1C78               	btfss	__Umul8_16@multiplier,0
  3177  0E12  2E14               	goto	u1431
  3178  0E13  2E15               	goto	u1430
  3179  0E14                     u1431:
  3180  0E14  2E1B               	goto	l605
  3181  0E15                     u1430:
  3182  0E15                     l1459:
  3183  0E15  0876               	movf	__Umul8_16@word_mpld,w
  3184  0E16  07F4               	addwf	__Umul8_16@product,f
  3185  0E17  1803               	skipnc
  3186  0E18  0AF5               	incf	__Umul8_16@product+1,f
  3187  0E19  0877               	movf	__Umul8_16@word_mpld+1,w
  3188  0E1A  07F5               	addwf	__Umul8_16@product+1,f
  3189  0E1B                     l605:
  3190  0E1B  3001               	movlw	1
  3191  0E1C                     u1445:
  3192  0E1C  1003               	clrc
  3193  0E1D  0DF6               	rlf	__Umul8_16@word_mpld,f
  3194  0E1E  0DF7               	rlf	__Umul8_16@word_mpld+1,f
  3195  0E1F  3EFF               	addlw	-1
  3196  0E20  1D03               	skipz
  3197  0E21  2E1C               	goto	u1445
  3198  0E22  1003               	clrc
  3199  0E23  0CF8               	rrf	__Umul8_16@multiplier,f
  3200  0E24                     l1461:
  3201  0E24  0878               	movf	__Umul8_16@multiplier,w
  3202  0E25  1D03               	btfss	3,2
  3203  0E26  2E28               	goto	u1451
  3204  0E27  2E29               	goto	u1450
  3205  0E28                     u1451:
  3206  0E28  2E11               	goto	l1457
  3207  0E29                     u1450:
  3208  0E29                     l1463:
  3209  0E29  0875               	movf	__Umul8_16@product+1,w
  3210  0E2A  00F1               	movwf	?__Umul8_16+1
  3211  0E2B  0874               	movf	__Umul8_16@product,w
  3212  0E2C  00F0               	movwf	?__Umul8_16
  3213  0E2D                     l607:
  3214  0E2D  0008               	return
  3215  0E2E                     __end_of__Umul8_16:
  3216                           
  3217                           	psect	text8
  3218  02BE                     __ptext8:	
  3219 ;; *************** function ___fldiv *****************
  3220 ;; Defined at:
  3221 ;;		line 8 in file "D:\File Install MBLAB IDE\XC8\pic\sources\c90\common\sprcdiv.c"
  3222 ;; Parameters:    Size  Location     Type
  3223 ;;  a               4    0[BANK0 ] unsigned int 
  3224 ;;  b               4    4[BANK0 ] unsigned int 
  3225 ;; Auto vars:     Size  Location     Type
  3226 ;;  grs             4   20[BANK0 ] unsigned long 
  3227 ;;  rem             4   13[BANK0 ] unsigned long 
  3228 ;;  new_exp         2   18[BANK0 ] int 
  3229 ;;  aexp            1   25[BANK0 ] unsigned char 
  3230 ;;  bexp            1   24[BANK0 ] unsigned char 
  3231 ;;  sign            1   17[BANK0 ] unsigned char 
  3232 ;; Return value:  Size  Location     Type
  3233 ;;                  4    0[BANK0 ] unsigned char 
  3234 ;; Registers used:
  3235 ;;		wreg, status,2, status,0, btemp+1
  3236 ;; Tracked objects:
  3237 ;;		On entry : 0/0
  3238 ;;		On exit  : 0/0
  3239 ;;		Unchanged: 0/0
  3240 ;; Data sizes:     COMMON   BANK0   BANK1   BANK3   BANK2
  3241 ;;      Params:         0       8       0       0       0
  3242 ;;      Locals:         0      13       0       0       0
  3243 ;;      Temps:          0       5       0       0       0
  3244 ;;      Totals:         0      26       0       0       0
  3245 ;;Total ram usage:       26 bytes
  3246 ;; Hardware stack levels used: 1
  3247 ;; This function calls:
  3248 ;;		Nothing
  3249 ;; This function is called by:
  3250 ;;		_main
  3251 ;; This function uses a non-reentrant model
  3252 ;;
  3253                           
  3254                           
  3255                           ;psect for function ___fldiv
  3256  02BE                     ___fldiv:
  3257  02BE                     l1599:	
  3258                           ;incstack = 0
  3259                           ; Regs used in ___fldiv: [wreg+status,2+status,0+btemp+1]
  3260                           
  3261  02BE  1283               	bcf	3,5	;RP0=0, select bank0
  3262  02BF  1303               	bcf	3,6	;RP1=0, select bank0
  3263  02C0  0827               	movf	___fldiv@b+3,w
  3264  02C1  3980               	andlw	128
  3265  02C2  00A8               	movwf	??___fldiv
  3266  02C3  0828               	movf	??___fldiv,w
  3267  02C4  00B1               	movwf	___fldiv@sign
  3268  02C5                     l1601:
  3269  02C5  0827               	movf	___fldiv@b+3,w
  3270  02C6  00A8               	movwf	??___fldiv
  3271  02C7  0728               	addwf	??___fldiv,w
  3272  02C8  00A9               	movwf	??___fldiv+1
  3273  02C9  0829               	movf	??___fldiv+1,w
  3274  02CA  00B8               	movwf	___fldiv@bexp
  3275  02CB                     l1603:
  3276  02CB  1FA6               	btfss	___fldiv@b+2,7
  3277  02CC  2ACE               	goto	u1641
  3278  02CD  2ACF               	goto	u1640
  3279  02CE                     u1641:
  3280  02CE  2AD0               	goto	l1607
  3281  02CF                     u1640:
  3282  02CF                     l1605:
  3283  02CF  1438               	bsf	___fldiv@bexp,0
  3284  02D0                     l1607:
  3285  02D0  0838               	movf	___fldiv@bexp,w
  3286  02D1  1903               	btfsc	3,2
  3287  02D2  2AD4               	goto	u1651
  3288  02D3  2AD5               	goto	u1650
  3289  02D4                     u1651:
  3290  02D4  2AE5               	goto	l1617
  3291  02D5                     u1650:
  3292  02D5                     l1609:
  3293  02D5  0A38               	incf	___fldiv@bexp,w
  3294  02D6  1D03               	btfss	3,2
  3295  02D7  2AD9               	goto	u1661
  3296  02D8  2ADA               	goto	u1660
  3297  02D9                     u1661:
  3298  02D9  2AE2               	goto	l1613
  3299  02DA                     u1660:
  3300  02DA                     l1611:
  3301  02DA  3000               	movlw	0
  3302  02DB  00A7               	movwf	___fldiv@b+3
  3303  02DC  3000               	movlw	0
  3304  02DD  00A6               	movwf	___fldiv@b+2
  3305  02DE  3000               	movlw	0
  3306  02DF  00A5               	movwf	___fldiv@b+1
  3307  02E0  3000               	movlw	0
  3308  02E1  00A4               	movwf	___fldiv@b
  3309  02E2                     l1613:
  3310  02E2  17A6               	bsf	___fldiv@b+2,7
  3311  02E3                     l1615:
  3312  02E3  01A7               	clrf	___fldiv@b+3
  3313  02E4  2AED               	goto	l1619
  3314  02E5                     l1617:
  3315  02E5  3000               	movlw	0
  3316  02E6  00A7               	movwf	___fldiv@b+3
  3317  02E7  3000               	movlw	0
  3318  02E8  00A6               	movwf	___fldiv@b+2
  3319  02E9  3000               	movlw	0
  3320  02EA  00A5               	movwf	___fldiv@b+1
  3321  02EB  3000               	movlw	0
  3322  02EC  00A4               	movwf	___fldiv@b
  3323  02ED                     l1619:
  3324  02ED  0823               	movf	___fldiv@a+3,w
  3325  02EE  3980               	andlw	128
  3326  02EF  00A8               	movwf	??___fldiv
  3327  02F0  0828               	movf	??___fldiv,w
  3328  02F1  06B1               	xorwf	___fldiv@sign,f
  3329  02F2                     l1621:
  3330  02F2  0823               	movf	___fldiv@a+3,w
  3331  02F3  00A8               	movwf	??___fldiv
  3332  02F4  0728               	addwf	??___fldiv,w
  3333  02F5  00A9               	movwf	??___fldiv+1
  3334  02F6  0829               	movf	??___fldiv+1,w
  3335  02F7  00B9               	movwf	___fldiv@aexp
  3336  02F8                     l1623:
  3337  02F8  1FA2               	btfss	___fldiv@a+2,7
  3338  02F9  2AFB               	goto	u1671
  3339  02FA  2AFC               	goto	u1670
  3340  02FB                     u1671:
  3341  02FB  2AFD               	goto	l1627
  3342  02FC                     u1670:
  3343  02FC                     l1625:
  3344  02FC  1439               	bsf	___fldiv@aexp,0
  3345  02FD                     l1627:
  3346  02FD  0839               	movf	___fldiv@aexp,w
  3347  02FE  1903               	btfsc	3,2
  3348  02FF  2B01               	goto	u1681
  3349  0300  2B02               	goto	u1680
  3350  0301                     u1681:
  3351  0301  2B12               	goto	l1637
  3352  0302                     u1680:
  3353  0302                     l1629:
  3354  0302  0A39               	incf	___fldiv@aexp,w
  3355  0303  1D03               	btfss	3,2
  3356  0304  2B06               	goto	u1691
  3357  0305  2B07               	goto	u1690
  3358  0306                     u1691:
  3359  0306  2B0F               	goto	l1633
  3360  0307                     u1690:
  3361  0307                     l1631:
  3362  0307  3000               	movlw	0
  3363  0308  00A3               	movwf	___fldiv@a+3
  3364  0309  3000               	movlw	0
  3365  030A  00A2               	movwf	___fldiv@a+2
  3366  030B  3000               	movlw	0
  3367  030C  00A1               	movwf	___fldiv@a+1
  3368  030D  3000               	movlw	0
  3369  030E  00A0               	movwf	___fldiv@a
  3370  030F                     l1633:
  3371  030F  17A2               	bsf	___fldiv@a+2,7
  3372  0310                     l1635:
  3373  0310  01A3               	clrf	___fldiv@a+3
  3374  0311  2B1A               	goto	l546
  3375  0312                     l1637:
  3376  0312  3000               	movlw	0
  3377  0313  00A3               	movwf	___fldiv@a+3
  3378  0314  3000               	movlw	0
  3379  0315  00A2               	movwf	___fldiv@a+2
  3380  0316  3000               	movlw	0
  3381  0317  00A1               	movwf	___fldiv@a+1
  3382  0318  3000               	movlw	0
  3383  0319  00A0               	movwf	___fldiv@a
  3384  031A                     l546:
  3385  031A  0823               	movf	___fldiv@a+3,w
  3386  031B  0422               	iorwf	___fldiv@a+2,w
  3387  031C  0421               	iorwf	___fldiv@a+1,w
  3388  031D  0420               	iorwf	___fldiv@a,w
  3389  031E  1D03               	skipz
  3390  031F  2B21               	goto	u1701
  3391  0320  2B22               	goto	u1700
  3392  0321                     u1701:
  3393  0321  2B3B               	goto	l1647
  3394  0322                     u1700:
  3395  0322                     l1639:
  3396  0322  3000               	movlw	0
  3397  0323  00A7               	movwf	___fldiv@b+3
  3398  0324  3000               	movlw	0
  3399  0325  00A6               	movwf	___fldiv@b+2
  3400  0326  3000               	movlw	0
  3401  0327  00A5               	movwf	___fldiv@b+1
  3402  0328  3000               	movlw	0
  3403  0329  00A4               	movwf	___fldiv@b
  3404  032A  3080               	movlw	128
  3405  032B  04A6               	iorwf	___fldiv@b+2,f
  3406  032C  307F               	movlw	127
  3407  032D  04A7               	iorwf	___fldiv@b+3,f
  3408  032E                     l1641:
  3409  032E  0831               	movf	___fldiv@sign,w
  3410  032F  00A8               	movwf	??___fldiv
  3411  0330  0828               	movf	??___fldiv,w
  3412  0331  04A7               	iorwf	___fldiv@b+3,f
  3413  0332                     l1643:
  3414  0332  0827               	movf	___fldiv@b+3,w
  3415  0333  00A3               	movwf	?___fldiv+3
  3416  0334  0826               	movf	___fldiv@b+2,w
  3417  0335  00A2               	movwf	?___fldiv+2
  3418  0336  0825               	movf	___fldiv@b+1,w
  3419  0337  00A1               	movwf	?___fldiv+1
  3420  0338  0824               	movf	___fldiv@b,w
  3421  0339  00A0               	movwf	?___fldiv
  3422  033A  2C9A               	goto	l548
  3423  033B                     l1647:
  3424  033B  0838               	movf	___fldiv@bexp,w
  3425  033C  1D03               	btfss	3,2
  3426  033D  2B3F               	goto	u1711
  3427  033E  2B40               	goto	u1710
  3428  033F                     u1711:
  3429  033F  2B49               	goto	l1653
  3430  0340                     u1710:
  3431  0340                     l1649:
  3432  0340  3000               	movlw	0
  3433  0341  00A3               	movwf	?___fldiv+3
  3434  0342  3000               	movlw	0
  3435  0343  00A2               	movwf	?___fldiv+2
  3436  0344  3000               	movlw	0
  3437  0345  00A1               	movwf	?___fldiv+1
  3438  0346  3000               	movlw	0
  3439  0347  00A0               	movwf	?___fldiv
  3440  0348  2C9A               	goto	l548
  3441  0349                     l1653:
  3442  0349  0838               	movf	___fldiv@bexp,w
  3443  034A  00A8               	movwf	??___fldiv
  3444  034B  01A9               	clrf	??___fldiv+1
  3445  034C  0829               	movf	??___fldiv+1,w
  3446  034D  00AB               	movwf	??___fldiv+3
  3447  034E  0839               	movf	___fldiv@aexp,w
  3448  034F  0228               	subwf	??___fldiv,w
  3449  0350  00AA               	movwf	??___fldiv+2
  3450  0351  1C03               	skipc
  3451  0352  03AB               	decf	??___fldiv+3,f
  3452  0353  082A               	movf	??___fldiv+2,w
  3453  0354  3E7F               	addlw	127
  3454  0355  00B2               	movwf	___fldiv@new_exp
  3455  0356  082B               	movf	??___fldiv+3,w
  3456  0357  1803               	skipnc
  3457  0358  3E01               	addlw	1
  3458  0359  3E00               	addlw	0
  3459  035A  00B3               	movwf	___fldiv@new_exp+1
  3460  035B                     l1655:
  3461  035B  0827               	movf	___fldiv@b+3,w
  3462  035C  00B0               	movwf	___fldiv@rem+3
  3463  035D  0826               	movf	___fldiv@b+2,w
  3464  035E  00AF               	movwf	___fldiv@rem+2
  3465  035F  0825               	movf	___fldiv@b+1,w
  3466  0360  00AE               	movwf	___fldiv@rem+1
  3467  0361  0824               	movf	___fldiv@b,w
  3468  0362  00AD               	movwf	___fldiv@rem
  3469  0363                     l1657:
  3470  0363  3000               	movlw	0
  3471  0364  00A7               	movwf	___fldiv@b+3
  3472  0365  3000               	movlw	0
  3473  0366  00A6               	movwf	___fldiv@b+2
  3474  0367  3000               	movlw	0
  3475  0368  00A5               	movwf	___fldiv@b+1
  3476  0369  3000               	movlw	0
  3477  036A  00A4               	movwf	___fldiv@b
  3478  036B                     l1659:
  3479  036B  3000               	movlw	0
  3480  036C  00B7               	movwf	___fldiv@grs+3
  3481  036D  3000               	movlw	0
  3482  036E  00B6               	movwf	___fldiv@grs+2
  3483  036F  3000               	movlw	0
  3484  0370  00B5               	movwf	___fldiv@grs+1
  3485  0371  3000               	movlw	0
  3486  0372  00B4               	movwf	___fldiv@grs
  3487  0373                     l1661:
  3488  0373  01B9               	clrf	___fldiv@aexp
  3489  0374  2BBF               	goto	l1681
  3490  0375                     l1663:
  3491  0375  0839               	movf	___fldiv@aexp,w
  3492  0376  1903               	btfsc	3,2
  3493  0377  2B79               	goto	u1721
  3494  0378  2B7A               	goto	u1720
  3495  0379                     u1721:
  3496  0379  2B9A               	goto	l1673
  3497  037A                     u1720:
  3498  037A                     l1665:
  3499  037A  3001               	movlw	1
  3500  037B  00A8               	movwf	??___fldiv
  3501  037C                     u1735:
  3502  037C  1003               	clrc
  3503  037D  0DAD               	rlf	___fldiv@rem,f
  3504  037E  0DAE               	rlf	___fldiv@rem+1,f
  3505  037F  0DAF               	rlf	___fldiv@rem+2,f
  3506  0380  0DB0               	rlf	___fldiv@rem+3,f
  3507  0381  0BA8               	decfsz	??___fldiv,f
  3508  0382  2B7C               	goto	u1735
  3509  0383  3001               	movlw	1
  3510  0384  00A8               	movwf	??___fldiv
  3511  0385                     u1745:
  3512  0385  1003               	clrc
  3513  0386  0DA4               	rlf	___fldiv@b,f
  3514  0387  0DA5               	rlf	___fldiv@b+1,f
  3515  0388  0DA6               	rlf	___fldiv@b+2,f
  3516  0389  0DA7               	rlf	___fldiv@b+3,f
  3517  038A  0BA8               	decfsz	??___fldiv,f
  3518  038B  2B85               	goto	u1745
  3519  038C                     l1667:
  3520  038C  1FB7               	btfss	___fldiv@grs+3,7
  3521  038D  2B8F               	goto	u1751
  3522  038E  2B90               	goto	u1750
  3523  038F                     u1751:
  3524  038F  2B91               	goto	l1671
  3525  0390                     u1750:
  3526  0390                     l1669:
  3527  0390  1424               	bsf	___fldiv@b,0
  3528  0391                     l1671:
  3529  0391  3001               	movlw	1
  3530  0392  00A8               	movwf	??___fldiv
  3531  0393                     u1765:
  3532  0393  1003               	clrc
  3533  0394  0DB4               	rlf	___fldiv@grs,f
  3534  0395  0DB5               	rlf	___fldiv@grs+1,f
  3535  0396  0DB6               	rlf	___fldiv@grs+2,f
  3536  0397  0DB7               	rlf	___fldiv@grs+3,f
  3537  0398  0BA8               	decfsz	??___fldiv,f
  3538  0399  2B93               	goto	u1765
  3539  039A                     l1673:
  3540  039A  0823               	movf	___fldiv@a+3,w
  3541  039B  0230               	subwf	___fldiv@rem+3,w
  3542  039C  1D03               	skipz
  3543  039D  2BA8               	goto	u1775
  3544  039E  0822               	movf	___fldiv@a+2,w
  3545  039F  022F               	subwf	___fldiv@rem+2,w
  3546  03A0  1D03               	skipz
  3547  03A1  2BA8               	goto	u1775
  3548  03A2  0821               	movf	___fldiv@a+1,w
  3549  03A3  022E               	subwf	___fldiv@rem+1,w
  3550  03A4  1D03               	skipz
  3551  03A5  2BA8               	goto	u1775
  3552  03A6  0820               	movf	___fldiv@a,w
  3553  03A7  022D               	subwf	___fldiv@rem,w
  3554  03A8                     u1775:
  3555  03A8  1C03               	skipc
  3556  03A9  2BAB               	goto	u1771
  3557  03AA  2BAC               	goto	u1770
  3558  03AB                     u1771:
  3559  03AB  2BBB               	goto	l1679
  3560  03AC                     u1770:
  3561  03AC                     l1675:
  3562  03AC  1737               	bsf	___fldiv@grs+3,6
  3563  03AD                     l1677:
  3564  03AD  0820               	movf	___fldiv@a,w
  3565  03AE  02AD               	subwf	___fldiv@rem,f
  3566  03AF  0821               	movf	___fldiv@a+1,w
  3567  03B0  1C03               	skipc
  3568  03B1  0F21               	incfsz	___fldiv@a+1,w
  3569  03B2  02AE               	subwf	___fldiv@rem+1,f
  3570  03B3  0822               	movf	___fldiv@a+2,w
  3571  03B4  1C03               	skipc
  3572  03B5  0F22               	incfsz	___fldiv@a+2,w
  3573  03B6  02AF               	subwf	___fldiv@rem+2,f
  3574  03B7  0823               	movf	___fldiv@a+3,w
  3575  03B8  1C03               	skipc
  3576  03B9  0F23               	incfsz	___fldiv@a+3,w
  3577  03BA  02B0               	subwf	___fldiv@rem+3,f
  3578  03BB                     l1679:
  3579  03BB  3001               	movlw	1
  3580  03BC  00A8               	movwf	??___fldiv
  3581  03BD  0828               	movf	??___fldiv,w
  3582  03BE  07B9               	addwf	___fldiv@aexp,f
  3583  03BF                     l1681:
  3584  03BF  301A               	movlw	26
  3585  03C0  0239               	subwf	___fldiv@aexp,w
  3586  03C1  1C03               	skipc
  3587  03C2  2BC4               	goto	u1781
  3588  03C3  2BC5               	goto	u1780
  3589  03C4                     u1781:
  3590  03C4  2B75               	goto	l1663
  3591  03C5                     u1780:
  3592  03C5                     l1683:
  3593  03C5  0830               	movf	___fldiv@rem+3,w
  3594  03C6  042F               	iorwf	___fldiv@rem+2,w
  3595  03C7  042E               	iorwf	___fldiv@rem+1,w
  3596  03C8  042D               	iorwf	___fldiv@rem,w
  3597  03C9  1903               	skipnz
  3598  03CA  2BCC               	goto	u1791
  3599  03CB  2BCD               	goto	u1790
  3600  03CC                     u1791:
  3601  03CC  2BEC               	goto	l1697
  3602  03CD                     u1790:
  3603  03CD                     l1685:
  3604  03CD  1434               	bsf	___fldiv@grs,0
  3605  03CE  2BEC               	goto	l1697
  3606  03CF                     l1687:
  3607  03CF  3001               	movlw	1
  3608  03D0  00A8               	movwf	??___fldiv
  3609  03D1                     u1805:
  3610  03D1  1003               	clrc
  3611  03D2  0DA4               	rlf	___fldiv@b,f
  3612  03D3  0DA5               	rlf	___fldiv@b+1,f
  3613  03D4  0DA6               	rlf	___fldiv@b+2,f
  3614  03D5  0DA7               	rlf	___fldiv@b+3,f
  3615  03D6  0BA8               	decfsz	??___fldiv,f
  3616  03D7  2BD1               	goto	u1805
  3617  03D8                     l1689:
  3618  03D8  1FB7               	btfss	___fldiv@grs+3,7
  3619  03D9  2BDB               	goto	u1811
  3620  03DA  2BDC               	goto	u1810
  3621  03DB                     u1811:
  3622  03DB  2BDD               	goto	l1693
  3623  03DC                     u1810:
  3624  03DC                     l1691:
  3625  03DC  1424               	bsf	___fldiv@b,0
  3626  03DD                     l1693:
  3627  03DD  3001               	movlw	1
  3628  03DE  00A8               	movwf	??___fldiv
  3629  03DF                     u1825:
  3630  03DF  1003               	clrc
  3631  03E0  0DB4               	rlf	___fldiv@grs,f
  3632  03E1  0DB5               	rlf	___fldiv@grs+1,f
  3633  03E2  0DB6               	rlf	___fldiv@grs+2,f
  3634  03E3  0DB7               	rlf	___fldiv@grs+3,f
  3635  03E4  0BA8               	decfsz	??___fldiv,f
  3636  03E5  2BDF               	goto	u1825
  3637  03E6                     l1695:
  3638  03E6  30FF               	movlw	255
  3639  03E7  07B2               	addwf	___fldiv@new_exp,f
  3640  03E8  1803               	skipnc
  3641  03E9  0AB3               	incf	___fldiv@new_exp+1,f
  3642  03EA  30FF               	movlw	255
  3643  03EB  07B3               	addwf	___fldiv@new_exp+1,f
  3644  03EC                     l1697:
  3645  03EC  1FA6               	btfss	___fldiv@b+2,7
  3646  03ED  2BEF               	goto	u1831
  3647  03EE  2BF0               	goto	u1830
  3648  03EF                     u1831:
  3649  03EF  2BCF               	goto	l1687
  3650  03F0                     u1830:
  3651  03F0                     l1699:
  3652  03F0  01B9               	clrf	___fldiv@aexp
  3653  03F1                     l1701:
  3654  03F1  1FB7               	btfss	___fldiv@grs+3,7
  3655  03F2  2BF4               	goto	u1841
  3656  03F3  2BF5               	goto	u1840
  3657  03F4                     u1841:
  3658  03F4  2C11               	goto	l1709
  3659  03F5                     u1840:
  3660  03F5                     l1703:
  3661  03F5  30FF               	movlw	255
  3662  03F6  0534               	andwf	___fldiv@grs,w
  3663  03F7  00A8               	movwf	??___fldiv
  3664  03F8  30FF               	movlw	255
  3665  03F9  0535               	andwf	___fldiv@grs+1,w
  3666  03FA  00A9               	movwf	??___fldiv+1
  3667  03FB  30FF               	movlw	255
  3668  03FC  0536               	andwf	___fldiv@grs+2,w
  3669  03FD  00AA               	movwf	??___fldiv+2
  3670  03FE  307F               	movlw	127
  3671  03FF  0537               	andwf	___fldiv@grs+3,w
  3672  0400  00AB               	movwf	??___fldiv+3
  3673  0401  082B               	movf	??___fldiv+3,w
  3674  0402  042A               	iorwf	??___fldiv+2,w
  3675  0403  0429               	iorwf	??___fldiv+1,w
  3676  0404  0428               	iorwf	??___fldiv,w
  3677  0405  1903               	skipnz
  3678  0406  2C08               	goto	u1851
  3679  0407  2C09               	goto	u1850
  3680  0408                     u1851:
  3681  0408  2C0C               	goto	l562
  3682  0409                     u1850:
  3683  0409                     l1705:
  3684  0409  01B9               	clrf	___fldiv@aexp
  3685  040A  0AB9               	incf	___fldiv@aexp,f
  3686  040B  2C11               	goto	l1709
  3687  040C                     l562:
  3688  040C  1C24               	btfss	___fldiv@b,0
  3689  040D  2C0F               	goto	u1861
  3690  040E  2C10               	goto	u1860
  3691  040F                     u1861:
  3692  040F  2C11               	goto	l1709
  3693  0410                     u1860:
  3694  0410  2C09               	goto	l1705
  3695  0411                     l1709:
  3696  0411  0839               	movf	___fldiv@aexp,w
  3697  0412  1903               	btfsc	3,2
  3698  0413  2C15               	goto	u1871
  3699  0414  2C16               	goto	u1870
  3700  0415                     u1871:
  3701  0415  2C47               	goto	l1719
  3702  0416                     u1870:
  3703  0416                     l1711:
  3704  0416  3001               	movlw	1
  3705  0417  07A4               	addwf	___fldiv@b,f
  3706  0418  3000               	movlw	0
  3707  0419  1803               	skipnc
  3708  041A  3001               	movlw	1
  3709  041B  07A5               	addwf	___fldiv@b+1,f
  3710  041C  3000               	movlw	0
  3711  041D  1803               	skipnc
  3712  041E  3001               	movlw	1
  3713  041F  07A6               	addwf	___fldiv@b+2,f
  3714  0420  3000               	movlw	0
  3715  0421  1803               	skipnc
  3716  0422  3001               	movlw	1
  3717  0423  07A7               	addwf	___fldiv@b+3,f
  3718  0424                     l1713:
  3719  0424  1C27               	btfss	___fldiv@b+3,0
  3720  0425  2C27               	goto	u1881
  3721  0426  2C28               	goto	u1880
  3722  0427                     u1881:
  3723  0427  2C47               	goto	l1719
  3724  0428                     u1880:
  3725  0428                     l1715:
  3726  0428  0824               	movf	___fldiv@b,w
  3727  0429  00A8               	movwf	??___fldiv
  3728  042A  0825               	movf	___fldiv@b+1,w
  3729  042B  00A9               	movwf	??___fldiv+1
  3730  042C  0826               	movf	___fldiv@b+2,w
  3731  042D  00AA               	movwf	??___fldiv+2
  3732  042E  0827               	movf	___fldiv@b+3,w
  3733  042F  00AB               	movwf	??___fldiv+3
  3734  0430  3001               	movlw	1
  3735  0431  00AC               	movwf	??___fldiv+4
  3736  0432                     u1895:
  3737  0432  0D2B               	rlf	??___fldiv+3,w
  3738  0433  0CAB               	rrf	??___fldiv+3,f
  3739  0434  0CAA               	rrf	??___fldiv+2,f
  3740  0435  0CA9               	rrf	??___fldiv+1,f
  3741  0436  0CA8               	rrf	??___fldiv,f
  3742  0437                     u1890:
  3743  0437  0BAC               	decfsz	??___fldiv+4,f
  3744  0438  2C32               	goto	u1895
  3745  0439  082B               	movf	??___fldiv+3,w
  3746  043A  00A7               	movwf	___fldiv@b+3
  3747  043B  082A               	movf	??___fldiv+2,w
  3748  043C  00A6               	movwf	___fldiv@b+2
  3749  043D  0829               	movf	??___fldiv+1,w
  3750  043E  00A5               	movwf	___fldiv@b+1
  3751  043F  0828               	movf	??___fldiv,w
  3752  0440  00A4               	movwf	___fldiv@b
  3753  0441                     l1717:
  3754  0441  3001               	movlw	1
  3755  0442  07B2               	addwf	___fldiv@new_exp,f
  3756  0443  1803               	skipnc
  3757  0444  0AB3               	incf	___fldiv@new_exp+1,f
  3758  0445  3000               	movlw	0
  3759  0446  07B3               	addwf	___fldiv@new_exp+1,f
  3760  0447                     l1719:
  3761  0447  0833               	movf	___fldiv@new_exp+1,w
  3762  0448  3A80               	xorlw	128
  3763  0449  00FF               	movwf	btemp+1
  3764  044A  3080               	movlw	128
  3765  044B  027F               	subwf	btemp+1,w
  3766  044C  1D03               	skipz
  3767  044D  2C50               	goto	u1905
  3768  044E  30FF               	movlw	255
  3769  044F  0232               	subwf	___fldiv@new_exp,w
  3770  0450                     u1905:
  3771  0450  1C03               	skipc
  3772  0451  2C53               	goto	u1901
  3773  0452  2C54               	goto	u1900
  3774  0453                     u1901:
  3775  0453  2C62               	goto	l1723
  3776  0454                     u1900:
  3777  0454                     l1721:
  3778  0454  30FF               	movlw	255
  3779  0455  1283               	bcf	3,5	;RP0=0, select bank0
  3780  0456  1303               	bcf	3,6	;RP1=0, select bank0
  3781  0457  00B2               	movwf	___fldiv@new_exp
  3782  0458  3000               	movlw	0
  3783  0459  00B3               	movwf	___fldiv@new_exp+1
  3784  045A  3000               	movlw	0
  3785  045B  00A7               	movwf	___fldiv@b+3
  3786  045C  3000               	movlw	0
  3787  045D  00A6               	movwf	___fldiv@b+2
  3788  045E  3000               	movlw	0
  3789  045F  00A5               	movwf	___fldiv@b+1
  3790  0460  3000               	movlw	0
  3791  0461  00A4               	movwf	___fldiv@b
  3792  0462                     l1723:
  3793  0462  1283               	bcf	3,5	;RP0=0, select bank0
  3794  0463  1303               	bcf	3,6	;RP1=0, select bank0
  3795  0464  0833               	movf	___fldiv@new_exp+1,w
  3796  0465  3A80               	xorlw	128
  3797  0466  00FF               	movwf	btemp+1
  3798  0467  3080               	movlw	128
  3799  0468  027F               	subwf	btemp+1,w
  3800  0469  1D03               	skipz
  3801  046A  2C6D               	goto	u1915
  3802  046B  3001               	movlw	1
  3803  046C  0232               	subwf	___fldiv@new_exp,w
  3804  046D                     u1915:
  3805  046D  1803               	skipnc
  3806  046E  2C70               	goto	u1911
  3807  046F  2C71               	goto	u1910
  3808  0470                     u1911:
  3809  0470  2C7E               	goto	l568
  3810  0471                     u1910:
  3811  0471                     l1725:
  3812  0471  1283               	bcf	3,5	;RP0=0, select bank0
  3813  0472  1303               	bcf	3,6	;RP1=0, select bank0
  3814  0473  01B2               	clrf	___fldiv@new_exp
  3815  0474  01B3               	clrf	___fldiv@new_exp+1
  3816  0475                     l1727:
  3817  0475  3000               	movlw	0
  3818  0476  00A7               	movwf	___fldiv@b+3
  3819  0477  3000               	movlw	0
  3820  0478  00A6               	movwf	___fldiv@b+2
  3821  0479  3000               	movlw	0
  3822  047A  00A5               	movwf	___fldiv@b+1
  3823  047B  3000               	movlw	0
  3824  047C  00A4               	movwf	___fldiv@b
  3825  047D                     l1729:
  3826  047D  01B1               	clrf	___fldiv@sign
  3827  047E                     l568:
  3828  047E  1283               	bcf	3,5	;RP0=0, select bank0
  3829  047F  1303               	bcf	3,6	;RP1=0, select bank0
  3830  0480  0832               	movf	___fldiv@new_exp,w
  3831  0481  00A8               	movwf	??___fldiv
  3832  0482  0828               	movf	??___fldiv,w
  3833  0483  00B8               	movwf	___fldiv@bexp
  3834  0484                     l1731:
  3835  0484  1C38               	btfss	___fldiv@bexp,0
  3836  0485  2C87               	goto	u1921
  3837  0486  2C88               	goto	u1920
  3838  0487                     u1921:
  3839  0487  2C8A               	goto	l1735
  3840  0488                     u1920:
  3841  0488                     l1733:
  3842  0488  17A6               	bsf	___fldiv@b+2,7
  3843  0489  2C8E               	goto	l570
  3844  048A                     l1735:
  3845  048A  307F               	movlw	127
  3846  048B  00A8               	movwf	??___fldiv
  3847  048C  0828               	movf	??___fldiv,w
  3848  048D  05A6               	andwf	___fldiv@b+2,f
  3849  048E                     l570:
  3850  048E  0838               	movf	___fldiv@bexp,w
  3851  048F  00A8               	movwf	??___fldiv
  3852  0490  1003               	clrc
  3853  0491  0C28               	rrf	??___fldiv,w
  3854  0492  00A9               	movwf	??___fldiv+1
  3855  0493  0829               	movf	??___fldiv+1,w
  3856  0494  00A7               	movwf	___fldiv@b+3
  3857  0495  0831               	movf	___fldiv@sign,w
  3858  0496  00A8               	movwf	??___fldiv
  3859  0497  0828               	movf	??___fldiv,w
  3860  0498  04A7               	iorwf	___fldiv@b+3,f
  3861  0499  2B32               	goto	l1643
  3862  049A                     l548:
  3863  049A  0008               	return
  3864  049B                     __end_of___fldiv:
  3865                           
  3866                           	psect	text9
  3867  0EC1                     __ptext9:	
  3868 ;; *************** function _LCD_Init *****************
  3869 ;; Defined at:
  3870 ;;		line 62 in file "newmain.c"
  3871 ;; Parameters:    Size  Location     Type
  3872 ;;		None
  3873 ;; Auto vars:     Size  Location     Type
  3874 ;;		None
  3875 ;; Return value:  Size  Location     Type
  3876 ;;                  1    wreg      void 
  3877 ;; Registers used:
  3878 ;;		wreg, status,2, status,0, pclath, cstack
  3879 ;; Tracked objects:
  3880 ;;		On entry : 0/0
  3881 ;;		On exit  : 0/0
  3882 ;;		Unchanged: 0/0
  3883 ;; Data sizes:     COMMON   BANK0   BANK1   BANK3   BANK2
  3884 ;;      Params:         0       0       0       0       0
  3885 ;;      Locals:         0       0       0       0       0
  3886 ;;      Temps:          2       0       0       0       0
  3887 ;;      Totals:         2       0       0       0       0
  3888 ;;Total ram usage:        2 bytes
  3889 ;; Hardware stack levels used: 1
  3890 ;; Hardware stack levels required when called: 1
  3891 ;; This function calls:
  3892 ;;		_LCD_Cmd
  3893 ;;		_LCD_Cmd_Init
  3894 ;; This function is called by:
  3895 ;;		_main
  3896 ;; This function uses a non-reentrant model
  3897 ;;
  3898                           
  3899                           
  3900                           ;psect for function _LCD_Init
  3901  0EC1                     _LCD_Init:
  3902  0EC1                     l1467:	
  3903                           ;incstack = 0
  3904                           ; Regs used in _LCD_Init: [wreg+status,2+status,0+pclath+cstack]
  3905                           
  3906                           
  3907                           ;newmain.c: 64:     TRISBbits.TRISB6 = 0;
  3908  0EC1  1683               	bsf	3,5	;RP0=1, select bank1
  3909  0EC2  1303               	bcf	3,6	;RP1=0, select bank1
  3910  0EC3  1306               	bcf	6,6	;volatile
  3911                           
  3912                           ;newmain.c: 65:     TRISBbits.TRISB7 = 0;
  3913  0EC4  1386               	bcf	6,7	;volatile
  3914  0EC5                     l1469:
  3915                           
  3916                           ;newmain.c: 66:     TRISC = 0;
  3917  0EC5  0187               	clrf	7	;volatile
  3918  0EC6                     l1471:
  3919                           
  3920                           ;newmain.c: 69:  LCD_Cmd_Init(0x30);
  3921  0EC6  3030               	movlw	48
  3922  0EC7  120A  158A  25B4  120A  158A  	fcall	_LCD_Cmd_Init
  3923  0ECC                     l1473:
  3924                           
  3925                           ;newmain.c: 70:  _delay((unsigned long)((5)*(20000000/4000.0)));
  3926  0ECC  3021               	movlw	33
  3927  0ECD  00F4               	movwf	??_LCD_Init+1
  3928  0ECE  3076               	movlw	118
  3929  0ECF  00F3               	movwf	??_LCD_Init
  3930  0ED0                     u2527:
  3931  0ED0  0BF3               	decfsz	??_LCD_Init,f
  3932  0ED1  2ED0               	goto	u2527
  3933  0ED2  0BF4               	decfsz	??_LCD_Init+1,f
  3934  0ED3  2ED0               	goto	u2527
  3935  0ED4  0000               	nop
  3936  0ED5                     l1475:
  3937                           
  3938                           ;newmain.c: 71:  LCD_Cmd_Init(0x30);
  3939  0ED5  3030               	movlw	48
  3940  0ED6  120A  158A  25B4  120A  158A  	fcall	_LCD_Cmd_Init
  3941  0EDB                     l1477:
  3942                           
  3943                           ;newmain.c: 72:  _delay((unsigned long)((1)*(20000000/4000.0)));
  3944  0EDB  3007               	movlw	7
  3945  0EDC  00F4               	movwf	??_LCD_Init+1
  3946  0EDD  307D               	movlw	125
  3947  0EDE  00F3               	movwf	??_LCD_Init
  3948  0EDF                     u2537:
  3949  0EDF  0BF3               	decfsz	??_LCD_Init,f
  3950  0EE0  2EDF               	goto	u2537
  3951  0EE1  0BF4               	decfsz	??_LCD_Init+1,f
  3952  0EE2  2EDF               	goto	u2537
  3953  0EE3                     l1479:
  3954                           
  3955                           ;newmain.c: 73:  LCD_Cmd_Init(0x30);
  3956  0EE3  3030               	movlw	48
  3957  0EE4  120A  158A  25B4  120A  158A  	fcall	_LCD_Cmd_Init
  3958  0EE9                     l1481:
  3959                           
  3960                           ;newmain.c: 77:     LCD_Cmd_Init(0x28);
  3961  0EE9  3028               	movlw	40
  3962  0EEA  120A  158A  25B4  120A  158A  	fcall	_LCD_Cmd_Init
  3963  0EEF                     l1483:
  3964                           
  3965                           ;newmain.c: 80:  LCD_Cmd(0x28);
  3966  0EEF  3028               	movlw	40
  3967  0EF0  120A  158A  2659  120A  158A  	fcall	_LCD_Cmd
  3968  0EF5                     l1485:
  3969                           
  3970                           ;newmain.c: 91:  LCD_Cmd(0x01);
  3971  0EF5  3001               	movlw	1
  3972  0EF6  120A  158A  2659  120A  158A  	fcall	_LCD_Cmd
  3973  0EFB                     l1487:
  3974                           
  3975                           ;newmain.c: 97:     LCD_Cmd(0x0E);
  3976  0EFB  300E               	movlw	14
  3977  0EFC  120A  158A  2659  120A  158A  	fcall	_LCD_Cmd
  3978  0F01                     l33:
  3979  0F01  0008               	return
  3980  0F02                     __end_of_LCD_Init:
  3981                           
  3982                           	psect	text10
  3983  0DB4                     __ptext10:	
  3984 ;; *************** function _LCD_Cmd_Init *****************
  3985 ;; Defined at:
  3986 ;;		line 54 in file "newmain.c"
  3987 ;; Parameters:    Size  Location     Type
  3988 ;;  cmd             1    wreg     unsigned char 
  3989 ;; Auto vars:     Size  Location     Type
  3990 ;;  cmd             1    1[COMMON] unsigned char 
  3991 ;; Return value:  Size  Location     Type
  3992 ;;                  1    wreg      void 
  3993 ;; Registers used:
  3994 ;;		wreg
  3995 ;; Tracked objects:
  3996 ;;		On entry : 0/0
  3997 ;;		On exit  : 0/0
  3998 ;;		Unchanged: 0/0
  3999 ;; Data sizes:     COMMON   BANK0   BANK1   BANK3   BANK2
  4000 ;;      Params:         0       0       0       0       0
  4001 ;;      Locals:         1       0       0       0       0
  4002 ;;      Temps:          1       0       0       0       0
  4003 ;;      Totals:         2       0       0       0       0
  4004 ;;Total ram usage:        2 bytes
  4005 ;; Hardware stack levels used: 1
  4006 ;; This function calls:
  4007 ;;		Nothing
  4008 ;; This function is called by:
  4009 ;;		_LCD_Init
  4010 ;; This function uses a non-reentrant model
  4011 ;;
  4012                           
  4013                           
  4014                           ;psect for function _LCD_Cmd_Init
  4015  0DB4                     _LCD_Cmd_Init:
  4016                           
  4017                           ;incstack = 0
  4018                           ; Regs used in _LCD_Cmd_Init: [wreg]
  4019                           ;LCD_Cmd_Init@cmd stored from wreg
  4020  0DB4  00F1               	movwf	LCD_Cmd_Init@cmd
  4021  0DB5                     l1389:
  4022                           
  4023                           ;newmain.c: 54: void LCD_Cmd_Init(unsigned char cmd);newmain.c: 55: {;newmain.c: 56:  PO
      +                          RTBbits.RB6 = 0;
  4024  0DB5  1283               	bcf	3,5	;RP0=0, select bank0
  4025  0DB6  1303               	bcf	3,6	;RP1=0, select bank0
  4026  0DB7  1306               	bcf	6,6	;volatile
  4027  0DB8                     l1391:
  4028                           
  4029                           ;newmain.c: 57:  PORTC = cmd;
  4030  0DB8  0871               	movf	LCD_Cmd_Init@cmd,w
  4031  0DB9  0087               	movwf	7	;volatile
  4032  0DBA                     l1393:
  4033                           
  4034                           ;newmain.c: 58:  PORTBbits.RB7 = 1;
  4035  0DBA  1786               	bsf	6,7	;volatile
  4036  0DBB                     l1395:
  4037                           
  4038                           ;newmain.c: 59:  PORTBbits.RB7 = 0;
  4039  0DBB  1386               	bcf	6,7	;volatile
  4040                           
  4041                           ;newmain.c: 60:     _delay((unsigned long)((40)*(20000000/4000000.0)));
  4042  0DBC  3042               	movlw	66
  4043  0DBD  00F0               	movwf	??_LCD_Cmd_Init
  4044  0DBE                     u2547:
  4045  0DBE  0BF0               	decfsz	??_LCD_Cmd_Init,f
  4046  0DBF  2DBE               	goto	u2547
  4047  0DC0  0000               	nop
  4048  0DC1                     l30:
  4049  0DC1  0008               	return
  4050  0DC2                     __end_of_LCD_Cmd_Init:
  4051                           
  4052                           	psect	text11
  4053  0DE0                     __ptext11:	
  4054 ;; *************** function _LCD_GotoCursor_String *****************
  4055 ;; Defined at:
  4056 ;;		line 132 in file "newmain.c"
  4057 ;; Parameters:    Size  Location     Type
  4058 ;;  row             1    wreg     unsigned char 
  4059 ;;  col             1    7[COMMON] unsigned char 
  4060 ;;  str             2    8[COMMON] PTR unsigned char 
  4061 ;;		 -> main@bufferf(6), STR_4(5), main@bufferT(6), STR_1(5), 
  4062 ;; Auto vars:     Size  Location     Type
  4063 ;;  row             1    0[BANK0 ] unsigned char 
  4064 ;;  cmd             1    3[BANK0 ] unsigned char 
  4065 ;; Return value:  Size  Location     Type
  4066 ;;                  1    wreg      void 
  4067 ;; Registers used:
  4068 ;;		wreg, fsr0l, fsr0h, status,2, status,0, btemp+1, pclath, cstack
  4069 ;; Tracked objects:
  4070 ;;		On entry : 0/0
  4071 ;;		On exit  : 0/0
  4072 ;;		Unchanged: 0/0
  4073 ;; Data sizes:     COMMON   BANK0   BANK1   BANK3   BANK2
  4074 ;;      Params:         3       0       0       0       0
  4075 ;;      Locals:         0       4       0       0       0
  4076 ;;      Temps:          1       0       0       0       0
  4077 ;;      Totals:         4       4       0       0       0
  4078 ;;Total ram usage:        8 bytes
  4079 ;; Hardware stack levels used: 1
  4080 ;; Hardware stack levels required when called: 2
  4081 ;; This function calls:
  4082 ;;		_LCD_Cmd
  4083 ;;		_LCD_String
  4084 ;; This function is called by:
  4085 ;;		_main
  4086 ;; This function uses a non-reentrant model
  4087 ;;
  4088                           
  4089                           
  4090                           ;psect for function _LCD_GotoCursor_String
  4091  0DE0                     _LCD_GotoCursor_String:
  4092                           
  4093                           ;incstack = 0
  4094                           ; Regs used in _LCD_GotoCursor_String: [wreg-fsr0h+status,2+status,0+btemp+1+pclath+csta
      +                          ck]
  4095                           ;LCD_GotoCursor_String@row stored from wreg
  4096  0DE0  1283               	bcf	3,5	;RP0=0, select bank0
  4097  0DE1  1303               	bcf	3,6	;RP1=0, select bank0
  4098  0DE2  00A0               	movwf	LCD_GotoCursor_String@row
  4099  0DE3                     l1489:
  4100                           
  4101                           ;newmain.c: 132: void LCD_GotoCursor_String(unsigned char row, unsigned char col, char *
      +                          str);newmain.c: 133: {;newmain.c: 134:  unsigned char cmd;;newmain.c: 135:  cmd = (row==
      +                          1?0x80:0xC0) + col - 1;
  4102  0DE3  0320               	decf	LCD_GotoCursor_String@row,w
  4103  0DE4  1903               	btfsc	3,2
  4104  0DE5  2DE7               	goto	u1461
  4105  0DE6  2DE8               	goto	u1460
  4106  0DE7                     u1461:
  4107  0DE7  2DED               	goto	l1493
  4108  0DE8                     u1460:
  4109  0DE8                     l1491:
  4110  0DE8  30C0               	movlw	192
  4111  0DE9  00A1               	movwf	_LCD_GotoCursor_String$202
  4112  0DEA  3000               	movlw	0
  4113  0DEB  00A2               	movwf	_LCD_GotoCursor_String$202+1
  4114  0DEC  2DF1               	goto	l1495
  4115  0DED                     l1493:
  4116  0DED  3080               	movlw	128
  4117  0DEE  00A1               	movwf	_LCD_GotoCursor_String$202
  4118  0DEF  3000               	movlw	0
  4119  0DF0  00A2               	movwf	_LCD_GotoCursor_String$202+1
  4120  0DF1                     l1495:
  4121  0DF1  0877               	movf	LCD_GotoCursor_String@col,w
  4122  0DF2  0721               	addwf	_LCD_GotoCursor_String$202,w
  4123  0DF3  3EFF               	addlw	255
  4124  0DF4  00FA               	movwf	??_LCD_GotoCursor_String
  4125  0DF5  087A               	movf	??_LCD_GotoCursor_String,w
  4126  0DF6  00A3               	movwf	LCD_GotoCursor_String@cmd
  4127  0DF7                     l1497:
  4128                           
  4129                           ;newmain.c: 136:  LCD_Cmd(cmd);
  4130  0DF7  0823               	movf	LCD_GotoCursor_String@cmd,w
  4131  0DF8  120A  158A  2659  120A  158A  	fcall	_LCD_Cmd
  4132  0DFD                     l1499:
  4133                           
  4134                           ;newmain.c: 137:  LCD_String(str);
  4135  0DFD  0878               	movf	LCD_GotoCursor_String@str,w
  4136  0DFE  00F3               	movwf	LCD_String@str
  4137  0DFF  0879               	movf	LCD_GotoCursor_String@str+1,w
  4138  0E00  00F4               	movwf	LCD_String@str+1
  4139  0E01  120A  158A  262E  120A  158A  	fcall	_LCD_String
  4140  0E06                     l63:
  4141  0E06  0008               	return
  4142  0E07                     __end_of_LCD_GotoCursor_String:
  4143                           
  4144                           	psect	text12
  4145  0E2E                     __ptext12:	
  4146 ;; *************** function _LCD_String *****************
  4147 ;; Defined at:
  4148 ;;		line 110 in file "newmain.c"
  4149 ;; Parameters:    Size  Location     Type
  4150 ;;  str             2    3[COMMON] PTR unsigned char 
  4151 ;;		 -> STR_6(4), main@bufferf(6), STR_4(5), STR_3(4), 
  4152 ;;		 -> main@bufferT(6), STR_1(5), 
  4153 ;; Auto vars:     Size  Location     Type
  4154 ;;  i               1    6[COMMON] unsigned char 
  4155 ;; Return value:  Size  Location     Type
  4156 ;;                  1    wreg      void 
  4157 ;; Registers used:
  4158 ;;		wreg, fsr0l, fsr0h, status,2, status,0, btemp+1, pclath, cstack
  4159 ;; Tracked objects:
  4160 ;;		On entry : 0/0
  4161 ;;		On exit  : 0/0
  4162 ;;		Unchanged: 0/0
  4163 ;; Data sizes:     COMMON   BANK0   BANK1   BANK3   BANK2
  4164 ;;      Params:         2       0       0       0       0
  4165 ;;      Locals:         1       0       0       0       0
  4166 ;;      Temps:          1       0       0       0       0
  4167 ;;      Totals:         4       0       0       0       0
  4168 ;;Total ram usage:        4 bytes
  4169 ;; Hardware stack levels used: 1
  4170 ;; Hardware stack levels required when called: 1
  4171 ;; This function calls:
  4172 ;;		_LCD_Char
  4173 ;; This function is called by:
  4174 ;;		_LCD_GotoCursor_String
  4175 ;;		_main
  4176 ;; This function uses a non-reentrant model
  4177 ;;
  4178                           
  4179                           
  4180                           ;psect for function _LCD_String
  4181  0E2E                     _LCD_String:
  4182  0E2E                     l1397:	
  4183                           ;incstack = 0
  4184                           ; Regs used in _LCD_String: [wreg-fsr0h+status,2+status,0+btemp+1+pclath+cstack]
  4185                           
  4186                           
  4187                           ;newmain.c: 110: void LCD_String(char *str);newmain.c: 111: {;newmain.c: 112:  unsigned 
      +                          char i = 0;
  4188  0E2E  01F6               	clrf	LCD_String@i
  4189                           
  4190                           ;newmain.c: 113:  while(str[i] != 0)
  4191  0E2F  2E45               	goto	l1403
  4192  0E30                     l1399:
  4193                           
  4194                           ;newmain.c: 114:  {;newmain.c: 115:   LCD_Char(str[i]);
  4195  0E30  0876               	movf	LCD_String@i,w
  4196  0E31  0773               	addwf	LCD_String@str,w
  4197  0E32  0084               	movwf	4
  4198  0E33  0874               	movf	LCD_String@str+1,w
  4199  0E34  1803               	skipnc
  4200  0E35  0A74               	incf	LCD_String@str+1,w
  4201  0E36  00FF               	movwf	btemp+1
  4202  0E37  120A  158A  2000  120A  158A  	fcall	stringtab
  4203  0E3C  120A  158A  25C2  120A  158A  	fcall	_LCD_Char
  4204  0E41                     l1401:
  4205                           
  4206                           ;newmain.c: 116:   i++;
  4207  0E41  3001               	movlw	1
  4208  0E42  00F5               	movwf	??_LCD_String
  4209  0E43  0875               	movf	??_LCD_String,w
  4210  0E44  07F6               	addwf	LCD_String@i,f
  4211  0E45                     l1403:
  4212                           
  4213                           ;newmain.c: 113:  while(str[i] != 0)
  4214  0E45  0876               	movf	LCD_String@i,w
  4215  0E46  0773               	addwf	LCD_String@str,w
  4216  0E47  0084               	movwf	4
  4217  0E48  0874               	movf	LCD_String@str+1,w
  4218  0E49  1803               	skipnc
  4219  0E4A  0A74               	incf	LCD_String@str+1,w
  4220  0E4B  1283               	bcf	3,5	;RP0=0, select bank0
  4221  0E4C  1303               	bcf	3,6	;RP1=0, select bank0
  4222  0E4D  00FF               	movwf	btemp+1
  4223  0E4E  120A  158A  2000  120A  158A  	fcall	stringtab
  4224  0E53  3A00               	xorlw	0
  4225  0E54  1D03               	skipz
  4226  0E55  2E57               	goto	u1291
  4227  0E56  2E58               	goto	u1290
  4228  0E57                     u1291:
  4229  0E57  2E30               	goto	l1399
  4230  0E58                     u1290:
  4231  0E58                     l42:
  4232  0E58  0008               	return
  4233  0E59                     __end_of_LCD_String:
  4234                           
  4235                           	psect	text13
  4236  0DC2                     __ptext13:	
  4237 ;; *************** function _LCD_Char *****************
  4238 ;; Defined at:
  4239 ;;		line 99 in file "newmain.c"
  4240 ;; Parameters:    Size  Location     Type
  4241 ;;  c               1    wreg     unsigned char 
  4242 ;; Auto vars:     Size  Location     Type
  4243 ;;  c               1    2[COMMON] unsigned char 
  4244 ;; Return value:  Size  Location     Type
  4245 ;;                  1    wreg      void 
  4246 ;; Registers used:
  4247 ;;		wreg, status,2, status,0
  4248 ;; Tracked objects:
  4249 ;;		On entry : 0/0
  4250 ;;		On exit  : 0/0
  4251 ;;		Unchanged: 0/0
  4252 ;; Data sizes:     COMMON   BANK0   BANK1   BANK3   BANK2
  4253 ;;      Params:         0       0       0       0       0
  4254 ;;      Locals:         1       0       0       0       0
  4255 ;;      Temps:          2       0       0       0       0
  4256 ;;      Totals:         3       0       0       0       0
  4257 ;;Total ram usage:        3 bytes
  4258 ;; Hardware stack levels used: 1
  4259 ;; This function calls:
  4260 ;;		Nothing
  4261 ;; This function is called by:
  4262 ;;		_LCD_String
  4263 ;;		_LCD_GotoCursor_Char
  4264 ;; This function uses a non-reentrant model
  4265 ;;
  4266                           
  4267                           
  4268                           ;psect for function _LCD_Char
  4269  0DC2                     _LCD_Char:
  4270                           
  4271                           ;incstack = 0
  4272                           ; Regs used in _LCD_Char: [wreg+status,2+status,0]
  4273                           ;LCD_Char@c stored from wreg
  4274  0DC2  00F2               	movwf	LCD_Char@c
  4275  0DC3                     l1353:
  4276                           
  4277                           ;newmain.c: 99: void LCD_Char(unsigned char c);newmain.c: 100: {;newmain.c: 101:  PORTBb
      +                          its.RB6 = 1;
  4278  0DC3  1283               	bcf	3,5	;RP0=0, select bank0
  4279  0DC4  1303               	bcf	3,6	;RP1=0, select bank0
  4280  0DC5  1706               	bsf	6,6	;volatile
  4281  0DC6                     l1355:
  4282                           
  4283                           ;newmain.c: 102:  PORTC = c;
  4284  0DC6  0872               	movf	LCD_Char@c,w
  4285  0DC7  0087               	movwf	7	;volatile
  4286  0DC8                     l1357:
  4287                           
  4288                           ;newmain.c: 103:  PORTBbits.RB7 = 1;
  4289  0DC8  1786               	bsf	6,7	;volatile
  4290  0DC9                     l1359:
  4291                           
  4292                           ;newmain.c: 104:  PORTBbits.RB7 = 0;
  4293  0DC9  1386               	bcf	6,7	;volatile
  4294  0DCA                     l1361:
  4295                           
  4296                           ;newmain.c: 105:     PORTC = c << 4;
  4297  0DCA  0872               	movf	LCD_Char@c,w
  4298  0DCB  00F0               	movwf	??_LCD_Char
  4299  0DCC  3003               	movlw	3
  4300  0DCD                     u1265:
  4301  0DCD  1003               	clrc
  4302  0DCE  0DF0               	rlf	??_LCD_Char,f
  4303  0DCF  3EFF               	addlw	-1
  4304  0DD0  1D03               	skipz
  4305  0DD1  2DCD               	goto	u1265
  4306  0DD2  1003               	clrc
  4307  0DD3  0D70               	rlf	??_LCD_Char,w
  4308  0DD4  0087               	movwf	7	;volatile
  4309  0DD5                     l1363:
  4310                           
  4311                           ;newmain.c: 106:  PORTBbits.RB7 = 1;
  4312  0DD5  1786               	bsf	6,7	;volatile
  4313  0DD6                     l1365:
  4314                           
  4315                           ;newmain.c: 107:  PORTBbits.RB7 = 0;
  4316  0DD6  1386               	bcf	6,7	;volatile
  4317  0DD7                     l1367:
  4318                           
  4319                           ;newmain.c: 108:  _delay((unsigned long)((1)*(20000000/4000.0)));
  4320  0DD7  3007               	movlw	7
  4321  0DD8  00F1               	movwf	??_LCD_Char+1
  4322  0DD9  307D               	movlw	125
  4323  0DDA  00F0               	movwf	??_LCD_Char
  4324  0DDB                     u2557:
  4325  0DDB  0BF0               	decfsz	??_LCD_Char,f
  4326  0DDC  2DDB               	goto	u2557
  4327  0DDD  0BF1               	decfsz	??_LCD_Char+1,f
  4328  0DDE  2DDB               	goto	u2557
  4329  0DDF                     l36:
  4330  0DDF  0008               	return
  4331  0DE0                     __end_of_LCD_Char:
  4332                           
  4333                           	psect	text14
  4334  0E59                     __ptext14:	
  4335 ;; *************** function _LCD_Cmd *****************
  4336 ;; Defined at:
  4337 ;;		line 36 in file "newmain.c"
  4338 ;; Parameters:    Size  Location     Type
  4339 ;;  cmd             1    wreg     unsigned char 
  4340 ;; Auto vars:     Size  Location     Type
  4341 ;;  cmd             1    2[COMMON] unsigned char 
  4342 ;; Return value:  Size  Location     Type
  4343 ;;                  1    wreg      void 
  4344 ;; Registers used:
  4345 ;;		wreg, status,2, status,0
  4346 ;; Tracked objects:
  4347 ;;		On entry : 0/0
  4348 ;;		On exit  : 0/0
  4349 ;;		Unchanged: 0/0
  4350 ;; Data sizes:     COMMON   BANK0   BANK1   BANK3   BANK2
  4351 ;;      Params:         0       0       0       0       0
  4352 ;;      Locals:         1       0       0       0       0
  4353 ;;      Temps:          2       0       0       0       0
  4354 ;;      Totals:         3       0       0       0       0
  4355 ;;Total ram usage:        3 bytes
  4356 ;; Hardware stack levels used: 1
  4357 ;; This function calls:
  4358 ;;		Nothing
  4359 ;; This function is called by:
  4360 ;;		_LCD_Init
  4361 ;;		_LCD_GotoCursor_String
  4362 ;;		_LCD_GotoCursor
  4363 ;;		_LCD_GotoCursor_Char
  4364 ;; This function uses a non-reentrant model
  4365 ;;
  4366                           
  4367                           
  4368                           ;psect for function _LCD_Cmd
  4369  0E59                     _LCD_Cmd:
  4370                           
  4371                           ;incstack = 0
  4372                           ; Regs used in _LCD_Cmd: [wreg+status,2+status,0]
  4373                           ;LCD_Cmd@cmd stored from wreg
  4374  0E59  00F2               	movwf	LCD_Cmd@cmd
  4375  0E5A                     l1369:
  4376                           
  4377                           ;newmain.c: 36: void LCD_Cmd(unsigned char cmd);newmain.c: 37: {;newmain.c: 38:  PORTBbi
      +                          ts.RB6 = 0;
  4378  0E5A  1283               	bcf	3,5	;RP0=0, select bank0
  4379  0E5B  1303               	bcf	3,6	;RP1=0, select bank0
  4380  0E5C  1306               	bcf	6,6	;volatile
  4381  0E5D                     l1371:
  4382                           
  4383                           ;newmain.c: 39:  PORTC = cmd;
  4384  0E5D  0872               	movf	LCD_Cmd@cmd,w
  4385  0E5E  0087               	movwf	7	;volatile
  4386  0E5F                     l1373:
  4387                           
  4388                           ;newmain.c: 40:  PORTBbits.RB7 = 1;
  4389  0E5F  1786               	bsf	6,7	;volatile
  4390  0E60                     l1375:
  4391                           
  4392                           ;newmain.c: 41:  PORTBbits.RB7 = 0;
  4393  0E60  1386               	bcf	6,7	;volatile
  4394  0E61                     l1377:
  4395                           
  4396                           ;newmain.c: 42:     PORTC = cmd << 4;
  4397  0E61  0872               	movf	LCD_Cmd@cmd,w
  4398  0E62  00F0               	movwf	??_LCD_Cmd
  4399  0E63  3003               	movlw	3
  4400  0E64                     u1275:
  4401  0E64  1003               	clrc
  4402  0E65  0DF0               	rlf	??_LCD_Cmd,f
  4403  0E66  3EFF               	addlw	-1
  4404  0E67  1D03               	skipz
  4405  0E68  2E64               	goto	u1275
  4406  0E69  1003               	clrc
  4407  0E6A  0D70               	rlf	??_LCD_Cmd,w
  4408  0E6B  0087               	movwf	7	;volatile
  4409  0E6C                     l1379:
  4410                           
  4411                           ;newmain.c: 43:  PORTBbits.RB7 = 1;
  4412  0E6C  1786               	bsf	6,7	;volatile
  4413  0E6D                     l1381:
  4414                           
  4415                           ;newmain.c: 44:  PORTBbits.RB7 = 0;
  4416  0E6D  1386               	bcf	6,7	;volatile
  4417  0E6E                     l1383:
  4418                           
  4419                           ;newmain.c: 45:  if( cmd <= 0x02)
  4420  0E6E  3003               	movlw	3
  4421  0E6F  0272               	subwf	LCD_Cmd@cmd,w
  4422  0E70  1803               	skipnc
  4423  0E71  2E73               	goto	u1281
  4424  0E72  2E74               	goto	u1280
  4425  0E73                     u1281:
  4426  0E73  2E7E               	goto	l1387
  4427  0E74                     u1280:
  4428  0E74                     l1385:
  4429                           
  4430                           ;newmain.c: 46:  {;newmain.c: 47:   _delay((unsigned long)((2)*(20000000/4000.0)));
  4431  0E74  300D               	movlw	13
  4432  0E75  00F1               	movwf	??_LCD_Cmd+1
  4433  0E76  30FB               	movlw	251
  4434  0E77  00F0               	movwf	??_LCD_Cmd
  4435  0E78                     u2567:
  4436  0E78  0BF0               	decfsz	??_LCD_Cmd,f
  4437  0E79  2E78               	goto	u2567
  4438  0E7A  0BF1               	decfsz	??_LCD_Cmd+1,f
  4439  0E7B  2E78               	goto	u2567
  4440  0E7C  2E7D               	nop2
  4441                           
  4442                           ;newmain.c: 48:  }
  4443  0E7D  2E86               	goto	l27
  4444  0E7E                     l1387:
  4445                           
  4446                           ;newmain.c: 50:  {;newmain.c: 51:   _delay((unsigned long)((1)*(20000000/4000.0)));
  4447  0E7E  3007               	movlw	7
  4448  0E7F  00F1               	movwf	??_LCD_Cmd+1
  4449  0E80  307D               	movlw	125
  4450  0E81  00F0               	movwf	??_LCD_Cmd
  4451  0E82                     u2577:
  4452  0E82  0BF0               	decfsz	??_LCD_Cmd,f
  4453  0E83  2E82               	goto	u2577
  4454  0E84  0BF1               	decfsz	??_LCD_Cmd+1,f
  4455  0E85  2E82               	goto	u2577
  4456  0E86                     l27:
  4457  0E86  0008               	return
  4458  0E87                     __end_of_LCD_Cmd:
  4459  007E                     btemp	set	126	;btemp
  4460  007E                     wtemp0	set	126
  4461                           
  4462                           	psect	config
  4463                           
  4464                           ;Config register CONFIG @ 0x2007
  4465                           ;	Oscillator Selection bits
  4466                           ;	FOSC = HS, HS oscillator
  4467                           ;	Watchdog Timer Enable bit
  4468                           ;	WDTE = OFF, WDT disabled
  4469                           ;	Power-up Timer Enable bit
  4470                           ;	PWRTE = OFF, PWRT disabled
  4471                           ;	Brown-out Reset Enable bit
  4472                           ;	BOREN = OFF, BOR disabled
  4473                           ;	Low-Voltage (Single-Supply) In-Circuit Serial Programming Enable bit
  4474                           ;	LVP = OFF, RB3 is digital I/O, HV on MCLR must be used for programming
  4475                           ;	Data EEPROM Memory Code Protection bit
  4476                           ;	CPD = OFF, Data EEPROM code protection off
  4477                           ;	Flash Program Memory Write Enable bits
  4478                           ;	WRT = OFF, Write protection off; all program memory may be written to by EECON control
  4479                           ;	In-Circuit Debugger Mode bit
  4480                           ;	DEBUG = 0x1, unprogrammed default
  4481                           ;	Flash Program Memory Code Protection bit
  4482                           ;	CP = OFF, Code protection off
  4483  2007                     	org	8199
  4484  2007  3F3A               	dw	16186

Data Sizes:
    Strings     21
    Constant    10
    Data        0
    BSS         0
    Persistent  0
    Stack       0

Auto Spaces:
    Space          Size  Autos    Used
    COMMON           14     14      14
    BANK0            80     66      66
    BANK1            80     20      20
    BANK3            96      0       0
    BANK2            96      0       0

Pointer List with Targets:

    sprintf@f	PTR const unsigned char  size(1) Largest target is 3
		 -> STR_5(CODE[3]), STR_2(CODE[3]), 

    sprintf@sp	PTR unsigned char  size(1) Largest target is 6
		 -> main@bufferf(BANK1[6]), main@bufferT(BANK1[6]), 

    sprintf@ap	PTR void [1] size(1) Largest target is 2
		 -> ?_sprintf(BANK0[2]), 

    LCD_GotoCursor_String@str	PTR unsigned char  size(2) Largest target is 6
		 -> main@bufferf(BANK1[6]), STR_4(CODE[5]), main@bufferT(BANK1[6]), STR_1(CODE[5]), 

    LCD_String@str	PTR unsigned char  size(2) Largest target is 6
		 -> STR_6(CODE[4]), main@bufferf(BANK1[6]), STR_4(CODE[5]), STR_3(CODE[4]), 
		 -> main@bufferT(BANK1[6]), STR_1(CODE[5]), 


Critical Paths under _main in COMMON

    _main->___xxtofl
    _sprintf->___lwmod
    ___lwmod->___lwdiv
    ___fltol->___xxtofl
    ___flmul->___xxtofl
    ___fldiv->___xxtofl
    _LCD_Init->_LCD_Cmd
    _LCD_GotoCursor_String->_LCD_String
    _LCD_String->_LCD_Char

Critical Paths under _main in BANK0

    _main->___fltol
    ___fltol->___flmul
    ___flmul->___fldiv

Critical Paths under _main in BANK1

    None.

Critical Paths under _main in BANK3

    None.

Critical Paths under _main in BANK2

    None.

Call Graph Tables:

 ---------------------------------------------------------------------------------
 (Depth) Function   	        Calls       Base Space   Used Autos Params    Refs
 ---------------------------------------------------------------------------------
 (0) _main                                                23    23      0    8131
                                             63 BANK0      3     3      0
                                              0 BANK1     20    20      0
              _LCD_GotoCursor_String
                           _LCD_Init
                         _LCD_String
                            ___fldiv
                            ___flmul
                            ___fltol
                            ___lwdiv
                           ___xxtofl
                            _sprintf
 ---------------------------------------------------------------------------------
 (1) _sprintf                                             23    18      5    1472
                                              0 BANK0     15    10      5
                            ___lwdiv
                            ___lwmod
 ---------------------------------------------------------------------------------
 (2) ___lwmod                                              6     2      4     311
                                              8 COMMON     6     2      4
                            ___lwdiv (ARG)
 ---------------------------------------------------------------------------------
 (2) ___lwdiv                                              8     4      4     466
                                              0 COMMON     8     4      4
 ---------------------------------------------------------------------------------
 (1) ___xxtofl                                            14    10      4     398
                                              0 COMMON    14    10      4
 ---------------------------------------------------------------------------------
 (1) ___fltol                                             11     7      4     305
                                             52 BANK0     11     7      4
                            ___fldiv (ARG)
                            ___flmul (ARG)
                           ___xxtofl (ARG)
 ---------------------------------------------------------------------------------
 (1) ___flmul                                             26    18      8    2417
                                             26 BANK0     26    18      8
                          __Umul8_16
                            ___fldiv (ARG)
                           ___xxtofl (ARG)
 ---------------------------------------------------------------------------------
 (2) __Umul8_16                                            9     7      2     799
                                              0 COMMON     9     7      2
 ---------------------------------------------------------------------------------
 (1) ___fldiv                                             26    18      8    1273
                                              0 BANK0     26    18      8
                           ___xxtofl (ARG)
 ---------------------------------------------------------------------------------
 (1) _LCD_Init                                             2     2      0      88
                                              3 COMMON     2     2      0
                            _LCD_Cmd
                       _LCD_Cmd_Init
 ---------------------------------------------------------------------------------
 (2) _LCD_Cmd_Init                                         2     2      0      22
                                              0 COMMON     2     2      0
 ---------------------------------------------------------------------------------
 (1) _LCD_GotoCursor_String                                8     5      3    1149
                                              7 COMMON     4     1      3
                                              0 BANK0      4     4      0
                            _LCD_Cmd
                         _LCD_String
 ---------------------------------------------------------------------------------
 (1) _LCD_String                                           4     2      2     362
                                              3 COMMON     4     2      2
                           _LCD_Char
 ---------------------------------------------------------------------------------
 (2) _LCD_Char                                             3     3      0      44
                                              0 COMMON     3     3      0
 ---------------------------------------------------------------------------------
 (2) _LCD_Cmd                                              3     3      0      66
                                              0 COMMON     3     3      0
 ---------------------------------------------------------------------------------
 Estimated maximum stack depth 2
 ---------------------------------------------------------------------------------

 Call Graph Graphs:

 _main (ROOT)
   _LCD_GotoCursor_String
     _LCD_Cmd
     _LCD_String
       _LCD_Char
   _LCD_Init
     _LCD_Cmd
     _LCD_Cmd_Init
   _LCD_String
   ___fldiv
     ___xxtofl (ARG)
   ___flmul
     __Umul8_16
     ___fldiv (ARG)
     ___xxtofl (ARG)
   ___fltol
     ___fldiv (ARG)
     ___flmul (ARG)
     ___xxtofl (ARG)
   ___lwdiv
   ___xxtofl
   _sprintf
     ___lwdiv
     ___lwmod
       ___lwdiv (ARG)

 Address spaces:
Name               Size   Autos  Total    Cost      Usage
BITCOMMON            E      0       0       0        0.0%
EEDATA             100      0       0       0        0.0%
NULL                 0      0       0       0        0.0%
CODE                 0      0       0       0        0.0%
COMMON               E      E       E       1      100.0%
BITSFR0              0      0       0       1        0.0%
SFR0                 0      0       0       1        0.0%
BITSFR1              0      0       0       2        0.0%
SFR1                 0      0       0       2        0.0%
STACK                0      0       0       2        0.0%
ABS                  0      0       0       3        0.0%
BITBANK0            50      0       0       4        0.0%
BITSFR3              0      0       0       4        0.0%
SFR3                 0      0       0       4        0.0%
BANK0               50     42      42       5       82.5%
BITSFR2              0      0       0       5        0.0%
SFR2                 0      0       0       5        0.0%
BITBANK1            50      0       0       6        0.0%
BANK1               50     14      14       7       25.0%
BITBANK3            60      0       0       8        0.0%
BANK3               60      0       0       9        0.0%
BITBANK2            60      0       0      10        0.0%
BANK2               60      0       0      11        0.0%
DATA                 0      0       0      12        0.0%


Microchip Technology PIC Macro Assembler V2.32 build 20210201212658 
Symbol Table                                                                                   Sat Jan 22 22:42:18 2022

                  ___fldiv@aexp 0039                    ___fldiv@bexp 0038                               pc 0002  
                 ?_LCD_Cmd_Init 0070                    ___fldiv@sign 0031                              l30 0DC1  
                            l33 0F01                              l42 0E58                              l27 0E86  
                            l36 0DDF                              l63 0E06                              l80 0195  
                            l72 0188                              l74 018C                              l75 018D  
                            l69 0184                              l78 0191                              fsr 0004  
                   ?_LCD_String 0073             __Umul8_16@word_mpld 0076                             l193 0166  
                           l605 0E1B                             l390 0069                             l630 0F68  
                           l607 0E2D                             l383 007E                             l632 0FFF  
                           l393 007E                             l570 048E                             l562 040C  
                           l546 031A                             l643 0FC9                             l548 049A  
                           l644 0FD5                             l636 0FAD                             l469 0F45  
                           l479 0EC0                             l568 047E                             l592 0767  
                           l586 07FB                             l598 07EF                             fsr0 0004  
                           indf 0000                    ___flmul@aexp 004C                    ___flmul@bexp 004D  
                  ___flmul@sign 0047                    ___flmul@temp 0052                    ___flmul@prod 004E  
               __end_of_LCD_Cmd 0E87                     main@bufferT 00A0                    ___fltol@exp1 005E  
                   main@bufferf 00A6                            l2003 00AC                            l1401 0E41  
                          l1403 0E45                            l1411 0F0D                            l1421 0F33  
                          l1413 0F14                            l1405 0F02                            l1501 0082  
                          l1423 0F34                            l1415 0F18                            l1407 0F04  
                          l1431 0E87                            l1503 0087                            l1361 0DCA  
                          l1353 0DC3                            l1601 02C5                            l1425 0F3B  
                          l1417 0F1C                            l1409 0F0A                            l1441 0E9F  
                          l1433 0E8D                            l1521 00C7                            l1513 009A  
                          l1505 008D                            l1371 0E5D                            l1363 0DD5  
                          l1355 0DC6                            l1611 02DA                            l1603 02CB  
                          l1419 0F2D                            l1427 0F41                            l1443 0EA9  
                          l1435 0E90                            l1531 00D2                            l1523 00CB  
                          l1515 00B7                            l1507 0094                            l1381 0E6D  
                          l1373 0E5F                            l1365 0DD6                            l1357 0DC8  
                          l1701 03F1                            l1621 02F2                            l1613 02E2  
                          l1605 02CF                            l1461 0E24                            l1453 0E08  
                          l1445 0EAF                            l1437 0E97                            l1541 0105  
                          l1525 00D0                            l1517 00BF                            l1509 0099  
                          l1383 0E6E                            l1375 0E60                            l1367 0DD7  
                          l1359 0DC9                            l1391 0DB8                            l1471 0EC6  
                          l1711 0416                            l1703 03F5                            l1631 0307  
                          l1623 02F8                            l1615 02E3                            l1607 02D0  
                          l1463 0E29                            l1455 0E0A                            l1447 0EB6  
                          l1439 0E9B                            l1551 0147                            l1543 0109  
                          l1535 00EE                            l1519 00C3                            l1385 0E74  
                          l1377 0E61                            l1369 0E5A                            l1393 0DBA  
                          l1481 0EE9                            l1473 0ECC                            l1721 0454  
                          l1713 0424                            l1705 0409                            l1641 032E  
                          l1633 030F                            l1625 02FC                            l1609 02D5  
                          l1617 02E5                            l1457 0E11                            l1801 05CB  
                          l1449 0EBC                            l1545 010E                            l1537 00F8  
                          l1553 0150                            l1387 0E7E                            l1379 0E6C  
                          l1491 0DE8                            l1395 0DBB                            l1483 0EEF  
                          l1475 0ED5                            l1467 0EC1                            l1731 0484  
                          l1723 0462                            l1715 0428                            l1643 0332  
                          l1635 0310                            l1627 02FD                            l1619 02ED  
                          l1459 0E15                            l1811 063E                            l1803 05DB  
                          l1571 002E                            l1563 0003                            l1547 013C  
                          l1539 00FE                            l1555 0162                            l1397 0E2E  
                          l1493 0DED                            l1389 0DB5                            l1485 0EF5  
                          l1477 0EDB                            l1469 0EC5                            l1733 0488  
                          l1725 0471                            l1717 0441                            l1709 0411  
                          l1661 0373                            l1653 0349                            l1629 0302  
                          l1637 0312                            l1821 06EB                            l1813 065B  
                          l1805 05F8                            l1741 049B                            l1573 002F  
                          l1565 0010                            l1901 0F96                            l1549 0143  
                          l1399 0E30                            l1495 0DF1                            l1487 0EFB  
                          l1479 0EE3                            l1735 048A                            l1727 0475  
                          l1719 0447                            l1671 0391                            l1663 0375  
                          l1655 035B                            l1639 0322                            l1647 033B  
                          l1831 0737                            l1823 0713                            l1815 0688  
                          l1807 0608                            l1751 04B2                            l1743 04A2  
                          l1575 0037                            l1911 0FCD                            l1903 0FA4  
                          l1497 0DF7                            l1489 0DE3                            l1729 047D  
                          l1665 037A                            l1673 039A                            l1681 03BF  
                          l1657 0363                            l1649 0340                            l1841 074C  
                          l1833 0738                            l1825 071C                            l1817 0698  
                          l1809 0625                            l1761 04CE                            l1753 04B7  
                          l1745 04A8                            l1593 005E                            l1585 0045  
                          l1577 0039                            l1569 0019                            l1921 0FF7  
                          l1913 0FD7                            l1905 0FB4                            l1499 0DFD  
                          l1691 03DC                            l1683 03C5                            l1675 03AC  
                          l1667 038C                            l1659 036B                            l1851 0771  
                          l1843 0750                            l1835 0741                            l1827 072A  
                          l1819 06C5                            l1771 04E3                            l1763 04D4  
                          l1755 04BF                            l1747 04AC                            l1595 006E  
                          l1579 003D                            l1587 0057                            l1915 0FED  
                          l1907 0FBF                            l1693 03DD                            l1685 03CD  
                          l1677 03AD                            l1669 0390                            l1861 07AF  
                          l1853 077F                            l1845 0764                            l1829 0733  
                          l1837 0747                            l1781 04FF                            l1773 04EB  
                          l1765 04D8                            l1757 04C1                            l1749 04AD  
                          l1597 0073                            l1917 0FF2                            l1909 0FC3  
                          l1695 03E6                            l1687 03CF                            l1679 03BB  
                          l1599 02BE                            l1871 07E3                            l1863 07BA  
                          l1855 0783                            l1839 074B                            l1791 0542  
                          l1775 04ED                            l1767 04D9                            l1759 04C9  
                          l1919 0FF6                            l1951 0178                            l1689 03D8  
                          l1697 03EC                            l1873 07E7                            l1865 07C9  
                          l1857 079C                            l1849 076C                            l1793 055E  
                          l1785 0508                            l1777 04F5                            l1769 04DE  
                          l1881 0F47                            l1961 0196                            l1953 017B  
                          l1699 03F0                            l1875 07E8                            l1867 07D3  
                          l1859 07A2                            l1795 058A                            l1787 0518  
                          l1779 04FA                            l1883 0F4C                            l1971 01FD  
                          l1963 01B9                            l1955 017E                            l1947 0167  
                          l1877 07F3                            l1869 07D5                            l1797 05A6  
                          l1789 0525                            l1893 0F79                            l1885 0F50  
                          l1981 02AB                            l1973 0262                            l1965 01CC  
                          l1957 017F                            l1949 016C                            l1799 05C2  
                          l1895 0F7E                            l1887 0F60                            l1975 026E  
                          l1967 01E4                            l1959 0180                            l1897 0F8B  
                          l1889 0F70                            l1977 0292                            l1969 01F4  
                          l1899 0F92                            l1979 02A2                            STR_1 081A  
                          STR_2 082C                            STR_3 0824                            STR_4 081F  
                          STR_5 082C                            STR_6 0828                            u2000 04FF  
                          u2001 04FE                            u2011 0550                            u2012 0557  
                          u1300 0F0A                            u2101 067A                            u2021 056C  
                          u2013 055E                            u1301 0F09                            u2102 0681  
                          u2022 0573                            u2111 06A7                            u2103 0688  
                          u2031 0598                            u2023 057A                            u2200 074B  
                          u2120 06D1                            u2112 06AE                            u2032 059F  
                          u1320 0F1C                            u1400 0EA9                            u2201 074A  
                          u2113 06B5                            u2041 05B4                            u2033 05A6  
                          u1321 0F1B                            u1401 0EA8                            u2210 0750  
                          u2042 05BB                            u2211 074F                            u2131 06DD  
                          u2043 05C2                            u1315 0F0E                            u2220 0764  
                          u2140 06F9                            u2132 06E4                            u2300 0F4C  
                          u1340 0F2D                            u1420 0EBC                            u1500 00F8  
                          u2221 0763                            u2133 06EB                            u2125 06CC  
                          u2061 05EA                            u2301 0F4B                            u1341 0F2C  
                          u1421 0EBB                            u1405 0EA5                            u1501 00F7  
                          u1430 0E15                            u2230 076B                            u2062 05F1  
                          u2310 0F50                            u1510 00FE                            u1431 0E14  
                          u2231 076A                            u2151 0705                            u2071 0617  
                          u2063 05F8                            u2055 05C4                            u2311 0F4F  
                          u1335 0F1D                            u1415 0EB0                            u1511 00FD  
                          u1280 0E74                            u2240 0771                            u2152 070C  
                          u2072 061E                            u1600 005D                            u2400 0FCD  
                          u2320 0F70                            u1360 0F41                            u1520 0150  
                          u1281 0E73                            u1265 0DCD                            u2241 0770  
                          u2153 0713                            u2145 06F4                            u2073 0625  
                          u1601 005C                            u2401 0FCC                            u2321 0F6F  
                          u1361 0F40                            u1345 0F29                            u1521 014F  
                          u1290 0E58                            u1450 0E29                            u2250 0783  
                          u2410 0FE2                            u1370 0E8D                            u1530 0162  
                          u1275 0E64                            u1291 0E57                            u1451 0E28  
                          u2251 0782                            u2091 064D                            u1355 0F35  
                          u1371 0E8C                            u1531 0161                            u1460 0DE8  
                          u1700 0322                            u2260 0792                            u2180 0737  
                          u2092 0654                            u1620 006E                            u1540 0010  
                          u2420 0FF2                            u2340 0F91                            u1461 0DE7  
                          u1701 0321                            u1445 0E1C                            u2181 0736  
                          u2165 0715                            u2093 065B                            u2085 0627  
                          u1621 006D                            u1541 000F                            u2421 0FF1  
                          u2341 0F90                            u1710 0340                            u2270 07AF  
                          u1630 0073                            u1550 0027                            u2430 0FF6  
                          u1390 0E9F                            u1470 008D                            u1711 033F  
                          u2271 07AE                            u2175 072C                            u1631 0072  
                          u1615 0060                            u2431 0FF5                            u2415 0FDD  
                          u2335 0F83                            u1391 0E9E                            u1471 008C  
                          u1720 037A                            u1640 02CF                            u2280 07C9  
                          u1560 003D                            u2360 0FB3                            u1480 00C7  
                          u1721 0379                            u1641 02CE                            u2281 07C8  
                          u2265 078D                            u1561 003C                            u2361 0FB2  
                          u1385 0E91                            u1481 00C6                            u2505 01A4  
                          u1810 03DC                            u1650 02D5                            u2290 07E7  
                          u1570 0044                            u1490 00ED                            u1811 03DB  
                          u1651 02D4                            u2291 07E6                            u2275 07AB  
                          u2195 073A                            u1571 0043                            u1555 0022  
                          u2355 0FA5                            u1491 00EC                            u1900 0454  
                          u1660 02DA                            u2380 0FC3                            u2460 0188  
                          u1901 0453                            u1805 03D1                            u1661 02D9  
                          u2285 07C5                            u2381 0FC2                            u2517 02B3  
                          u2461 0187                            u1910 0471                            u1830 03F0  
                          u1750 0390                            u1670 02FC                            u1590 0056  
                          u2390 0FC9                            u2470 018C                            u2527 0ED0  
                          u1911 0470                            u1831 03EF                            u1751 038F  
                          u1735 037C                            u1671 02FB                            u1591 0055  
                          u2391 0FC8                            u2375 0FB8                            u1495 00E9  
                          u2471 018B                            u1920 0488                            u1840 03F5  
                          u1680 0302                            u2480 0191                            u2537 0EDF  
                          u1921 0487                            u1905 0450                            u1841 03F4  
                          u1825 03DF                            u1745 0385                            u1681 0301  
                          u1585 0046                            u2481 0190                     main@counter 00B0  
                          u1850 0409                            u1770 03AC                            u1690 0307  
                          u1930 04AC                            u2490 0195                            u2547 0DBE  
                          u1915 046D                            u1851 0408                            u1771 03AB  
                          u1691 0306                            u1931 04AB                            u2491 0194  
                          u1860 0410                            u1780 03C5                            u1940 04B2  
                          u2557 0DDB                            u1861 040F                            u1781 03C4  
                          u1765 0393                            u1941 04B1                            u1870 0416  
                          u1790 03CD                            u1950 04B7                            u2567 0E78  
                          u1871 0415                            u1791 03CC                            u1775 03A8  
                          u1951 04B6                            u1880 0428                            u1960 04D8  
                          u2577 0E82                            u1881 0427                            u1961 04D7  
                          u1890 0437                            u1970 04DE                            u1971 04DD  
                          u1980 04E3                            u1981 04E2                            u1990 04FA  
                          u1895 0432                            u1991 04F9                            _main 0167  
                          btemp 007E                            start 0000                 ___fldiv@new_exp 0032  
                ??_LCD_Cmd_Init 0070                __end_of_LCD_Char 0DE0                __end_of_LCD_Init 0F02  
                 ___fltol@sign1 005D                           ?_main 0070                 __end_of___fldiv 049B  
               __end_of___flmul 07FC                 __end_of___fltol 007F        LCD_GotoCursor_String@cmd 0023  
      LCD_GotoCursor_String@col 0077                 __end_of___lwdiv 0F46                 __end_of___lwmod 0EC1  
      LCD_GotoCursor_String@row 0020        LCD_GotoCursor_String@str 0078                           _TMR1H 000F  
                         _TMR1L 000E                           _PORTC 0007                           _TRISC 0087  
                   LCD_String@i 0076                 __end_of_dpowers 081A                           main@T 00B2  
                         main@f 00AC                           pclath 000A                           status 0003  
                         wtemp0 007E             __size_of_LCD_String 002B                 __end_of_sprintf 0167  
               __initialization 07FC                    __end_of_main 02BE                          ??_main 005F  
                     ??_LCD_Cmd 0070                __end_of___xxtofl 1000         ??_LCD_GotoCursor_String 007A  
                     ??___fldiv 0028                       ??___flmul 0042                       ??___fltol 0058  
                     ??___lwdiv 0074                       ??___lwmod 007C              __size_of__Umul8_16 0027  
                     ??_sprintf 0025            __end_of_LCD_Cmd_Init 0DC2                    ___xxtofl@arg 007A  
                  ___xxtofl@exp 0079                    ___xxtofl@val 0070                       ?_LCD_Char 0070  
       __end_of__initialization 07FC                       ?_LCD_Init 0070                      ___fltol@f1 0054  
                     LCD_Char@c 0072                  __pcstackCOMMON 0070                    ??_LCD_String 0075  
                    ??_LCD_Char 0070                      ??_LCD_Init 0073              __end_of_LCD_String 0E59  
             __end_of__Umul8_16 0E2E                      __pmaintext 0167                         _LCD_Cmd 0E59  
                     ?___xxtofl 0070                      __stringtab 0800                   LCD_String@str 0073  
                       ___fldiv 02BE                         ___flmul 049B                         ___fltol 0003  
                       ___lwdiv 0F02                         ___lwmod 0E87                         __ptext1 007F  
                       __ptext2 0E87                         __ptext3 0F02                         __ptext4 0F46  
                       __ptext5 0003                         __ptext6 049B                         __ptext7 0E07  
                       __ptext8 02BE                         __ptext9 0EC1                       _T1CONbits 0010  
                       _dpowers 0810           __size_of_LCD_Cmd_Init 000E                      ??___xxtofl 0074  
                       _sprintf 007F            end_of_initialization 07FC  __size_of_LCD_GotoCursor_String 0027  
 __end_of_LCD_GotoCursor_String 0E07                    _LCD_Cmd_Init 0DB4                       _PORTBbits 0006  
                     _PORTDbits 0008                   ___xxtofl@sign 0078                       _TRISBbits 0086  
                     _TRISDbits 0088                     ___fldiv@grs 0034                     ___fldiv@rem 002D  
                   ___flmul@grs 0048                      LCD_Cmd@cmd 0072               __size_of_LCD_Char 001E  
             __size_of_LCD_Init 0041       _LCD_GotoCursor_String$202 0021             start_initialization 07FC  
                     __Umul8_16 0E07                        ?_LCD_Cmd 0070                       ___fldiv@a 0020  
                     ___fldiv@b 0024                       ___flmul@a 003E                       ___flmul@b 003A  
                     ___latbits 0002                   __pcstackBANK0 0020                   __pcstackBANK1 00A0  
             __size_of___xxtofl 00BA                     sprintf@flag 0029                     sprintf@prec 002A  
              ___lwdiv@dividend 0072                        ?___fldiv 0020                        ?___flmul 003A  
                      ?___fltol 0054                      ?__Umul8_16 0070                        ?___lwdiv 0070  
                      ?___lwmod 0078                       __pstrings 0800                 LCD_Cmd_Init@cmd 0071  
              ___lwdiv@quotient 0075                        ?_sprintf 0020                        _LCD_Char 0DC2  
                      _LCD_Init 0EC1                     __stringbase 080F                __size_of_LCD_Cmd 002E  
                   ??__Umul8_16 0072           _LCD_GotoCursor_String 0DE0                __size_of___fldiv 01DD  
              __size_of___flmul 0361                __size_of___fltol 007C                __size_of___lwdiv 0044  
              __size_of___lwmod 003A              __end_of__stringtab 0810                      sprintf@val 002B  
                      ___xxtofl 0F46                 ___lwdiv@divisor 0070                 ___lwdiv@counter 0077  
                      __ptext10 0DB4                        __ptext11 0DE0                        __ptext12 0E2E  
                      __ptext13 0DC2                        __ptext14 0E59                __size_of_sprintf 00E8  
                 __size_of_main 0157                      _LCD_String 0E2E                       sprintf@ap 0028  
                     sprintf@sp 002D                ___lwmod@dividend 007A                       stringcode 080A  
        ?_LCD_GotoCursor_String 0077          __Umul8_16@multiplicand 0070                        sprintf@c 002E  
                      sprintf@f 0020                 ___lwmod@divisor 0078                 ___lwmod@counter 007D  
                      stringdir 080A                        stringtab 0800            __Umul8_16@multiplier 0078  
             __Umul8_16@product 0074  
