

Microchip MPLAB XC8 Assembler V2.32 build 20210201212658 
                                                                                               Sat Apr 23 09:28:16 2022

Microchip MPLAB XC8 C Compiler v2.32 (Free license) build 20210201212658 Og1 
     1                           	processor	16F877A
     2                           	pagewidth 120
     3                           	opt	flic
     4                           	psect	idataBANK1,global,class=CODE,delta=2,noexec
     5                           	psect	cinit,global,class=CODE,merge=1,delta=2
     6                           	psect	dataBANK1,global,class=BANK1,space=1,delta=1,noexec
     7                           	psect	cstackBANK1,global,class=BANK1,space=1,delta=1,noexec
     8                           	psect	cstackCOMMON,global,class=COMMON,space=1,delta=1,noexec
     9                           	psect	cstackBANK0,global,class=BANK0,space=1,delta=1,noexec
    10                           	psect	maintext,global,class=CODE,split=1,delta=2
    11                           	psect	text1,local,class=CODE,merge=1,delta=2
    12                           	psect	text2,local,class=CODE,merge=1,delta=2
    13                           	psect	text3,local,class=CODE,merge=1,delta=2
    14                           	psect	text4,local,class=CODE,merge=1,delta=2
    15                           	psect	text5,local,class=CODE,merge=1,delta=2,group=1
    16                           	psect	text6,local,class=CODE,merge=1,delta=2,group=1
    17                           	psect	text7,local,class=CODE,merge=1,delta=2,group=1
    18                           	psect	text8,local,class=CODE,merge=1,delta=2,group=1
    19                           	psect	text9,local,class=CODE,merge=1,delta=2,group=1
    20                           	psect	text10,local,class=CODE,merge=1,delta=2,group=1
    21                           	psect	text11,local,class=CODE,merge=1,delta=2
    22                           	psect	config,global,abs,ovrld,class=CONFIG,space=4,delta=2,noexec
    23                           	dabs	1,0x7E,2
    24  0000                     
    25                           ; Version 2.32
    26                           ; Generated 02/02/2021 GMT
    27                           ; 
    28                           ; Copyright © 2021, Microchip Technology Inc. and its subsidiaries ("Microchip")
    29                           ; All rights reserved.
    30                           ; 
    31                           ; This software is developed by Microchip Technology Inc. and its subsidiaries ("Microch
      +                          ip").
    32                           ; 
    33                           ; Redistribution and use in source and binary forms, with or without modification, are
    34                           ; permitted provided that the following conditions are met:
    35                           ; 
    36                           ;     1. Redistributions of source code must retain the above copyright notice, this lis
      +                          t of
    37                           ;        conditions and the following disclaimer.
    38                           ; 
    39                           ;     2. Redistributions in binary form must reproduce the above copyright notice, this 
      +                          list
    40                           ;        of conditions and the following disclaimer in the documentation and/or other
    41                           ;        materials provided with the distribution. Publication is not required when
    42                           ;        this file is used in an embedded application.
    43                           ; 
    44                           ;     3. Microchip's name may not be used to endorse or promote products derived from th
      +                          is
    45                           ;        software without specific prior written permission.
    46                           ; 
    47                           ; THIS SOFTWARE IS PROVIDED BY MICROCHIP "AS IS" AND ANY EXPRESS OR IMPLIED WARRANTIES,
    48                           ; INCLUDING, BUT NOT LIMITED TO, THE IMPLIED WARRANTIES OF MERCHANTABILITY AND FITNESS F
      +                          OR
    49                           ; PURPOSE ARE DISCLAIMED.  IN NO EVENT SHALL MICROCHIP BE LIABLE FOR ANY DIRECT, INDIREC
      +                          T,
    50                           ; INCIDENTAL, SPECIAL, EXEMPLARY, OR CONSEQUENTIAL DAMAGES (INCLUDING BUT NOT LIMITED TO
    51                           ; PROCUREMENT OF SUBSTITUTE GOODS OR SERVICES; LOSS OF USE, DATA OR PROFITS; OR BUSINESS
    52                           ; INTERRUPTION) HOWSOEVER CAUSED AND ON ANY THEORY OF LIABILITY, WHETHER IN CONTRACT, ST
      +                          RICT
    53                           ; LIABILITY, OR TORT (INCLUDING NEGLIGENCE OR OTHERWISE) ARISING IN ANY WAY OUT OF THE U
      +                          SE OF
    54                           ; THIS SOFTWARE, EVEN IF ADVISED OF THE POSSIBILITY OF SUCH DAMAGE.
    55                           ; 
    56                           ; 
    57                           ; Code-generator required, PIC16F877A Definitions
    58                           ; 
    59                           ; SFR Addresses
    60  0000                     	;# 
    61  0001                     	;# 
    62  0002                     	;# 
    63  0003                     	;# 
    64  0004                     	;# 
    65  0005                     	;# 
    66  0006                     	;# 
    67  0007                     	;# 
    68  0008                     	;# 
    69  0009                     	;# 
    70  000A                     	;# 
    71  000B                     	;# 
    72  000C                     	;# 
    73  000D                     	;# 
    74  000E                     	;# 
    75  000E                     	;# 
    76  000F                     	;# 
    77  0010                     	;# 
    78  0011                     	;# 
    79  0012                     	;# 
    80  0013                     	;# 
    81  0014                     	;# 
    82  0015                     	;# 
    83  0015                     	;# 
    84  0016                     	;# 
    85  0017                     	;# 
    86  0018                     	;# 
    87  0019                     	;# 
    88  001A                     	;# 
    89  001B                     	;# 
    90  001B                     	;# 
    91  001C                     	;# 
    92  001D                     	;# 
    93  001E                     	;# 
    94  001F                     	;# 
    95  0081                     	;# 
    96  0085                     	;# 
    97  0086                     	;# 
    98  0087                     	;# 
    99  0088                     	;# 
   100  0089                     	;# 
   101  008C                     	;# 
   102  008D                     	;# 
   103  008E                     	;# 
   104  0091                     	;# 
   105  0092                     	;# 
   106  0093                     	;# 
   107  0094                     	;# 
   108  0098                     	;# 
   109  0099                     	;# 
   110  009C                     	;# 
   111  009D                     	;# 
   112  009E                     	;# 
   113  009F                     	;# 
   114  010C                     	;# 
   115  010D                     	;# 
   116  010E                     	;# 
   117  010F                     	;# 
   118  018C                     	;# 
   119  018D                     	;# 
   120  0000                     	;# 
   121  0001                     	;# 
   122  0002                     	;# 
   123  0003                     	;# 
   124  0004                     	;# 
   125  0005                     	;# 
   126  0006                     	;# 
   127  0007                     	;# 
   128  0008                     	;# 
   129  0009                     	;# 
   130  000A                     	;# 
   131  000B                     	;# 
   132  000C                     	;# 
   133  000D                     	;# 
   134  000E                     	;# 
   135  000E                     	;# 
   136  000F                     	;# 
   137  0010                     	;# 
   138  0011                     	;# 
   139  0012                     	;# 
   140  0013                     	;# 
   141  0014                     	;# 
   142  0015                     	;# 
   143  0015                     	;# 
   144  0016                     	;# 
   145  0017                     	;# 
   146  0018                     	;# 
   147  0019                     	;# 
   148  001A                     	;# 
   149  001B                     	;# 
   150  001B                     	;# 
   151  001C                     	;# 
   152  001D                     	;# 
   153  001E                     	;# 
   154  001F                     	;# 
   155  0081                     	;# 
   156  0085                     	;# 
   157  0086                     	;# 
   158  0087                     	;# 
   159  0088                     	;# 
   160  0089                     	;# 
   161  008C                     	;# 
   162  008D                     	;# 
   163  008E                     	;# 
   164  0091                     	;# 
   165  0092                     	;# 
   166  0093                     	;# 
   167  0094                     	;# 
   168  0098                     	;# 
   169  0099                     	;# 
   170  009C                     	;# 
   171  009D                     	;# 
   172  009E                     	;# 
   173  009F                     	;# 
   174  010C                     	;# 
   175  010D                     	;# 
   176  010E                     	;# 
   177  010F                     	;# 
   178  018C                     	;# 
   179  018D                     	;# 
   180                           
   181                           	psect	idataBANK1
   182  0F0E                     __pidataBANK1:
   183                           
   184                           ;initializer for _PWM_Frequency
   185  0F0E  3488               	retlw	136
   186  0F0F  3413               	retlw	19
   187  0F10  3400               	retlw	0
   188  0F11  3400               	retlw	0
   189  0006                     _PORTBbits	set	6
   190  001E                     _ADRESH	set	30
   191  001F                     _ADCON0	set	31
   192  0008                     _PORTDbits	set	8
   193  0015                     _CCPR1L	set	21
   194  0011                     _TMR2	set	17
   195  0012                     _T2CONbits	set	18
   196  0017                     _CCP1CONbits	set	23
   197  00FA                     _GO_nDONE	set	250
   198  00BC                     _CCP1Y	set	188
   199  00BD                     _CCP1X	set	189
   200  0088                     _TRISDbits	set	136
   201  0086                     _TRISBbits	set	134
   202  009E                     _ADRESL	set	158
   203  009F                     _ADCON1	set	159
   204  0085                     _TRISA	set	133
   205  0087                     _TRISCbits	set	135
   206  0092                     _PR2	set	146
   207                           
   208                           	psect	cinit
   209  07E2                     start_initialization:	
   210                           ; #config settings
   211                           
   212  07E2                     __initialization:
   213                           
   214                           ; Initialize objects allocated to BANK1
   215  07E2  1683               	bsf	3,5	;RP0=1, select bank1
   216  07E3  1303               	bcf	3,6	;RP1=0, select bank1
   217  07E4  120A  158A  270E  120A  118A  	fcall	__pidataBANK1	;fetch initializer
   218  07E9  00AA               	movwf	__pdataBANK1& (0+127)
   219  07EA  120A  158A  270F  120A  118A  	fcall	__pidataBANK1+1	;fetch initializer
   220  07EF  00AB               	movwf	(__pdataBANK1+1)& (0+127)
   221  07F0  120A  158A  2710  120A  118A  	fcall	__pidataBANK1+2	;fetch initializer
   222  07F5  00AC               	movwf	(__pdataBANK1+2)& (0+127)
   223  07F6  120A  158A  2711  120A  118A  	fcall	__pidataBANK1+3	;fetch initializer
   224  07FB  00AD               	movwf	(__pdataBANK1+3)& (0+127)
   225  07FC                     end_of_initialization:	
   226                           ;End of C runtime variable initialization code
   227                           
   228  07FC                     __end_of__initialization:
   229  07FC  0183               	clrf	3
   230  07FD  120A  158A  2FB9   	ljmp	_main	;jump to C main() function
   231                           
   232                           	psect	dataBANK1
   233  00AA                     __pdataBANK1:
   234  00AA                     _PWM_Frequency:
   235  00AA                     	ds	4
   236                           
   237                           	psect	cstackBANK1
   238  00A0                     __pcstackBANK1:
   239  00A0                     ?_PWM1_Set_Duty:
   240  00A0                     PWM1_Set_Duty@duty:	
   241                           ; 1 bytes @ 0x0
   242                           
   243                           
   244                           ; 2 bytes @ 0x0
   245  00A0                     	ds	2
   246  00A2                     ??_PWM1_Set_Duty:
   247                           
   248                           ; 1 bytes @ 0x2
   249  00A2                     	ds	4
   250  00A6                     ??_ADC_Read:
   251                           
   252                           ; 1 bytes @ 0x6
   253  00A6                     	ds	2
   254  00A8                     ??_main:
   255                           
   256                           ; 1 bytes @ 0x8
   257  00A8                     	ds	2
   258                           
   259                           	psect	cstackCOMMON
   260  0070                     __pcstackCOMMON:
   261  0070                     ?_PWM1_Init:
   262  0070                     ?_Reverse_Motor:	
   263                           ; 1 bytes @ 0x0
   264                           
   265  0070                     ?_ADC_Config:	
   266                           ; 1 bytes @ 0x0
   267                           
   268  0070                     ??_ADC_Config:	
   269                           ; 1 bytes @ 0x0
   270                           
   271  0070                     ?_ADC_Read:	
   272                           ; 1 bytes @ 0x0
   273                           
   274  0070                     ?_main:	
   275                           ; 1 bytes @ 0x0
   276                           
   277  0070                     ?__Umul8_16:	
   278                           ; 1 bytes @ 0x0
   279                           
   280  0070                     ?___aldiv:	
   281                           ; 2 bytes @ 0x0
   282                           
   283  0070                     __Umul8_16@multiplicand:	
   284                           ; 4 bytes @ 0x0
   285                           
   286  0070                     Reverse_Motor@i:	
   287                           ; 1 bytes @ 0x0
   288                           
   289  0070                     ___aldiv@divisor:	
   290                           ; 2 bytes @ 0x0
   291                           
   292                           
   293                           ; 4 bytes @ 0x0
   294  0070                     	ds	2
   295  0072                     ??__Umul8_16:
   296  0072                     ??_Reverse_Motor:	
   297                           ; 1 bytes @ 0x2
   298                           
   299                           
   300                           ; 1 bytes @ 0x2
   301  0072                     	ds	2
   302  0074                     __Umul8_16@product:
   303  0074                     ___aldiv@dividend:	
   304                           ; 2 bytes @ 0x4
   305                           
   306                           
   307                           ; 4 bytes @ 0x4
   308  0074                     	ds	2
   309  0076                     __Umul8_16@word_mpld:
   310                           
   311                           ; 2 bytes @ 0x6
   312  0076                     	ds	2
   313  0078                     ??___aldiv:
   314  0078                     __Umul8_16@multiplier:	
   315                           ; 1 bytes @ 0x8
   316                           
   317                           
   318                           ; 1 bytes @ 0x8
   319  0078                     	ds	1
   320  0079                     ??_PWM1_Init:
   321  0079                     ??___xxtofl:	
   322                           ; 1 bytes @ 0x9
   323                           
   324                           
   325                           ; 1 bytes @ 0x9
   326  0079                     	ds	4
   327  007D                     main@u8count:
   328                           
   329                           ; 1 bytes @ 0xD
   330  007D                     	ds	1
   331                           
   332                           	psect	cstackBANK0
   333  0020                     __pcstackBANK0:
   334  0020                     ___aldiv@counter:
   335                           
   336                           ; 1 bytes @ 0x0
   337  0020                     	ds	1
   338  0021                     ___aldiv@sign:
   339                           
   340                           ; 1 bytes @ 0x1
   341  0021                     	ds	1
   342  0022                     ___aldiv@quotient:
   343                           
   344                           ; 4 bytes @ 0x2
   345  0022                     	ds	4
   346  0026                     ?___xxtofl:
   347  0026                     ___xxtofl@val:	
   348                           ; 4 bytes @ 0x6
   349                           
   350                           
   351                           ; 4 bytes @ 0x6
   352  0026                     	ds	4
   353  002A                     ___xxtofl@sign:
   354                           
   355                           ; 1 bytes @ 0xA
   356  002A                     	ds	1
   357  002B                     ___xxtofl@exp:
   358                           
   359                           ; 1 bytes @ 0xB
   360  002B                     	ds	1
   361  002C                     ___xxtofl@arg:
   362                           
   363                           ; 4 bytes @ 0xC
   364  002C                     	ds	4
   365  0030                     ?___fldiv:
   366  0030                     ___fldiv@a:	
   367                           ; 4 bytes @ 0x10
   368                           
   369                           
   370                           ; 4 bytes @ 0x10
   371  0030                     	ds	4
   372  0034                     ___fldiv@b:
   373                           
   374                           ; 4 bytes @ 0x14
   375  0034                     	ds	4
   376  0038                     ??___fldiv:
   377                           
   378                           ; 1 bytes @ 0x18
   379  0038                     	ds	5
   380  003D                     ___fldiv@rem:
   381                           
   382                           ; 4 bytes @ 0x1D
   383  003D                     	ds	4
   384  0041                     ___fldiv@sign:
   385                           
   386                           ; 1 bytes @ 0x21
   387  0041                     	ds	1
   388  0042                     ___fldiv@new_exp:
   389                           
   390                           ; 2 bytes @ 0x22
   391  0042                     	ds	2
   392  0044                     ___fldiv@grs:
   393                           
   394                           ; 4 bytes @ 0x24
   395  0044                     	ds	4
   396  0048                     ___fldiv@bexp:
   397                           
   398                           ; 1 bytes @ 0x28
   399  0048                     	ds	1
   400  0049                     ___fldiv@aexp:
   401                           
   402                           ; 1 bytes @ 0x29
   403  0049                     	ds	1
   404  004A                     ?___flmul:
   405  004A                     ___flmul@b:	
   406                           ; 4 bytes @ 0x2A
   407                           
   408                           
   409                           ; 4 bytes @ 0x2A
   410  004A                     	ds	4
   411  004E                     ___flmul@a:
   412                           
   413                           ; 4 bytes @ 0x2E
   414  004E                     	ds	4
   415  0052                     ??___flmul:
   416                           
   417                           ; 1 bytes @ 0x32
   418  0052                     	ds	5
   419  0057                     ___flmul@sign:
   420                           
   421                           ; 1 bytes @ 0x37
   422  0057                     	ds	1
   423  0058                     ___flmul@grs:
   424                           
   425                           ; 4 bytes @ 0x38
   426  0058                     	ds	4
   427  005C                     ___flmul@aexp:
   428                           
   429                           ; 1 bytes @ 0x3C
   430  005C                     	ds	1
   431  005D                     ___flmul@bexp:
   432                           
   433                           ; 1 bytes @ 0x3D
   434  005D                     	ds	1
   435  005E                     ___flmul@prod:
   436                           
   437                           ; 4 bytes @ 0x3E
   438  005E                     	ds	4
   439  0062                     ___flmul@temp:
   440                           
   441                           ; 2 bytes @ 0x42
   442  0062                     	ds	2
   443  0064                     ?___fltol:
   444  0064                     ___fltol@f1:	
   445                           ; 4 bytes @ 0x44
   446                           
   447                           
   448                           ; 4 bytes @ 0x44
   449  0064                     	ds	4
   450  0068                     ??___fltol:
   451                           
   452                           ; 1 bytes @ 0x48
   453  0068                     	ds	5
   454  006D                     ___fltol@sign1:
   455                           
   456                           ; 1 bytes @ 0x4D
   457  006D                     	ds	1
   458  006E                     ___fltol@exp1:
   459                           
   460                           ; 1 bytes @ 0x4E
   461  006E                     	ds	1
   462                           
   463                           	psect	maintext
   464  0FB9                     __pmaintext:	
   465 ;;
   466 ;;Main: autosize = 0, tempsize = 2, incstack = 0, save=0
   467 ;;
   468 ;; *************** function _main *****************
   469 ;; Defined at:
   470 ;;		line 109 in file "newmain.c"
   471 ;; Parameters:    Size  Location     Type
   472 ;;		None
   473 ;; Auto vars:     Size  Location     Type
   474 ;;  u8count         1   13[COMMON] unsigned char 
   475 ;; Return value:  Size  Location     Type
   476 ;;                  1    wreg      void 
   477 ;; Registers used:
   478 ;;		wreg, status,2, status,0, btemp+1, pclath, cstack
   479 ;; Tracked objects:
   480 ;;		On entry : B00/0
   481 ;;		On exit  : 0/0
   482 ;;		Unchanged: 0/0
   483 ;; Data sizes:     COMMON   BANK0   BANK1   BANK3   BANK2
   484 ;;      Params:         0       0       0       0       0
   485 ;;      Locals:         1       0       0       0       0
   486 ;;      Temps:          0       0       2       0       0
   487 ;;      Totals:         1       0       2       0       0
   488 ;;Total ram usage:        3 bytes
   489 ;; Hardware stack levels required when called: 4
   490 ;; This function calls:
   491 ;;		_ADC_Config
   492 ;;		_ADC_Read
   493 ;;		_PWM1_Init
   494 ;;		_Reverse_Motor
   495 ;; This function is called by:
   496 ;;		Startup code after reset
   497 ;; This function uses a non-reentrant model
   498 ;;
   499                           
   500                           
   501                           ;psect for function _main
   502  0FB9                     _main:
   503  0FB9                     l1616:	
   504                           ;incstack = 0
   505                           ; Regs used in _main: [wreg+status,2+status,0+btemp+1+pclath+cstack]
   506                           
   507                           
   508                           ;newmain.c: 111:     PWM1_Init();
   509  0FB9  120A  158A  2777  120A  158A  	fcall	_PWM1_Init
   510                           
   511                           ;newmain.c: 112:     ADC_Config();
   512  0FBE  120A  118A  2004  120A  158A  	fcall	_ADC_Config
   513  0FC3                     l1618:
   514                           
   515                           ;newmain.c: 114:     TRISBbits.TRISB0 = 1;
   516  0FC3  1683               	bsf	3,5	;RP0=1, select bank1
   517  0FC4  1303               	bcf	3,6	;RP1=0, select bank1
   518  0FC5  1406               	bsf	6,0	;volatile
   519  0FC6                     l1620:
   520                           
   521                           ;newmain.c: 115:     TRISDbits.TRISD0 = 0;
   522  0FC6  1008               	bcf	8,0	;volatile
   523  0FC7                     l1622:
   524                           
   525                           ;newmain.c: 116:     TRISDbits.TRISD1 = 0;
   526  0FC7  1088               	bcf	8,1	;volatile
   527  0FC8                     l1624:
   528                           
   529                           ;newmain.c: 118:     unsigned char u8count = 0;
   530  0FC8  01FD               	clrf	main@u8count
   531  0FC9                     l1626:
   532                           
   533                           ;newmain.c: 120:     PORTDbits.RD0 = 0;
   534  0FC9  1283               	bcf	3,5	;RP0=0, select bank0
   535  0FCA  1303               	bcf	3,6	;RP1=0, select bank0
   536  0FCB  1008               	bcf	8,0	;volatile
   537  0FCC                     l1628:
   538                           
   539                           ;newmain.c: 121:     PORTDbits.RD1 = 0;
   540  0FCC  1088               	bcf	8,1	;volatile
   541  0FCD                     l1630:
   542                           
   543                           ;newmain.c: 124:     {;newmain.c: 125:         ADC_Read();
   544  0FCD  120A  158A  2747  120A  158A  	fcall	_ADC_Read
   545  0FD2                     l1632:
   546                           
   547                           ;newmain.c: 126:         if(0 == PORTBbits.RB0)
   548  0FD2  1283               	bcf	3,5	;RP0=0, select bank0
   549  0FD3  1303               	bcf	3,6	;RP1=0, select bank0
   550  0FD4  1806               	btfsc	6,0	;volatile
   551  0FD5  2FD7               	goto	u2251
   552  0FD6  2FD8               	goto	u2250
   553  0FD7                     u2251:
   554  0FD7  2FCD               	goto	l1630
   555  0FD8                     u2250:
   556  0FD8                     l1634:
   557                           
   558                           ;newmain.c: 127:         {;newmain.c: 128:             u8count++;
   559  0FD8  3001               	movlw	1
   560  0FD9  1683               	bsf	3,5	;RP0=1, select bank1
   561  0FDA  1303               	bcf	3,6	;RP1=0, select bank1
   562  0FDB  00A8               	movwf	??_main^(0+128)
   563  0FDC  0828               	movf	??_main^(0+128),w
   564  0FDD  07FD               	addwf	main@u8count,f
   565  0FDE                     l1636:
   566                           
   567                           ;newmain.c: 129:             _delay((unsigned long)((20)*(20000000/4000.0)));
   568  0FDE  3082               	movlw	130
   569  0FDF  1683               	bsf	3,5	;RP0=1, select bank1
   570  0FE0  1303               	bcf	3,6	;RP1=0, select bank1
   571  0FE1  00A9               	movwf	(??_main^(0+128)+1)
   572  0FE2  30DD               	movlw	221
   573  0FE3  00A8               	movwf	??_main^(0+128)
   574  0FE4                     u2277:
   575  0FE4  0BA8               	decfsz	??_main^(0+128),f
   576  0FE5  2FE4               	goto	u2277
   577  0FE6  0BA9               	decfsz	(??_main^(0+128)+1),f
   578  0FE7  2FE4               	goto	u2277
   579  0FE8                     l71:	
   580                           ;newmain.c: 130:             while(!PORTBbits.RB0);
   581                           
   582  0FE8  1283               	bcf	3,5	;RP0=0, select bank0
   583  0FE9  1303               	bcf	3,6	;RP1=0, select bank0
   584  0FEA  1C06               	btfss	6,0	;volatile
   585  0FEB  2FED               	goto	u2261
   586  0FEC  2FEE               	goto	u2260
   587  0FED                     u2261:
   588  0FED  2FE8               	goto	l71
   589  0FEE                     u2260:
   590  0FEE                     l1638:
   591                           
   592                           ;newmain.c: 131:             Reverse_Motor(u8count);
   593  0FEE  087D               	movf	main@u8count,w
   594  0FEF  1683               	bsf	3,5	;RP0=1, select bank1
   595  0FF0  1303               	bcf	3,6	;RP1=0, select bank1
   596  0FF1  00A8               	movwf	??_main^(0+128)
   597  0FF2  01A9               	clrf	(??_main^(0+128)+1)
   598  0FF3  0828               	movf	??_main^(0+128),w
   599  0FF4  00F0               	movwf	Reverse_Motor@i
   600  0FF5  0829               	movf	(??_main+1)^(0+128),w
   601  0FF6  00F1               	movwf	Reverse_Motor@i+1
   602  0FF7  120A  158A  2712  120A  158A  	fcall	_Reverse_Motor
   603  0FFC  2FCD               	goto	l1630
   604  0FFD  120A  118A  2800   	ljmp	start
   605  1000                     __end_of_main:
   606                           
   607                           	psect	text1
   608  0F12                     __ptext1:	
   609 ;; *************** function _Reverse_Motor *****************
   610 ;; Defined at:
   611 ;;		line 76 in file "newmain.c"
   612 ;; Parameters:    Size  Location     Type
   613 ;;  i               2    0[COMMON] int 
   614 ;; Auto vars:     Size  Location     Type
   615 ;;		None
   616 ;; Return value:  Size  Location     Type
   617 ;;                  1    wreg      void 
   618 ;; Registers used:
   619 ;;		None
   620 ;; Tracked objects:
   621 ;;		On entry : 0/0
   622 ;;		On exit  : 0/0
   623 ;;		Unchanged: 0/0
   624 ;; Data sizes:     COMMON   BANK0   BANK1   BANK3   BANK2
   625 ;;      Params:         2       0       0       0       0
   626 ;;      Locals:         0       0       0       0       0
   627 ;;      Temps:          0       0       0       0       0
   628 ;;      Totals:         2       0       0       0       0
   629 ;;Total ram usage:        2 bytes
   630 ;; Hardware stack levels used: 1
   631 ;; This function calls:
   632 ;;		Nothing
   633 ;; This function is called by:
   634 ;;		_main
   635 ;; This function uses a non-reentrant model
   636 ;;
   637                           
   638                           
   639                           ;psect for function _Reverse_Motor
   640  0F12                     _Reverse_Motor:
   641  0F12                     l1596:	
   642                           ;incstack = 0
   643                           ; Regs used in _Reverse_Motor: []
   644                           
   645                           
   646                           ;newmain.c: 76: void Reverse_Motor(int i);newmain.c: 77: {;newmain.c: 78:     if(i%2 == 
      +                          0)
   647  0F12  1870               	btfsc	Reverse_Motor@i,0
   648  0F13  2F15               	goto	u2231
   649  0F14  2F16               	goto	u2230
   650  0F15                     u2231:
   651  0F15  2F1B               	goto	l53
   652  0F16                     u2230:
   653  0F16                     l1598:
   654                           
   655                           ;newmain.c: 79:     {;newmain.c: 80:         PORTDbits.RD0 = 0;
   656  0F16  1283               	bcf	3,5	;RP0=0, select bank0
   657  0F17  1303               	bcf	3,6	;RP1=0, select bank0
   658  0F18  1008               	bcf	8,0	;volatile
   659                           
   660                           ;newmain.c: 81:         PORTDbits.RD1 = 1;
   661  0F19  1488               	bsf	8,1	;volatile
   662                           
   663                           ;newmain.c: 83:     }
   664  0F1A  2F1F               	goto	l55
   665  0F1B                     l53:	
   666                           ;newmain.c: 84:     else
   667                           
   668                           
   669                           ;newmain.c: 85:     {;newmain.c: 86:         PORTDbits.RD0 = 1;
   670  0F1B  1283               	bcf	3,5	;RP0=0, select bank0
   671  0F1C  1303               	bcf	3,6	;RP1=0, select bank0
   672  0F1D  1408               	bsf	8,0	;volatile
   673                           
   674                           ;newmain.c: 87:         PORTDbits.RD1 = 0;
   675  0F1E  1088               	bcf	8,1	;volatile
   676  0F1F                     l55:
   677  0F1F  0008               	return
   678  0F20                     __end_of_Reverse_Motor:
   679                           
   680                           	psect	text2
   681  0F77                     __ptext2:	
   682 ;; *************** function _PWM1_Init *****************
   683 ;; Defined at:
   684 ;;		line 41 in file "newmain.c"
   685 ;; Parameters:    Size  Location     Type
   686 ;;		None
   687 ;; Auto vars:     Size  Location     Type
   688 ;;		None
   689 ;; Return value:  Size  Location     Type
   690 ;;                  1    wreg      void 
   691 ;; Registers used:
   692 ;;		wreg, status,2, status,0, pclath, cstack
   693 ;; Tracked objects:
   694 ;;		On entry : 0/0
   695 ;;		On exit  : 0/0
   696 ;;		Unchanged: 0/0
   697 ;; Data sizes:     COMMON   BANK0   BANK1   BANK3   BANK2
   698 ;;      Params:         0       0       0       0       0
   699 ;;      Locals:         0       0       0       0       0
   700 ;;      Temps:          4       0       0       0       0
   701 ;;      Totals:         4       0       0       0       0
   702 ;;Total ram usage:        4 bytes
   703 ;; Hardware stack levels used: 1
   704 ;; Hardware stack levels required when called: 1
   705 ;; This function calls:
   706 ;;		___aldiv
   707 ;; This function is called by:
   708 ;;		_main
   709 ;; This function uses a non-reentrant model
   710 ;;
   711                           
   712                           
   713                           ;psect for function _PWM1_Init
   714  0F77                     _PWM1_Init:
   715  0F77                     l1580:	
   716                           ;incstack = 0
   717                           ; Regs used in _PWM1_Init: [wreg+status,2+status,0+pclath+cstack]
   718                           
   719                           
   720                           ;newmain.c: 43:     PR2 = 20000000/(4*PWM_Frequency*4) - 1;
   721  0F77  1683               	bsf	3,5	;RP0=1, select bank1
   722  0F78  1303               	bcf	3,6	;RP1=0, select bank1
   723  0F79  082A               	movf	_PWM_Frequency^(0+128),w
   724  0F7A  00F9               	movwf	??_PWM1_Init
   725  0F7B  082B               	movf	(_PWM_Frequency+1)^(0+128),w
   726  0F7C  00FA               	movwf	??_PWM1_Init+1
   727  0F7D  082C               	movf	(_PWM_Frequency+2)^(0+128),w
   728  0F7E  00FB               	movwf	??_PWM1_Init+2
   729  0F7F  082D               	movf	(_PWM_Frequency+3)^(0+128),w
   730  0F80  00FC               	movwf	??_PWM1_Init+3
   731  0F81  3002               	movlw	2
   732  0F82                     u2215:
   733  0F82  1003               	clrc
   734  0F83  0DF9               	rlf	??_PWM1_Init,f
   735  0F84  0DFA               	rlf	??_PWM1_Init+1,f
   736  0F85  0DFB               	rlf	??_PWM1_Init+2,f
   737  0F86  0DFC               	rlf	??_PWM1_Init+3,f
   738  0F87                     u2210:
   739  0F87  3EFF               	addlw	-1
   740  0F88  1D03               	skipz
   741  0F89  2F82               	goto	u2215
   742  0F8A  3002               	movlw	2
   743  0F8B                     u2225:
   744  0F8B  1003               	clrc
   745  0F8C  0DF9               	rlf	??_PWM1_Init,f
   746  0F8D  0DFA               	rlf	??_PWM1_Init+1,f
   747  0F8E  0DFB               	rlf	??_PWM1_Init+2,f
   748  0F8F  0DFC               	rlf	??_PWM1_Init+3,f
   749  0F90                     u2220:
   750  0F90  3EFF               	addlw	-1
   751  0F91  1D03               	skipz
   752  0F92  2F8B               	goto	u2225
   753  0F93  087C               	movf	??_PWM1_Init+3,w
   754  0F94  00F3               	movwf	___aldiv@divisor+3
   755  0F95  087B               	movf	??_PWM1_Init+2,w
   756  0F96  00F2               	movwf	___aldiv@divisor+2
   757  0F97  087A               	movf	??_PWM1_Init+1,w
   758  0F98  00F1               	movwf	___aldiv@divisor+1
   759  0F99  0879               	movf	??_PWM1_Init,w
   760  0F9A  00F0               	movwf	___aldiv@divisor
   761  0F9B  3001               	movlw	1
   762  0F9C  00F7               	movwf	___aldiv@dividend+3
   763  0F9D  3031               	movlw	49
   764  0F9E  00F6               	movwf	___aldiv@dividend+2
   765  0F9F  302D               	movlw	45
   766  0FA0  00F5               	movwf	___aldiv@dividend+1
   767  0FA1  3000               	movlw	0
   768  0FA2  00F4               	movwf	___aldiv@dividend
   769  0FA3  120A  118A  208F  120A  158A  	fcall	___aldiv
   770  0FA8  0870               	movf	?___aldiv,w
   771  0FA9  3EFF               	addlw	255
   772  0FAA  1683               	bsf	3,5	;RP0=1, select bank1
   773  0FAB  1303               	bcf	3,6	;RP1=0, select bank1
   774  0FAC  0092               	movwf	18	;volatile
   775  0FAD                     l1582:
   776                           
   777                           ;newmain.c: 44:     CCP1CONbits.CCP1M3 = 1;
   778  0FAD  1283               	bcf	3,5	;RP0=0, select bank0
   779  0FAE  1303               	bcf	3,6	;RP1=0, select bank0
   780  0FAF  1597               	bsf	23,3	;volatile
   781  0FB0                     l1584:
   782                           
   783                           ;newmain.c: 45:     CCP1CONbits.CCP1M2 = 1;
   784  0FB0  1517               	bsf	23,2	;volatile
   785  0FB1                     l43:	
   786                           ;newmain.c: 51:     if(4 == 4)
   787                           
   788                           
   789                           ;newmain.c: 52:     {;newmain.c: 53:         T2CONbits.T2CKPS1 = 0;
   790  0FB1  1092               	bcf	18,1	;volatile
   791                           
   792                           ;newmain.c: 54:         T2CONbits.T2CKPS0 = 1;
   793  0FB2  1412               	bsf	18,0	;volatile
   794  0FB3                     l1590:
   795                           
   796                           ;newmain.c: 61:     TMR2 = 0;
   797  0FB3  0191               	clrf	17	;volatile
   798  0FB4                     l1592:
   799                           
   800                           ;newmain.c: 62:     T2CONbits.TMR2ON = 1;
   801  0FB4  1512               	bsf	18,2	;volatile
   802  0FB5                     l1594:
   803                           
   804                           ;newmain.c: 63:     TRISCbits.TRISC2 = 0;
   805  0FB5  1683               	bsf	3,5	;RP0=1, select bank1
   806  0FB6  1303               	bcf	3,6	;RP1=0, select bank1
   807  0FB7  1107               	bcf	7,2	;volatile
   808  0FB8                     l46:
   809  0FB8  0008               	return
   810  0FB9                     __end_of_PWM1_Init:
   811                           
   812                           	psect	text3
   813  0F47                     __ptext3:	
   814 ;; *************** function _ADC_Read *****************
   815 ;; Defined at:
   816 ;;		line 99 in file "newmain.c"
   817 ;; Parameters:    Size  Location     Type
   818 ;;		None
   819 ;; Auto vars:     Size  Location     Type
   820 ;;  u8channel       1    0        unsigned char 
   821 ;; Return value:  Size  Location     Type
   822 ;;                  1    wreg      void 
   823 ;; Registers used:
   824 ;;		wreg, status,2, status,0, btemp+1, pclath, cstack
   825 ;; Tracked objects:
   826 ;;		On entry : 0/0
   827 ;;		On exit  : 0/0
   828 ;;		Unchanged: 0/0
   829 ;; Data sizes:     COMMON   BANK0   BANK1   BANK3   BANK2
   830 ;;      Params:         0       0       0       0       0
   831 ;;      Locals:         0       0       0       0       0
   832 ;;      Temps:          0       0       2       0       0
   833 ;;      Totals:         0       0       2       0       0
   834 ;;Total ram usage:        2 bytes
   835 ;; Hardware stack levels used: 1
   836 ;; Hardware stack levels required when called: 3
   837 ;; This function calls:
   838 ;;		_PWM1_Set_Duty
   839 ;; This function is called by:
   840 ;;		_main
   841 ;; This function uses a non-reentrant model
   842 ;;
   843                           
   844                           
   845                           ;psect for function _ADC_Read
   846  0F47                     _ADC_Read:
   847  0F47                     l1606:	
   848                           ;incstack = 0
   849                           ; Regs used in _ADC_Read: [wreg+status,2+status,0+btemp+1+pclath+cstack]
   850                           
   851  0F47                     l1608:
   852                           
   853                           ;newmain.c: 102:     ADCON0 |= u8channel << 3;
   854  0F47  3038               	movlw	56
   855  0F48  1683               	bsf	3,5	;RP0=1, select bank1
   856  0F49  1303               	bcf	3,6	;RP1=0, select bank1
   857  0F4A  00A6               	movwf	??_ADC_Read^(0+128)
   858  0F4B  0826               	movf	??_ADC_Read^(0+128),w
   859  0F4C  1283               	bcf	3,5	;RP0=0, select bank0
   860  0F4D  1303               	bcf	3,6	;RP1=0, select bank0
   861  0F4E  049F               	iorwf	31,f	;volatile
   862  0F4F                     l1610:
   863                           
   864                           ;newmain.c: 103:     _delay((unsigned long)((1)*(20000000/4000.0)));
   865  0F4F  3007               	movlw	7
   866  0F50  1683               	bsf	3,5	;RP0=1, select bank1
   867  0F51  1303               	bcf	3,6	;RP1=0, select bank1
   868  0F52  00A7               	movwf	(??_ADC_Read^(0+128)+1)
   869  0F53  307C               	movlw	124
   870  0F54  00A6               	movwf	??_ADC_Read^(0+128)
   871  0F55                     u2287:
   872  0F55  0BA6               	decfsz	??_ADC_Read^(0+128),f
   873  0F56  2F55               	goto	u2287
   874  0F57  0BA7               	decfsz	(??_ADC_Read^(0+128)+1),f
   875  0F58  2F55               	goto	u2287
   876  0F59  0000               	nop
   877  0F5A                     l1612:
   878                           
   879                           ;newmain.c: 104:     GO_nDONE = 1;
   880  0F5A  1283               	bcf	3,5	;RP0=0, select bank0
   881  0F5B  1303               	bcf	3,6	;RP1=0, select bank0
   882  0F5C  151F               	bsf	31,2	;volatile
   883  0F5D                     l61:	
   884                           ;newmain.c: 105:     while(GO_nDONE);
   885                           
   886  0F5D  191F               	btfsc	31,2	;volatile
   887  0F5E  2F60               	goto	u2241
   888  0F5F  2F61               	goto	u2240
   889  0F60                     u2241:
   890  0F60  2F5D               	goto	l61
   891  0F61                     u2240:
   892  0F61                     l1614:
   893                           
   894                           ;newmain.c: 106:     PWM1_Set_Duty((ADRESH<< 8)+ADRESL);
   895  0F61  081E               	movf	30,w	;volatile
   896  0F62  1683               	bsf	3,5	;RP0=1, select bank1
   897  0F63  1303               	bcf	3,6	;RP1=0, select bank1
   898  0F64  00A6               	movwf	??_ADC_Read^(0+128)
   899  0F65  01A7               	clrf	(??_ADC_Read^(0+128)+1)
   900  0F66  0826               	movf	??_ADC_Read^(0+128),w
   901  0F67  00A7               	movwf	(??_ADC_Read^(0+128)+1)
   902  0F68  01A6               	clrf	??_ADC_Read^(0+128)
   903  0F69  081E               	movf	30,w	;volatile
   904  0F6A  0726               	addwf	??_ADC_Read^(0+128),w
   905  0F6B  00A0               	movwf	PWM1_Set_Duty@duty^(0+128)
   906  0F6C  3000               	movlw	0
   907  0F6D  1803               	skipnc
   908  0F6E  3001               	movlw	1
   909  0F6F  0727               	addwf	(??_ADC_Read+1)^(0+128),w
   910  0F70  00A1               	movwf	(PWM1_Set_Duty@duty+1)^(0+128)
   911  0F71  120A  118A  21E8  120A  158A  	fcall	_PWM1_Set_Duty
   912  0F76                     l64:
   913  0F76  0008               	return
   914  0F77                     __end_of_ADC_Read:
   915                           
   916                           	psect	text4
   917  01E8                     __ptext4:	
   918 ;; *************** function _PWM1_Set_Duty *****************
   919 ;; Defined at:
   920 ;;		line 66 in file "newmain.c"
   921 ;; Parameters:    Size  Location     Type
   922 ;;  duty            2    0[BANK1 ] unsigned int 
   923 ;; Auto vars:     Size  Location     Type
   924 ;;		None
   925 ;; Return value:  Size  Location     Type
   926 ;;                  1    wreg      void 
   927 ;; Registers used:
   928 ;;		wreg, status,2, status,0, btemp+1, pclath, cstack
   929 ;; Tracked objects:
   930 ;;		On entry : 0/0
   931 ;;		On exit  : 0/0
   932 ;;		Unchanged: 0/0
   933 ;; Data sizes:     COMMON   BANK0   BANK1   BANK3   BANK2
   934 ;;      Params:         0       0       2       0       0
   935 ;;      Locals:         0       0       0       0       0
   936 ;;      Temps:          0       0       4       0       0
   937 ;;      Totals:         0       0       6       0       0
   938 ;;Total ram usage:        6 bytes
   939 ;; Hardware stack levels used: 1
   940 ;; Hardware stack levels required when called: 2
   941 ;; This function calls:
   942 ;;		___aldiv
   943 ;;		___fldiv
   944 ;;		___flmul
   945 ;;		___fltol
   946 ;;		___xxtofl
   947 ;; This function is called by:
   948 ;;		_ADC_Read
   949 ;; This function uses a non-reentrant model
   950 ;;
   951                           
   952                           
   953                           ;psect for function _PWM1_Set_Duty
   954  01E8                     _PWM1_Set_Duty:
   955  01E8                     l1570:	
   956                           ;incstack = 0
   957                           ; Regs used in _PWM1_Set_Duty: [wreg+status,2+status,0+btemp+1+pclath+cstack]
   958                           
   959                           
   960                           ;newmain.c: 66: void PWM1_Set_Duty(unsigned int duty);newmain.c: 67: {;newmain.c: 68:   
      +                            if(duty < 1024)
   961  01E8  3004               	movlw	4
   962  01E9  1683               	bsf	3,5	;RP0=1, select bank1
   963  01EA  1303               	bcf	3,6	;RP1=0, select bank1
   964  01EB  0221               	subwf	(PWM1_Set_Duty@duty+1)^(0+128),w
   965  01EC  3000               	movlw	0
   966  01ED  1903               	skipnz
   967  01EE  0220               	subwf	PWM1_Set_Duty@duty^(0+128),w
   968  01EF  1803               	skipnc
   969  01F0  29F2               	goto	u2171
   970  01F1  29F3               	goto	u2170
   971  01F2                     u2171:
   972  01F2  2AA3               	goto	l50
   973  01F3                     u2170:
   974  01F3                     l1572:
   975                           
   976                           ;newmain.c: 69:     {;newmain.c: 70:         duty = ((float)duty/1023)*(20000000/(PWM_Fr
      +                          equency*4));
   977  01F3  0820               	movf	PWM1_Set_Duty@duty^(0+128),w
   978  01F4  1283               	bcf	3,5	;RP0=0, select bank0
   979  01F5  1303               	bcf	3,6	;RP1=0, select bank0
   980  01F6  00A6               	movwf	___xxtofl@val
   981  01F7  1683               	bsf	3,5	;RP0=1, select bank1
   982  01F8  1303               	bcf	3,6	;RP1=0, select bank1
   983  01F9  0821               	movf	(PWM1_Set_Duty@duty+1)^(0+128),w
   984  01FA  1283               	bcf	3,5	;RP0=0, select bank0
   985  01FB  1303               	bcf	3,6	;RP1=0, select bank0
   986  01FC  00A7               	movwf	___xxtofl@val+1
   987  01FD  01A8               	clrf	___xxtofl@val+2
   988  01FE  01A9               	clrf	___xxtofl@val+3
   989  01FF  3000               	movlw	0
   990  0200  120A  118A  212C  120A  118A  	fcall	___xxtofl
   991  0205  1283               	bcf	3,5	;RP0=0, select bank0
   992  0206  1303               	bcf	3,6	;RP1=0, select bank0
   993  0207  0829               	movf	?___xxtofl+3,w
   994  0208  00B7               	movwf	___fldiv@b+3
   995  0209  0828               	movf	?___xxtofl+2,w
   996  020A  00B6               	movwf	___fldiv@b+2
   997  020B  0827               	movf	?___xxtofl+1,w
   998  020C  00B5               	movwf	___fldiv@b+1
   999  020D  0826               	movf	?___xxtofl,w
  1000  020E  00B4               	movwf	___fldiv@b
  1001  020F  3044               	movlw	68
  1002  0210  00B3               	movwf	___fldiv@a+3
  1003  0211  307F               	movlw	127
  1004  0212  00B2               	movwf	___fldiv@a+2
  1005  0213  30C0               	movlw	192
  1006  0214  00B1               	movwf	___fldiv@a+1
  1007  0215  3000               	movlw	0
  1008  0216  00B0               	movwf	___fldiv@a
  1009  0217  120A  118A  22A4  120A  118A  	fcall	___fldiv
  1010  021C  1283               	bcf	3,5	;RP0=0, select bank0
  1011  021D  1303               	bcf	3,6	;RP1=0, select bank0
  1012  021E  0833               	movf	?___fldiv+3,w
  1013  021F  00D1               	movwf	___flmul@a+3
  1014  0220  0832               	movf	?___fldiv+2,w
  1015  0221  00D0               	movwf	___flmul@a+2
  1016  0222  0831               	movf	?___fldiv+1,w
  1017  0223  00CF               	movwf	___flmul@a+1
  1018  0224  0830               	movf	?___fldiv,w
  1019  0225  00CE               	movwf	___flmul@a
  1020  0226  3001               	movlw	1
  1021  0227  00F7               	movwf	___aldiv@dividend+3
  1022  0228  3031               	movlw	49
  1023  0229  00F6               	movwf	___aldiv@dividend+2
  1024  022A  302D               	movlw	45
  1025  022B  00F5               	movwf	___aldiv@dividend+1
  1026  022C  3000               	movlw	0
  1027  022D  00F4               	movwf	___aldiv@dividend
  1028  022E  1683               	bsf	3,5	;RP0=1, select bank1
  1029  022F  1303               	bcf	3,6	;RP1=0, select bank1
  1030  0230  082A               	movf	_PWM_Frequency^(0+128),w
  1031  0231  00A2               	movwf	??_PWM1_Set_Duty^(0+128)
  1032  0232  082B               	movf	(_PWM_Frequency+1)^(0+128),w
  1033  0233  00A3               	movwf	(??_PWM1_Set_Duty^(0+128)+1)
  1034  0234  082C               	movf	(_PWM_Frequency+2)^(0+128),w
  1035  0235  00A4               	movwf	(??_PWM1_Set_Duty^(0+128)+2)
  1036  0236  082D               	movf	(_PWM_Frequency+3)^(0+128),w
  1037  0237  00A5               	movwf	(??_PWM1_Set_Duty^(0+128)+3)
  1038  0238  3002               	movlw	2
  1039  0239                     u2185:
  1040  0239  1003               	clrc
  1041  023A  0DA2               	rlf	??_PWM1_Set_Duty^(0+128),f
  1042  023B  0DA3               	rlf	(??_PWM1_Set_Duty^(0+128)+1),f
  1043  023C  0DA4               	rlf	(??_PWM1_Set_Duty^(0+128)+2),f
  1044  023D  0DA5               	rlf	(??_PWM1_Set_Duty^(0+128)+3),f
  1045  023E                     u2180:
  1046  023E  3EFF               	addlw	-1
  1047  023F  1D03               	skipz
  1048  0240  2A39               	goto	u2185
  1049  0241  0825               	movf	(??_PWM1_Set_Duty+3)^(0+128),w
  1050  0242  00F3               	movwf	___aldiv@divisor+3
  1051  0243  0824               	movf	(??_PWM1_Set_Duty+2)^(0+128),w
  1052  0244  00F2               	movwf	___aldiv@divisor+2
  1053  0245  0823               	movf	(??_PWM1_Set_Duty+1)^(0+128),w
  1054  0246  00F1               	movwf	___aldiv@divisor+1
  1055  0247  0822               	movf	??_PWM1_Set_Duty^(0+128),w
  1056  0248  00F0               	movwf	___aldiv@divisor
  1057  0249  120A  118A  208F  120A  118A  	fcall	___aldiv
  1058  024E  0873               	movf	?___aldiv+3,w
  1059  024F  1283               	bcf	3,5	;RP0=0, select bank0
  1060  0250  1303               	bcf	3,6	;RP1=0, select bank0
  1061  0251  00A9               	movwf	___xxtofl@val+3
  1062  0252  0872               	movf	?___aldiv+2,w
  1063  0253  00A8               	movwf	___xxtofl@val+2
  1064  0254  0871               	movf	?___aldiv+1,w
  1065  0255  00A7               	movwf	___xxtofl@val+1
  1066  0256  0870               	movf	?___aldiv,w
  1067  0257  00A6               	movwf	___xxtofl@val
  1068  0258  3001               	movlw	1
  1069  0259  120A  118A  212C  120A  118A  	fcall	___xxtofl
  1070  025E  1283               	bcf	3,5	;RP0=0, select bank0
  1071  025F  1303               	bcf	3,6	;RP1=0, select bank0
  1072  0260  0829               	movf	?___xxtofl+3,w
  1073  0261  00CD               	movwf	___flmul@b+3
  1074  0262  0828               	movf	?___xxtofl+2,w
  1075  0263  00CC               	movwf	___flmul@b+2
  1076  0264  0827               	movf	?___xxtofl+1,w
  1077  0265  00CB               	movwf	___flmul@b+1
  1078  0266  0826               	movf	?___xxtofl,w
  1079  0267  00CA               	movwf	___flmul@b
  1080  0268  120A  118A  2481  120A  118A  	fcall	___flmul
  1081  026D  1283               	bcf	3,5	;RP0=0, select bank0
  1082  026E  1303               	bcf	3,6	;RP1=0, select bank0
  1083  026F  084D               	movf	?___flmul+3,w
  1084  0270  00E7               	movwf	___fltol@f1+3
  1085  0271  084C               	movf	?___flmul+2,w
  1086  0272  00E6               	movwf	___fltol@f1+2
  1087  0273  084B               	movf	?___flmul+1,w
  1088  0274  00E5               	movwf	___fltol@f1+1
  1089  0275  084A               	movf	?___flmul,w
  1090  0276  00E4               	movwf	___fltol@f1
  1091  0277  120A  118A  2013  120A  118A  	fcall	___fltol
  1092  027C  1283               	bcf	3,5	;RP0=0, select bank0
  1093  027D  1303               	bcf	3,6	;RP1=0, select bank0
  1094  027E  0865               	movf	?___fltol+1,w
  1095  027F  1683               	bsf	3,5	;RP0=1, select bank1
  1096  0280  1303               	bcf	3,6	;RP1=0, select bank1
  1097  0281  00A1               	movwf	(PWM1_Set_Duty@duty+1)^(0+128)
  1098  0282  1283               	bcf	3,5	;RP0=0, select bank0
  1099  0283  1303               	bcf	3,6	;RP1=0, select bank0
  1100  0284  0864               	movf	?___fltol,w
  1101  0285  1683               	bsf	3,5	;RP0=1, select bank1
  1102  0286  1303               	bcf	3,6	;RP1=0, select bank1
  1103  0287  00A0               	movwf	PWM1_Set_Duty@duty^(0+128)
  1104  0288                     l1574:
  1105                           
  1106                           ;newmain.c: 71:         CCP1X = duty & 1;
  1107  0288  1820               	btfsc	PWM1_Set_Duty@duty^(0+128),0
  1108  0289  2A8B               	goto	u2191
  1109  028A  2A8F               	goto	u2190
  1110  028B                     u2191:
  1111  028B  1283               	bcf	3,5	;RP0=0, select bank0
  1112  028C  1303               	bcf	3,6	;RP1=0, select bank0
  1113  028D  1697               	bsf	23,5	;volatile
  1114  028E  2A92               	goto	u2204
  1115  028F                     u2190:
  1116  028F  1283               	bcf	3,5	;RP0=0, select bank0
  1117  0290  1303               	bcf	3,6	;RP1=0, select bank0
  1118  0291  1297               	bcf	23,5	;volatile
  1119  0292                     u2204:
  1120  0292                     l1576:
  1121                           
  1122                           ;newmain.c: 72:         CCP1Y = duty & 2;
  1123  0292  1217               	bcf	23,4	;volatile
  1124  0293                     l1578:
  1125                           
  1126                           ;newmain.c: 73:         CCPR1L = duty >> 2;
  1127  0293  1683               	bsf	3,5	;RP0=1, select bank1
  1128  0294  1303               	bcf	3,6	;RP1=0, select bank1
  1129  0295  0821               	movf	(PWM1_Set_Duty@duty+1)^(0+128),w
  1130  0296  00A3               	movwf	(??_PWM1_Set_Duty^(0+128)+1)
  1131  0297  0820               	movf	PWM1_Set_Duty@duty^(0+128),w
  1132  0298  00A2               	movwf	??_PWM1_Set_Duty^(0+128)
  1133  0299  1003               	clrc
  1134  029A  0CA3               	rrf	(??_PWM1_Set_Duty^(0+128)+1),f
  1135  029B  0CA2               	rrf	??_PWM1_Set_Duty^(0+128),f
  1136  029C  1003               	clrc
  1137  029D  0CA3               	rrf	(??_PWM1_Set_Duty^(0+128)+1),f
  1138  029E  0CA2               	rrf	??_PWM1_Set_Duty^(0+128),f
  1139  029F  0822               	movf	??_PWM1_Set_Duty^(0+128),w
  1140  02A0  1283               	bcf	3,5	;RP0=0, select bank0
  1141  02A1  1303               	bcf	3,6	;RP1=0, select bank0
  1142  02A2  0095               	movwf	21	;volatile
  1143  02A3                     l50:
  1144  02A3  0008               	return
  1145  02A4                     __end_of_PWM1_Set_Duty:
  1146                           
  1147                           	psect	text5
  1148  012C                     __ptext5:	
  1149 ;; *************** function ___xxtofl *****************
  1150 ;; Defined at:
  1151 ;;		line 10 in file "D:\File Install MBLAB IDE\XC8\pic\sources\c90\common\xxtofl.c"
  1152 ;; Parameters:    Size  Location     Type
  1153 ;;  sign            1    wreg     unsigned char 
  1154 ;;  val             4    6[BANK0 ] long 
  1155 ;; Auto vars:     Size  Location     Type
  1156 ;;  sign            1   10[BANK0 ] unsigned char 
  1157 ;;  arg             4   12[BANK0 ] unsigned long 
  1158 ;;  exp             1   11[BANK0 ] unsigned char 
  1159 ;; Return value:  Size  Location     Type
  1160 ;;                  4    6[BANK0 ] unsigned char 
  1161 ;; Registers used:
  1162 ;;		wreg, status,2, status,0
  1163 ;; Tracked objects:
  1164 ;;		On entry : 0/0
  1165 ;;		On exit  : 0/0
  1166 ;;		Unchanged: 0/0
  1167 ;; Data sizes:     COMMON   BANK0   BANK1   BANK3   BANK2
  1168 ;;      Params:         0       4       0       0       0
  1169 ;;      Locals:         0       6       0       0       0
  1170 ;;      Temps:          4       0       0       0       0
  1171 ;;      Totals:         4      10       0       0       0
  1172 ;;Total ram usage:       14 bytes
  1173 ;; Hardware stack levels used: 1
  1174 ;; This function calls:
  1175 ;;		Nothing
  1176 ;; This function is called by:
  1177 ;;		_PWM1_Set_Duty
  1178 ;; This function uses a non-reentrant model
  1179 ;;
  1180                           
  1181                           
  1182                           ;psect for function ___xxtofl
  1183  012C                     ___xxtofl:
  1184                           
  1185                           ;incstack = 0
  1186                           ; Regs used in ___xxtofl: [wreg+status,2+status,0]
  1187                           ;___xxtofl@sign stored from wreg
  1188  012C  1283               	bcf	3,5	;RP0=0, select bank0
  1189  012D  1303               	bcf	3,6	;RP1=0, select bank0
  1190  012E  00AA               	movwf	___xxtofl@sign
  1191  012F                     l1526:
  1192  012F  082A               	movf	___xxtofl@sign,w
  1193  0130  1903               	btfsc	3,2
  1194  0131  2933               	goto	u2031
  1195  0132  2934               	goto	u2030
  1196  0133                     u2031:
  1197  0133  2948               	goto	l1532
  1198  0134                     u2030:
  1199  0134                     l1528:
  1200  0134  1FA9               	btfss	___xxtofl@val+3,7
  1201  0135  2937               	goto	u2041
  1202  0136  2938               	goto	u2040
  1203  0137                     u2041:
  1204  0137  2948               	goto	l1532
  1205  0138                     u2040:
  1206  0138                     l1530:
  1207  0138  0926               	comf	___xxtofl@val,w
  1208  0139  00AC               	movwf	___xxtofl@arg
  1209  013A  0927               	comf	___xxtofl@val+1,w
  1210  013B  00AD               	movwf	___xxtofl@arg+1
  1211  013C  0928               	comf	___xxtofl@val+2,w
  1212  013D  00AE               	movwf	___xxtofl@arg+2
  1213  013E  0929               	comf	___xxtofl@val+3,w
  1214  013F  00AF               	movwf	___xxtofl@arg+3
  1215  0140  0AAC               	incf	___xxtofl@arg,f
  1216  0141  1903               	skipnz
  1217  0142  0AAD               	incf	___xxtofl@arg+1,f
  1218  0143  1903               	skipnz
  1219  0144  0AAE               	incf	___xxtofl@arg+2,f
  1220  0145  1903               	skipnz
  1221  0146  0AAF               	incf	___xxtofl@arg+3,f
  1222  0147  2950               	goto	l595
  1223  0148                     l1532:
  1224  0148  0829               	movf	___xxtofl@val+3,w
  1225  0149  00AF               	movwf	___xxtofl@arg+3
  1226  014A  0828               	movf	___xxtofl@val+2,w
  1227  014B  00AE               	movwf	___xxtofl@arg+2
  1228  014C  0827               	movf	___xxtofl@val+1,w
  1229  014D  00AD               	movwf	___xxtofl@arg+1
  1230  014E  0826               	movf	___xxtofl@val,w
  1231  014F  00AC               	movwf	___xxtofl@arg
  1232  0150                     l595:
  1233  0150  0829               	movf	___xxtofl@val+3,w
  1234  0151  0428               	iorwf	___xxtofl@val+2,w
  1235  0152  0427               	iorwf	___xxtofl@val+1,w
  1236  0153  0426               	iorwf	___xxtofl@val,w
  1237  0154  1D03               	skipz
  1238  0155  2957               	goto	u2051
  1239  0156  2958               	goto	u2050
  1240  0157                     u2051:
  1241  0157  2961               	goto	l1538
  1242  0158                     u2050:
  1243  0158                     l1534:
  1244  0158  3000               	movlw	0
  1245  0159  00A9               	movwf	?___xxtofl+3
  1246  015A  3000               	movlw	0
  1247  015B  00A8               	movwf	?___xxtofl+2
  1248  015C  3000               	movlw	0
  1249  015D  00A7               	movwf	?___xxtofl+1
  1250  015E  3000               	movlw	0
  1251  015F  00A6               	movwf	?___xxtofl
  1252  0160  29E7               	goto	l597
  1253  0161                     l1538:
  1254  0161  3096               	movlw	150
  1255  0162  00F9               	movwf	??___xxtofl
  1256  0163  0879               	movf	??___xxtofl,w
  1257  0164  00AB               	movwf	___xxtofl@exp
  1258  0165  2973               	goto	l1542
  1259  0166                     l1540:
  1260  0166  3001               	movlw	1
  1261  0167  00F9               	movwf	??___xxtofl
  1262  0168  0879               	movf	??___xxtofl,w
  1263  0169  07AB               	addwf	___xxtofl@exp,f
  1264  016A  3001               	movlw	1
  1265  016B                     u2065:
  1266  016B  1003               	clrc
  1267  016C  0CAF               	rrf	___xxtofl@arg+3,f
  1268  016D  0CAE               	rrf	___xxtofl@arg+2,f
  1269  016E  0CAD               	rrf	___xxtofl@arg+1,f
  1270  016F  0CAC               	rrf	___xxtofl@arg,f
  1271  0170  3EFF               	addlw	-1
  1272  0171  1D03               	skipz
  1273  0172  296B               	goto	u2065
  1274  0173                     l1542:
  1275  0173  30FE               	movlw	254
  1276  0174  052F               	andwf	___xxtofl@arg+3,w
  1277  0175  1D03               	btfss	3,2
  1278  0176  2978               	goto	u2071
  1279  0177  2979               	goto	u2070
  1280  0178                     u2071:
  1281  0178  2966               	goto	l1540
  1282  0179                     u2070:
  1283  0179  2995               	goto	l601
  1284  017A                     l1544:
  1285  017A  3001               	movlw	1
  1286  017B  00F9               	movwf	??___xxtofl
  1287  017C  0879               	movf	??___xxtofl,w
  1288  017D  07AB               	addwf	___xxtofl@exp,f
  1289  017E                     l1546:
  1290  017E  3001               	movlw	1
  1291  017F  07AC               	addwf	___xxtofl@arg,f
  1292  0180  3000               	movlw	0
  1293  0181  1803               	skipnc
  1294  0182  3001               	movlw	1
  1295  0183  07AD               	addwf	___xxtofl@arg+1,f
  1296  0184  3000               	movlw	0
  1297  0185  1803               	skipnc
  1298  0186  3001               	movlw	1
  1299  0187  07AE               	addwf	___xxtofl@arg+2,f
  1300  0188  3000               	movlw	0
  1301  0189  1803               	skipnc
  1302  018A  3001               	movlw	1
  1303  018B  07AF               	addwf	___xxtofl@arg+3,f
  1304  018C                     l1548:
  1305  018C  3001               	movlw	1
  1306  018D                     u2085:
  1307  018D  1003               	clrc
  1308  018E  0CAF               	rrf	___xxtofl@arg+3,f
  1309  018F  0CAE               	rrf	___xxtofl@arg+2,f
  1310  0190  0CAD               	rrf	___xxtofl@arg+1,f
  1311  0191  0CAC               	rrf	___xxtofl@arg,f
  1312  0192  3EFF               	addlw	-1
  1313  0193  1D03               	skipz
  1314  0194  298D               	goto	u2085
  1315  0195                     l601:
  1316  0195  30FF               	movlw	255
  1317  0196  052F               	andwf	___xxtofl@arg+3,w
  1318  0197  1D03               	btfss	3,2
  1319  0198  299A               	goto	u2091
  1320  0199  299B               	goto	u2090
  1321  019A                     u2091:
  1322  019A  297A               	goto	l1544
  1323  019B                     u2090:
  1324  019B  29A7               	goto	l1552
  1325  019C                     l1550:
  1326  019C  3001               	movlw	1
  1327  019D  02AB               	subwf	___xxtofl@exp,f
  1328  019E  3001               	movlw	1
  1329  019F  00F9               	movwf	??___xxtofl
  1330  01A0                     u2105:
  1331  01A0  1003               	clrc
  1332  01A1  0DAC               	rlf	___xxtofl@arg,f
  1333  01A2  0DAD               	rlf	___xxtofl@arg+1,f
  1334  01A3  0DAE               	rlf	___xxtofl@arg+2,f
  1335  01A4  0DAF               	rlf	___xxtofl@arg+3,f
  1336  01A5  0BF9               	decfsz	??___xxtofl,f
  1337  01A6  29A0               	goto	u2105
  1338  01A7                     l1552:
  1339  01A7  1BAE               	btfsc	___xxtofl@arg+2,7
  1340  01A8  29AA               	goto	u2111
  1341  01A9  29AB               	goto	u2110
  1342  01AA                     u2111:
  1343  01AA  29B1               	goto	l608
  1344  01AB                     u2110:
  1345  01AB                     l1554:
  1346  01AB  3002               	movlw	2
  1347  01AC  022B               	subwf	___xxtofl@exp,w
  1348  01AD  1803               	skipnc
  1349  01AE  29B0               	goto	u2121
  1350  01AF  29B1               	goto	u2120
  1351  01B0                     u2121:
  1352  01B0  299C               	goto	l1550
  1353  01B1                     u2120:
  1354  01B1                     l608:
  1355  01B1  182B               	btfsc	___xxtofl@exp,0
  1356  01B2  29B4               	goto	u2131
  1357  01B3  29B5               	goto	u2130
  1358  01B4                     u2131:
  1359  01B4  29BD               	goto	l609
  1360  01B5                     u2130:
  1361  01B5                     l1556:
  1362  01B5  30FF               	movlw	255
  1363  01B6  05AC               	andwf	___xxtofl@arg,f
  1364  01B7  30FF               	movlw	255
  1365  01B8  05AD               	andwf	___xxtofl@arg+1,f
  1366  01B9  307F               	movlw	127
  1367  01BA  05AE               	andwf	___xxtofl@arg+2,f
  1368  01BB  30FF               	movlw	255
  1369  01BC  05AF               	andwf	___xxtofl@arg+3,f
  1370  01BD                     l609:
  1371  01BD  1003               	clrc
  1372  01BE  0CAB               	rrf	___xxtofl@exp,f
  1373  01BF                     l1558:
  1374  01BF  082B               	movf	___xxtofl@exp,w
  1375  01C0  00F9               	movwf	??___xxtofl
  1376  01C1  01FA               	clrf	??___xxtofl+1
  1377  01C2  01FB               	clrf	??___xxtofl+2
  1378  01C3  01FC               	clrf	??___xxtofl+3
  1379  01C4  3018               	movlw	24
  1380  01C5                     u2145:
  1381  01C5  1003               	clrc
  1382  01C6  0DF9               	rlf	??___xxtofl,f
  1383  01C7  0DFA               	rlf	??___xxtofl+1,f
  1384  01C8  0DFB               	rlf	??___xxtofl+2,f
  1385  01C9  0DFC               	rlf	??___xxtofl+3,f
  1386  01CA                     u2140:
  1387  01CA  3EFF               	addlw	-1
  1388  01CB  1D03               	skipz
  1389  01CC  29C5               	goto	u2145
  1390  01CD  0879               	movf	??___xxtofl,w
  1391  01CE  04AC               	iorwf	___xxtofl@arg,f
  1392  01CF  087A               	movf	??___xxtofl+1,w
  1393  01D0  04AD               	iorwf	___xxtofl@arg+1,f
  1394  01D1  087B               	movf	??___xxtofl+2,w
  1395  01D2  04AE               	iorwf	___xxtofl@arg+2,f
  1396  01D3  087C               	movf	??___xxtofl+3,w
  1397  01D4  04AF               	iorwf	___xxtofl@arg+3,f
  1398  01D5                     l1560:
  1399  01D5  082A               	movf	___xxtofl@sign,w
  1400  01D6  1903               	btfsc	3,2
  1401  01D7  29D9               	goto	u2151
  1402  01D8  29DA               	goto	u2150
  1403  01D9                     u2151:
  1404  01D9  29DF               	goto	l1566
  1405  01DA                     u2150:
  1406  01DA                     l1562:
  1407  01DA  1FA9               	btfss	___xxtofl@val+3,7
  1408  01DB  29DD               	goto	u2161
  1409  01DC  29DE               	goto	u2160
  1410  01DD                     u2161:
  1411  01DD  29DF               	goto	l1566
  1412  01DE                     u2160:
  1413  01DE                     l1564:
  1414  01DE  17AF               	bsf	___xxtofl@arg+3,7
  1415  01DF                     l1566:
  1416  01DF  082F               	movf	___xxtofl@arg+3,w
  1417  01E0  00A9               	movwf	?___xxtofl+3
  1418  01E1  082E               	movf	___xxtofl@arg+2,w
  1419  01E2  00A8               	movwf	?___xxtofl+2
  1420  01E3  082D               	movf	___xxtofl@arg+1,w
  1421  01E4  00A7               	movwf	?___xxtofl+1
  1422  01E5  082C               	movf	___xxtofl@arg,w
  1423  01E6  00A6               	movwf	?___xxtofl
  1424  01E7                     l597:
  1425  01E7  0008               	return
  1426  01E8                     __end_of___xxtofl:
  1427                           
  1428                           	psect	text6
  1429  0013                     __ptext6:	
  1430 ;; *************** function ___fltol *****************
  1431 ;; Defined at:
  1432 ;;		line 43 in file "D:\File Install MBLAB IDE\XC8\pic\sources\c90\common\fltol.c"
  1433 ;; Parameters:    Size  Location     Type
  1434 ;;  f1              4   68[BANK0 ] unsigned char 
  1435 ;; Auto vars:     Size  Location     Type
  1436 ;;  exp1            1   78[BANK0 ] unsigned char 
  1437 ;;  sign1           1   77[BANK0 ] unsigned char 
  1438 ;; Return value:  Size  Location     Type
  1439 ;;                  4   68[BANK0 ] long 
  1440 ;; Registers used:
  1441 ;;		wreg, status,2, status,0
  1442 ;; Tracked objects:
  1443 ;;		On entry : 0/0
  1444 ;;		On exit  : 0/0
  1445 ;;		Unchanged: 0/0
  1446 ;; Data sizes:     COMMON   BANK0   BANK1   BANK3   BANK2
  1447 ;;      Params:         0       4       0       0       0
  1448 ;;      Locals:         0       2       0       0       0
  1449 ;;      Temps:          0       5       0       0       0
  1450 ;;      Totals:         0      11       0       0       0
  1451 ;;Total ram usage:       11 bytes
  1452 ;; Hardware stack levels used: 1
  1453 ;; This function calls:
  1454 ;;		Nothing
  1455 ;; This function is called by:
  1456 ;;		_PWM1_Set_Duty
  1457 ;; This function uses a non-reentrant model
  1458 ;;
  1459                           
  1460                           
  1461                           ;psect for function ___fltol
  1462  0013                     ___fltol:
  1463  0013                     l1208:	
  1464                           ;incstack = 0
  1465                           ; Regs used in ___fltol: [wreg+status,2+status,0]
  1466                           
  1467  0013  1003               	clrc
  1468  0014  1283               	bcf	3,5	;RP0=0, select bank0
  1469  0015  1303               	bcf	3,6	;RP1=0, select bank0
  1470  0016  0D66               	rlf	___fltol@f1+2,w
  1471  0017  0D67               	rlf	___fltol@f1+3,w
  1472  0018  00E8               	movwf	??___fltol
  1473  0019  0868               	movf	??___fltol,w
  1474  001A  00EE               	movwf	___fltol@exp1
  1475  001B  086E               	movf	___fltol@exp1,w
  1476  001C  1D03               	btfss	3,2
  1477  001D  281F               	goto	u1271
  1478  001E  2820               	goto	u1270
  1479  001F                     u1271:
  1480  001F  2829               	goto	l1214
  1481  0020                     u1270:
  1482  0020                     l1210:
  1483  0020  3000               	movlw	0
  1484  0021  00E7               	movwf	?___fltol+3
  1485  0022  3000               	movlw	0
  1486  0023  00E6               	movwf	?___fltol+2
  1487  0024  3000               	movlw	0
  1488  0025  00E5               	movwf	?___fltol+1
  1489  0026  3000               	movlw	0
  1490  0027  00E4               	movwf	?___fltol
  1491  0028  288E               	goto	l348
  1492  0029                     l1214:
  1493  0029  0864               	movf	___fltol@f1,w
  1494  002A  00E8               	movwf	??___fltol
  1495  002B  0865               	movf	___fltol@f1+1,w
  1496  002C  00E9               	movwf	??___fltol+1
  1497  002D  0866               	movf	___fltol@f1+2,w
  1498  002E  00EA               	movwf	??___fltol+2
  1499  002F  0867               	movf	___fltol@f1+3,w
  1500  0030  00EB               	movwf	??___fltol+3
  1501  0031  301F               	movlw	31
  1502  0032                     u1285:
  1503  0032  1003               	clrc
  1504  0033  0CEB               	rrf	??___fltol+3,f
  1505  0034  0CEA               	rrf	??___fltol+2,f
  1506  0035  0CE9               	rrf	??___fltol+1,f
  1507  0036  0CE8               	rrf	??___fltol,f
  1508  0037                     u1280:
  1509  0037  3EFF               	addlw	-1
  1510  0038  1D03               	skipz
  1511  0039  2832               	goto	u1285
  1512  003A  0868               	movf	??___fltol,w
  1513  003B  00EC               	movwf	??___fltol+4
  1514  003C  086C               	movf	??___fltol+4,w
  1515  003D  00ED               	movwf	___fltol@sign1
  1516  003E                     l1216:
  1517  003E  17E6               	bsf	___fltol@f1+2,7
  1518  003F                     l1218:
  1519  003F  30FF               	movlw	255
  1520  0040  05E4               	andwf	___fltol@f1,f
  1521  0041  30FF               	movlw	255
  1522  0042  05E5               	andwf	___fltol@f1+1,f
  1523  0043  30FF               	movlw	255
  1524  0044  05E6               	andwf	___fltol@f1+2,f
  1525  0045  3000               	movlw	0
  1526  0046  05E7               	andwf	___fltol@f1+3,f
  1527  0047                     l1220:
  1528  0047  3096               	movlw	150
  1529  0048  02EE               	subwf	___fltol@exp1,f
  1530  0049                     l1222:
  1531  0049  1FEE               	btfss	___fltol@exp1,7
  1532  004A  284C               	goto	u1291
  1533  004B  284D               	goto	u1290
  1534  004C                     u1291:
  1535  004C  2867               	goto	l1232
  1536  004D                     u1290:
  1537  004D                     l1224:
  1538  004D  086E               	movf	___fltol@exp1,w
  1539  004E  3A80               	xorlw	128
  1540  004F  3E97               	addlw	151
  1541  0050  1803               	skipnc
  1542  0051  2853               	goto	u1301
  1543  0052  2854               	goto	u1300
  1544  0053                     u1301:
  1545  0053  2855               	goto	l1230
  1546  0054                     u1300:
  1547  0054  2820               	goto	l1210
  1548  0055                     l1230:
  1549  0055  3001               	movlw	1
  1550  0056                     u1315:
  1551  0056  1003               	clrc
  1552  0057  0CE7               	rrf	___fltol@f1+3,f
  1553  0058  0CE6               	rrf	___fltol@f1+2,f
  1554  0059  0CE5               	rrf	___fltol@f1+1,f
  1555  005A  0CE4               	rrf	___fltol@f1,f
  1556  005B  3EFF               	addlw	-1
  1557  005C  1D03               	skipz
  1558  005D  2856               	goto	u1315
  1559  005E  3001               	movlw	1
  1560  005F  00E8               	movwf	??___fltol
  1561  0060  0868               	movf	??___fltol,w
  1562  0061  07EE               	addwf	___fltol@exp1,f
  1563  0062  1D03               	btfss	3,2
  1564  0063  2865               	goto	u1321
  1565  0064  2866               	goto	u1320
  1566  0065                     u1321:
  1567  0065  2855               	goto	l1230
  1568  0066                     u1320:
  1569  0066  287E               	goto	l1240
  1570  0067                     l1232:
  1571  0067  3020               	movlw	32
  1572  0068  026E               	subwf	___fltol@exp1,w
  1573  0069  1C03               	skipc
  1574  006A  286C               	goto	u1331
  1575  006B  286D               	goto	u1330
  1576  006C                     u1331:
  1577  006C  2879               	goto	l355
  1578  006D                     u1330:
  1579  006D  2820               	goto	l1210
  1580  006E                     l1238:
  1581  006E  3001               	movlw	1
  1582  006F  00E8               	movwf	??___fltol
  1583  0070                     u1345:
  1584  0070  1003               	clrc
  1585  0071  0DE4               	rlf	___fltol@f1,f
  1586  0072  0DE5               	rlf	___fltol@f1+1,f
  1587  0073  0DE6               	rlf	___fltol@f1+2,f
  1588  0074  0DE7               	rlf	___fltol@f1+3,f
  1589  0075  0BE8               	decfsz	??___fltol,f
  1590  0076  2870               	goto	u1345
  1591  0077  3001               	movlw	1
  1592  0078  02EE               	subwf	___fltol@exp1,f
  1593  0079                     l355:
  1594  0079  086E               	movf	___fltol@exp1,w
  1595  007A  1D03               	btfss	3,2
  1596  007B  287D               	goto	u1351
  1597  007C  287E               	goto	u1350
  1598  007D                     u1351:
  1599  007D  286E               	goto	l1238
  1600  007E                     u1350:
  1601  007E                     l1240:
  1602  007E  086D               	movf	___fltol@sign1,w
  1603  007F  1903               	btfsc	3,2
  1604  0080  2882               	goto	u1361
  1605  0081  2883               	goto	u1360
  1606  0082                     u1361:
  1607  0082  288E               	goto	l358
  1608  0083                     u1360:
  1609  0083                     l1242:
  1610  0083  09E4               	comf	___fltol@f1,f
  1611  0084  09E5               	comf	___fltol@f1+1,f
  1612  0085  09E6               	comf	___fltol@f1+2,f
  1613  0086  09E7               	comf	___fltol@f1+3,f
  1614  0087  0AE4               	incf	___fltol@f1,f
  1615  0088  1903               	skipnz
  1616  0089  0AE5               	incf	___fltol@f1+1,f
  1617  008A  1903               	skipnz
  1618  008B  0AE6               	incf	___fltol@f1+2,f
  1619  008C  1903               	skipnz
  1620  008D  0AE7               	incf	___fltol@f1+3,f
  1621  008E                     l358:
  1622  008E                     l348:
  1623  008E  0008               	return
  1624  008F                     __end_of___fltol:
  1625                           
  1626                           	psect	text7
  1627  0481                     __ptext7:	
  1628 ;; *************** function ___flmul *****************
  1629 ;; Defined at:
  1630 ;;		line 8 in file "D:\File Install MBLAB IDE\XC8\pic\sources\c90\common\sprcmul.c"
  1631 ;; Parameters:    Size  Location     Type
  1632 ;;  b               4   42[BANK0 ] long 
  1633 ;;  a               4   46[BANK0 ] long 
  1634 ;; Auto vars:     Size  Location     Type
  1635 ;;  prod            4   62[BANK0 ] struct .
  1636 ;;  grs             4   56[BANK0 ] unsigned long 
  1637 ;;  temp            2   66[BANK0 ] struct .
  1638 ;;  bexp            1   61[BANK0 ] unsigned char 
  1639 ;;  aexp            1   60[BANK0 ] unsigned char 
  1640 ;;  sign            1   55[BANK0 ] unsigned char 
  1641 ;; Return value:  Size  Location     Type
  1642 ;;                  4   42[BANK0 ] unsigned char 
  1643 ;; Registers used:
  1644 ;;		wreg, status,2, status,0, btemp+1, pclath, cstack
  1645 ;; Tracked objects:
  1646 ;;		On entry : 0/0
  1647 ;;		On exit  : 0/0
  1648 ;;		Unchanged: 0/0
  1649 ;; Data sizes:     COMMON   BANK0   BANK1   BANK3   BANK2
  1650 ;;      Params:         0       8       0       0       0
  1651 ;;      Locals:         0      13       0       0       0
  1652 ;;      Temps:          0       5       0       0       0
  1653 ;;      Totals:         0      26       0       0       0
  1654 ;;Total ram usage:       26 bytes
  1655 ;; Hardware stack levels used: 1
  1656 ;; Hardware stack levels required when called: 1
  1657 ;; This function calls:
  1658 ;;		__Umul8_16
  1659 ;; This function is called by:
  1660 ;;		_PWM1_Set_Duty
  1661 ;; This function uses a non-reentrant model
  1662 ;;
  1663                           
  1664                           
  1665                           ;psect for function ___flmul
  1666  0481                     ___flmul:
  1667  0481                     l1386:	
  1668                           ;incstack = 0
  1669                           ; Regs used in ___flmul: [wreg+status,2+status,0+btemp+1+pclath+cstack]
  1670                           
  1671  0481  1283               	bcf	3,5	;RP0=0, select bank0
  1672  0482  1303               	bcf	3,6	;RP1=0, select bank0
  1673  0483  084D               	movf	___flmul@b+3,w
  1674  0484  3980               	andlw	128
  1675  0485  00D2               	movwf	??___flmul
  1676  0486  0852               	movf	??___flmul,w
  1677  0487  00D7               	movwf	___flmul@sign
  1678  0488                     l1388:
  1679  0488  084D               	movf	___flmul@b+3,w
  1680  0489  00D2               	movwf	??___flmul
  1681  048A  0752               	addwf	??___flmul,w
  1682  048B  00D3               	movwf	??___flmul+1
  1683  048C  0853               	movf	??___flmul+1,w
  1684  048D  00DD               	movwf	___flmul@bexp
  1685  048E                     l1390:
  1686  048E  1FCC               	btfss	___flmul@b+2,7
  1687  048F  2C91               	goto	u1661
  1688  0490  2C92               	goto	u1660
  1689  0491                     u1661:
  1690  0491  2C93               	goto	l1394
  1691  0492                     u1660:
  1692  0492                     l1392:
  1693  0492  145D               	bsf	___flmul@bexp,0
  1694  0493                     l1394:
  1695  0493  085D               	movf	___flmul@bexp,w
  1696  0494  1903               	btfsc	3,2
  1697  0495  2C97               	goto	u1671
  1698  0496  2C98               	goto	u1670
  1699  0497                     u1671:
  1700  0497  2CA7               	goto	l1402
  1701  0498                     u1670:
  1702  0498                     l1396:
  1703  0498  0A5D               	incf	___flmul@bexp,w
  1704  0499  1D03               	btfss	3,2
  1705  049A  2C9C               	goto	u1681
  1706  049B  2C9D               	goto	u1680
  1707  049C                     u1681:
  1708  049C  2CA5               	goto	l1400
  1709  049D                     u1680:
  1710  049D                     l1398:
  1711  049D  3000               	movlw	0
  1712  049E  00CD               	movwf	___flmul@b+3
  1713  049F  3000               	movlw	0
  1714  04A0  00CC               	movwf	___flmul@b+2
  1715  04A1  3000               	movlw	0
  1716  04A2  00CB               	movwf	___flmul@b+1
  1717  04A3  3000               	movlw	0
  1718  04A4  00CA               	movwf	___flmul@b
  1719  04A5                     l1400:
  1720  04A5  17CC               	bsf	___flmul@b+2,7
  1721  04A6  2CAF               	goto	l1404
  1722  04A7                     l1402:
  1723  04A7  3000               	movlw	0
  1724  04A8  00CD               	movwf	___flmul@b+3
  1725  04A9  3000               	movlw	0
  1726  04AA  00CC               	movwf	___flmul@b+2
  1727  04AB  3000               	movlw	0
  1728  04AC  00CB               	movwf	___flmul@b+1
  1729  04AD  3000               	movlw	0
  1730  04AE  00CA               	movwf	___flmul@b
  1731  04AF                     l1404:
  1732  04AF  0851               	movf	___flmul@a+3,w
  1733  04B0  3980               	andlw	128
  1734  04B1  00D2               	movwf	??___flmul
  1735  04B2  0852               	movf	??___flmul,w
  1736  04B3  06D7               	xorwf	___flmul@sign,f
  1737  04B4                     l1406:
  1738  04B4  0851               	movf	___flmul@a+3,w
  1739  04B5  00D2               	movwf	??___flmul
  1740  04B6  0752               	addwf	??___flmul,w
  1741  04B7  00D3               	movwf	??___flmul+1
  1742  04B8  0853               	movf	??___flmul+1,w
  1743  04B9  00DC               	movwf	___flmul@aexp
  1744  04BA                     l1408:
  1745  04BA  1FD0               	btfss	___flmul@a+2,7
  1746  04BB  2CBD               	goto	u1691
  1747  04BC  2CBE               	goto	u1690
  1748  04BD                     u1691:
  1749  04BD  2CBF               	goto	l1412
  1750  04BE                     u1690:
  1751  04BE                     l1410:
  1752  04BE  145C               	bsf	___flmul@aexp,0
  1753  04BF                     l1412:
  1754  04BF  085C               	movf	___flmul@aexp,w
  1755  04C0  1903               	btfsc	3,2
  1756  04C1  2CC3               	goto	u1701
  1757  04C2  2CC4               	goto	u1700
  1758  04C3                     u1701:
  1759  04C3  2CD3               	goto	l1420
  1760  04C4                     u1700:
  1761  04C4                     l1414:
  1762  04C4  0A5C               	incf	___flmul@aexp,w
  1763  04C5  1D03               	btfss	3,2
  1764  04C6  2CC8               	goto	u1711
  1765  04C7  2CC9               	goto	u1710
  1766  04C8                     u1711:
  1767  04C8  2CD1               	goto	l1418
  1768  04C9                     u1710:
  1769  04C9                     l1416:
  1770  04C9  3000               	movlw	0
  1771  04CA  00D1               	movwf	___flmul@a+3
  1772  04CB  3000               	movlw	0
  1773  04CC  00D0               	movwf	___flmul@a+2
  1774  04CD  3000               	movlw	0
  1775  04CE  00CF               	movwf	___flmul@a+1
  1776  04CF  3000               	movlw	0
  1777  04D0  00CE               	movwf	___flmul@a
  1778  04D1                     l1418:
  1779  04D1  17D0               	bsf	___flmul@a+2,7
  1780  04D2  2CDB               	goto	l1422
  1781  04D3                     l1420:
  1782  04D3  3000               	movlw	0
  1783  04D4  00D1               	movwf	___flmul@a+3
  1784  04D5  3000               	movlw	0
  1785  04D6  00D0               	movwf	___flmul@a+2
  1786  04D7  3000               	movlw	0
  1787  04D8  00CF               	movwf	___flmul@a+1
  1788  04D9  3000               	movlw	0
  1789  04DA  00CE               	movwf	___flmul@a
  1790  04DB                     l1422:
  1791  04DB  085C               	movf	___flmul@aexp,w
  1792  04DC  1903               	btfsc	3,2
  1793  04DD  2CDF               	goto	u1721
  1794  04DE  2CE0               	goto	u1720
  1795  04DF                     u1721:
  1796  04DF  2CE5               	goto	l1426
  1797  04E0                     u1720:
  1798  04E0                     l1424:
  1799  04E0  085D               	movf	___flmul@bexp,w
  1800  04E1  1D03               	btfss	3,2
  1801  04E2  2CE4               	goto	u1731
  1802  04E3  2CE5               	goto	u1730
  1803  04E4                     u1731:
  1804  04E4  2CEE               	goto	l1430
  1805  04E5                     u1730:
  1806  04E5                     l1426:
  1807  04E5  3000               	movlw	0
  1808  04E6  00CD               	movwf	?___flmul+3
  1809  04E7  3000               	movlw	0
  1810  04E8  00CC               	movwf	?___flmul+2
  1811  04E9  3000               	movlw	0
  1812  04EA  00CB               	movwf	?___flmul+1
  1813  04EB  3000               	movlw	0
  1814  04EC  00CA               	movwf	?___flmul
  1815  04ED  2FE1               	goto	l551
  1816  04EE                     l1430:
  1817  04EE  084A               	movf	___flmul@b,w
  1818  04EF  00D2               	movwf	??___flmul
  1819  04F0  0852               	movf	??___flmul,w
  1820  04F1  00F0               	movwf	__Umul8_16@multiplicand
  1821  04F2  0850               	movf	___flmul@a+2,w
  1822  04F3  120A  158A  2720  120A  118A  	fcall	__Umul8_16
  1823  04F8  0871               	movf	?__Umul8_16+1,w
  1824  04F9  1283               	bcf	3,5	;RP0=0, select bank0
  1825  04FA  1303               	bcf	3,6	;RP1=0, select bank0
  1826  04FB  00E3               	movwf	___flmul@temp+1
  1827  04FC  0870               	movf	?__Umul8_16,w
  1828  04FD  00E2               	movwf	___flmul@temp
  1829  04FE                     l1432:
  1830  04FE  0862               	movf	___flmul@temp,w
  1831  04FF  00D2               	movwf	??___flmul
  1832  0500  01D3               	clrf	??___flmul+1
  1833  0501  01D4               	clrf	??___flmul+2
  1834  0502  01D5               	clrf	??___flmul+3
  1835  0503  0855               	movf	??___flmul+3,w
  1836  0504  00DB               	movwf	___flmul@grs+3
  1837  0505  0854               	movf	??___flmul+2,w
  1838  0506  00DA               	movwf	___flmul@grs+2
  1839  0507  0853               	movf	??___flmul+1,w
  1840  0508  00D9               	movwf	___flmul@grs+1
  1841  0509  0852               	movf	??___flmul,w
  1842  050A  00D8               	movwf	___flmul@grs
  1843  050B                     l1434:
  1844  050B  0863               	movf	___flmul@temp+1,w
  1845  050C  00D2               	movwf	??___flmul
  1846  050D  01D3               	clrf	??___flmul+1
  1847  050E  01D4               	clrf	??___flmul+2
  1848  050F  01D5               	clrf	??___flmul+3
  1849  0510  0855               	movf	??___flmul+3,w
  1850  0511  00E1               	movwf	___flmul@prod+3
  1851  0512  0854               	movf	??___flmul+2,w
  1852  0513  00E0               	movwf	___flmul@prod+2
  1853  0514  0853               	movf	??___flmul+1,w
  1854  0515  00DF               	movwf	___flmul@prod+1
  1855  0516  0852               	movf	??___flmul,w
  1856  0517  00DE               	movwf	___flmul@prod
  1857  0518  084B               	movf	___flmul@b+1,w
  1858  0519  00D2               	movwf	??___flmul
  1859  051A  0852               	movf	??___flmul,w
  1860  051B  00F0               	movwf	__Umul8_16@multiplicand
  1861  051C  084F               	movf	___flmul@a+1,w
  1862  051D  120A  158A  2720  120A  118A  	fcall	__Umul8_16
  1863  0522  0871               	movf	?__Umul8_16+1,w
  1864  0523  1283               	bcf	3,5	;RP0=0, select bank0
  1865  0524  1303               	bcf	3,6	;RP1=0, select bank0
  1866  0525  00E3               	movwf	___flmul@temp+1
  1867  0526  0870               	movf	?__Umul8_16,w
  1868  0527  00E2               	movwf	___flmul@temp
  1869  0528                     l1436:
  1870  0528  0862               	movf	___flmul@temp,w
  1871  0529  00D2               	movwf	??___flmul
  1872  052A  01D3               	clrf	??___flmul+1
  1873  052B  01D4               	clrf	??___flmul+2
  1874  052C  01D5               	clrf	??___flmul+3
  1875  052D  0852               	movf	??___flmul,w
  1876  052E  07D8               	addwf	___flmul@grs,f
  1877  052F  0853               	movf	??___flmul+1,w
  1878  0530  1103               	clrz
  1879  0531  1803               	skipnc
  1880  0532  3E01               	addlw	1
  1881  0533  1903               	skipnz
  1882  0534  2D36               	goto	u1741
  1883  0535  07D9               	addwf	___flmul@grs+1,f
  1884  0536                     u1741:
  1885  0536  0854               	movf	??___flmul+2,w
  1886  0537  1103               	clrz
  1887  0538  1803               	skipnc
  1888  0539  3E01               	addlw	1
  1889  053A  1903               	skipnz
  1890  053B  2D3D               	goto	u1742
  1891  053C  07DA               	addwf	___flmul@grs+2,f
  1892  053D                     u1742:
  1893  053D  0855               	movf	??___flmul+3,w
  1894  053E  1103               	clrz
  1895  053F  1803               	skipnc
  1896  0540  3E01               	addlw	1
  1897  0541  1903               	skipnz
  1898  0542  2D44               	goto	u1743
  1899  0543  07DB               	addwf	___flmul@grs+3,f
  1900  0544                     u1743:
  1901  0544                     l1438:
  1902  0544  0863               	movf	___flmul@temp+1,w
  1903  0545  00D2               	movwf	??___flmul
  1904  0546  01D3               	clrf	??___flmul+1
  1905  0547  01D4               	clrf	??___flmul+2
  1906  0548  01D5               	clrf	??___flmul+3
  1907  0549  0852               	movf	??___flmul,w
  1908  054A  07DE               	addwf	___flmul@prod,f
  1909  054B  0853               	movf	??___flmul+1,w
  1910  054C  1103               	clrz
  1911  054D  1803               	skipnc
  1912  054E  3E01               	addlw	1
  1913  054F  1903               	skipnz
  1914  0550  2D52               	goto	u1751
  1915  0551  07DF               	addwf	___flmul@prod+1,f
  1916  0552                     u1751:
  1917  0552  0854               	movf	??___flmul+2,w
  1918  0553  1103               	clrz
  1919  0554  1803               	skipnc
  1920  0555  3E01               	addlw	1
  1921  0556  1903               	skipnz
  1922  0557  2D59               	goto	u1752
  1923  0558  07E0               	addwf	___flmul@prod+2,f
  1924  0559                     u1752:
  1925  0559  0855               	movf	??___flmul+3,w
  1926  055A  1103               	clrz
  1927  055B  1803               	skipnc
  1928  055C  3E01               	addlw	1
  1929  055D  1903               	skipnz
  1930  055E  2D60               	goto	u1753
  1931  055F  07E1               	addwf	___flmul@prod+3,f
  1932  0560                     u1753:
  1933  0560  084C               	movf	___flmul@b+2,w
  1934  0561  00D2               	movwf	??___flmul
  1935  0562  0852               	movf	??___flmul,w
  1936  0563  00F0               	movwf	__Umul8_16@multiplicand
  1937  0564  084E               	movf	___flmul@a,w
  1938  0565  120A  158A  2720  120A  118A  	fcall	__Umul8_16
  1939  056A  0871               	movf	?__Umul8_16+1,w
  1940  056B  1283               	bcf	3,5	;RP0=0, select bank0
  1941  056C  1303               	bcf	3,6	;RP1=0, select bank0
  1942  056D  00E3               	movwf	___flmul@temp+1
  1943  056E  0870               	movf	?__Umul8_16,w
  1944  056F  00E2               	movwf	___flmul@temp
  1945  0570                     l1440:
  1946  0570  0862               	movf	___flmul@temp,w
  1947  0571  00D2               	movwf	??___flmul
  1948  0572  01D3               	clrf	??___flmul+1
  1949  0573  01D4               	clrf	??___flmul+2
  1950  0574  01D5               	clrf	??___flmul+3
  1951  0575  0852               	movf	??___flmul,w
  1952  0576  07D8               	addwf	___flmul@grs,f
  1953  0577  0853               	movf	??___flmul+1,w
  1954  0578  1103               	clrz
  1955  0579  1803               	skipnc
  1956  057A  3E01               	addlw	1
  1957  057B  1903               	skipnz
  1958  057C  2D7E               	goto	u1761
  1959  057D  07D9               	addwf	___flmul@grs+1,f
  1960  057E                     u1761:
  1961  057E  0854               	movf	??___flmul+2,w
  1962  057F  1103               	clrz
  1963  0580  1803               	skipnc
  1964  0581  3E01               	addlw	1
  1965  0582  1903               	skipnz
  1966  0583  2D85               	goto	u1762
  1967  0584  07DA               	addwf	___flmul@grs+2,f
  1968  0585                     u1762:
  1969  0585  0855               	movf	??___flmul+3,w
  1970  0586  1103               	clrz
  1971  0587  1803               	skipnc
  1972  0588  3E01               	addlw	1
  1973  0589  1903               	skipnz
  1974  058A  2D8C               	goto	u1763
  1975  058B  07DB               	addwf	___flmul@grs+3,f
  1976  058C                     u1763:
  1977  058C                     l1442:
  1978  058C  0863               	movf	___flmul@temp+1,w
  1979  058D  00D2               	movwf	??___flmul
  1980  058E  01D3               	clrf	??___flmul+1
  1981  058F  01D4               	clrf	??___flmul+2
  1982  0590  01D5               	clrf	??___flmul+3
  1983  0591  0852               	movf	??___flmul,w
  1984  0592  07DE               	addwf	___flmul@prod,f
  1985  0593  0853               	movf	??___flmul+1,w
  1986  0594  1103               	clrz
  1987  0595  1803               	skipnc
  1988  0596  3E01               	addlw	1
  1989  0597  1903               	skipnz
  1990  0598  2D9A               	goto	u1771
  1991  0599  07DF               	addwf	___flmul@prod+1,f
  1992  059A                     u1771:
  1993  059A  0854               	movf	??___flmul+2,w
  1994  059B  1103               	clrz
  1995  059C  1803               	skipnc
  1996  059D  3E01               	addlw	1
  1997  059E  1903               	skipnz
  1998  059F  2DA1               	goto	u1772
  1999  05A0  07E0               	addwf	___flmul@prod+2,f
  2000  05A1                     u1772:
  2001  05A1  0855               	movf	??___flmul+3,w
  2002  05A2  1103               	clrz
  2003  05A3  1803               	skipnc
  2004  05A4  3E01               	addlw	1
  2005  05A5  1903               	skipnz
  2006  05A6  2DA8               	goto	u1773
  2007  05A7  07E1               	addwf	___flmul@prod+3,f
  2008  05A8                     u1773:
  2009  05A8                     l1444:
  2010  05A8  3008               	movlw	8
  2011  05A9  00D2               	movwf	??___flmul
  2012  05AA                     u1785:
  2013  05AA  1003               	clrc
  2014  05AB  0DD8               	rlf	___flmul@grs,f
  2015  05AC  0DD9               	rlf	___flmul@grs+1,f
  2016  05AD  0DDA               	rlf	___flmul@grs+2,f
  2017  05AE  0DDB               	rlf	___flmul@grs+3,f
  2018  05AF  0BD2               	decfsz	??___flmul,f
  2019  05B0  2DAA               	goto	u1785
  2020  05B1                     l1446:
  2021  05B1  084B               	movf	___flmul@b+1,w
  2022  05B2  00D2               	movwf	??___flmul
  2023  05B3  0852               	movf	??___flmul,w
  2024  05B4  00F0               	movwf	__Umul8_16@multiplicand
  2025  05B5  084E               	movf	___flmul@a,w
  2026  05B6  120A  158A  2720  120A  118A  	fcall	__Umul8_16
  2027  05BB  0871               	movf	?__Umul8_16+1,w
  2028  05BC  1283               	bcf	3,5	;RP0=0, select bank0
  2029  05BD  1303               	bcf	3,6	;RP1=0, select bank0
  2030  05BE  00E3               	movwf	___flmul@temp+1
  2031  05BF  0870               	movf	?__Umul8_16,w
  2032  05C0  00E2               	movwf	___flmul@temp
  2033  05C1                     l1448:
  2034  05C1  0862               	movf	___flmul@temp,w
  2035  05C2  00D2               	movwf	??___flmul
  2036  05C3  0863               	movf	___flmul@temp+1,w
  2037  05C4  00D3               	movwf	??___flmul+1
  2038  05C5  01D4               	clrf	??___flmul+2
  2039  05C6  01D5               	clrf	??___flmul+3
  2040  05C7  0852               	movf	??___flmul,w
  2041  05C8  07D8               	addwf	___flmul@grs,f
  2042  05C9  0853               	movf	??___flmul+1,w
  2043  05CA  1103               	clrz
  2044  05CB  1803               	skipnc
  2045  05CC  3E01               	addlw	1
  2046  05CD  1903               	skipnz
  2047  05CE  2DD0               	goto	u1791
  2048  05CF  07D9               	addwf	___flmul@grs+1,f
  2049  05D0                     u1791:
  2050  05D0  0854               	movf	??___flmul+2,w
  2051  05D1  1103               	clrz
  2052  05D2  1803               	skipnc
  2053  05D3  3E01               	addlw	1
  2054  05D4  1903               	skipnz
  2055  05D5  2DD7               	goto	u1792
  2056  05D6  07DA               	addwf	___flmul@grs+2,f
  2057  05D7                     u1792:
  2058  05D7  0855               	movf	??___flmul+3,w
  2059  05D8  1103               	clrz
  2060  05D9  1803               	skipnc
  2061  05DA  3E01               	addlw	1
  2062  05DB  1903               	skipnz
  2063  05DC  2DDE               	goto	u1793
  2064  05DD  07DB               	addwf	___flmul@grs+3,f
  2065  05DE                     u1793:
  2066  05DE                     l1450:
  2067  05DE  084A               	movf	___flmul@b,w
  2068  05DF  00D2               	movwf	??___flmul
  2069  05E0  0852               	movf	??___flmul,w
  2070  05E1  00F0               	movwf	__Umul8_16@multiplicand
  2071  05E2  084F               	movf	___flmul@a+1,w
  2072  05E3  120A  158A  2720  120A  118A  	fcall	__Umul8_16
  2073  05E8  0871               	movf	?__Umul8_16+1,w
  2074  05E9  1283               	bcf	3,5	;RP0=0, select bank0
  2075  05EA  1303               	bcf	3,6	;RP1=0, select bank0
  2076  05EB  00E3               	movwf	___flmul@temp+1
  2077  05EC  0870               	movf	?__Umul8_16,w
  2078  05ED  00E2               	movwf	___flmul@temp
  2079  05EE                     l1452:
  2080  05EE  0862               	movf	___flmul@temp,w
  2081  05EF  00D2               	movwf	??___flmul
  2082  05F0  0863               	movf	___flmul@temp+1,w
  2083  05F1  00D3               	movwf	??___flmul+1
  2084  05F2  01D4               	clrf	??___flmul+2
  2085  05F3  01D5               	clrf	??___flmul+3
  2086  05F4  0852               	movf	??___flmul,w
  2087  05F5  07D8               	addwf	___flmul@grs,f
  2088  05F6  0853               	movf	??___flmul+1,w
  2089  05F7  1103               	clrz
  2090  05F8  1803               	skipnc
  2091  05F9  3E01               	addlw	1
  2092  05FA  1903               	skipnz
  2093  05FB  2DFD               	goto	u1801
  2094  05FC  07D9               	addwf	___flmul@grs+1,f
  2095  05FD                     u1801:
  2096  05FD  0854               	movf	??___flmul+2,w
  2097  05FE  1103               	clrz
  2098  05FF  1803               	skipnc
  2099  0600  3E01               	addlw	1
  2100  0601  1903               	skipnz
  2101  0602  2E04               	goto	u1802
  2102  0603  07DA               	addwf	___flmul@grs+2,f
  2103  0604                     u1802:
  2104  0604  0855               	movf	??___flmul+3,w
  2105  0605  1103               	clrz
  2106  0606  1803               	skipnc
  2107  0607  3E01               	addlw	1
  2108  0608  1903               	skipnz
  2109  0609  2E0B               	goto	u1803
  2110  060A  07DB               	addwf	___flmul@grs+3,f
  2111  060B                     u1803:
  2112  060B                     l1454:
  2113  060B  3008               	movlw	8
  2114  060C  00D2               	movwf	??___flmul
  2115  060D                     u1815:
  2116  060D  1003               	clrc
  2117  060E  0DD8               	rlf	___flmul@grs,f
  2118  060F  0DD9               	rlf	___flmul@grs+1,f
  2119  0610  0DDA               	rlf	___flmul@grs+2,f
  2120  0611  0DDB               	rlf	___flmul@grs+3,f
  2121  0612  0BD2               	decfsz	??___flmul,f
  2122  0613  2E0D               	goto	u1815
  2123  0614  084A               	movf	___flmul@b,w
  2124  0615  00D2               	movwf	??___flmul
  2125  0616  0852               	movf	??___flmul,w
  2126  0617  00F0               	movwf	__Umul8_16@multiplicand
  2127  0618  084E               	movf	___flmul@a,w
  2128  0619  120A  158A  2720  120A  118A  	fcall	__Umul8_16
  2129  061E  0871               	movf	?__Umul8_16+1,w
  2130  061F  1283               	bcf	3,5	;RP0=0, select bank0
  2131  0620  1303               	bcf	3,6	;RP1=0, select bank0
  2132  0621  00E3               	movwf	___flmul@temp+1
  2133  0622  0870               	movf	?__Umul8_16,w
  2134  0623  00E2               	movwf	___flmul@temp
  2135  0624                     l1456:
  2136  0624  0862               	movf	___flmul@temp,w
  2137  0625  00D2               	movwf	??___flmul
  2138  0626  0863               	movf	___flmul@temp+1,w
  2139  0627  00D3               	movwf	??___flmul+1
  2140  0628  01D4               	clrf	??___flmul+2
  2141  0629  01D5               	clrf	??___flmul+3
  2142  062A  0852               	movf	??___flmul,w
  2143  062B  07D8               	addwf	___flmul@grs,f
  2144  062C  0853               	movf	??___flmul+1,w
  2145  062D  1103               	clrz
  2146  062E  1803               	skipnc
  2147  062F  3E01               	addlw	1
  2148  0630  1903               	skipnz
  2149  0631  2E33               	goto	u1821
  2150  0632  07D9               	addwf	___flmul@grs+1,f
  2151  0633                     u1821:
  2152  0633  0854               	movf	??___flmul+2,w
  2153  0634  1103               	clrz
  2154  0635  1803               	skipnc
  2155  0636  3E01               	addlw	1
  2156  0637  1903               	skipnz
  2157  0638  2E3A               	goto	u1822
  2158  0639  07DA               	addwf	___flmul@grs+2,f
  2159  063A                     u1822:
  2160  063A  0855               	movf	??___flmul+3,w
  2161  063B  1103               	clrz
  2162  063C  1803               	skipnc
  2163  063D  3E01               	addlw	1
  2164  063E  1903               	skipnz
  2165  063F  2E41               	goto	u1823
  2166  0640  07DB               	addwf	___flmul@grs+3,f
  2167  0641                     u1823:
  2168  0641                     l1458:
  2169  0641  084B               	movf	___flmul@b+1,w
  2170  0642  00D2               	movwf	??___flmul
  2171  0643  0852               	movf	??___flmul,w
  2172  0644  00F0               	movwf	__Umul8_16@multiplicand
  2173  0645  0850               	movf	___flmul@a+2,w
  2174  0646  120A  158A  2720  120A  118A  	fcall	__Umul8_16
  2175  064B  0871               	movf	?__Umul8_16+1,w
  2176  064C  1283               	bcf	3,5	;RP0=0, select bank0
  2177  064D  1303               	bcf	3,6	;RP1=0, select bank0
  2178  064E  00E3               	movwf	___flmul@temp+1
  2179  064F  0870               	movf	?__Umul8_16,w
  2180  0650  00E2               	movwf	___flmul@temp
  2181  0651  0862               	movf	___flmul@temp,w
  2182  0652  00D2               	movwf	??___flmul
  2183  0653  0863               	movf	___flmul@temp+1,w
  2184  0654  00D3               	movwf	??___flmul+1
  2185  0655  01D4               	clrf	??___flmul+2
  2186  0656  01D5               	clrf	??___flmul+3
  2187  0657  0852               	movf	??___flmul,w
  2188  0658  07DE               	addwf	___flmul@prod,f
  2189  0659  0853               	movf	??___flmul+1,w
  2190  065A  1103               	clrz
  2191  065B  1803               	skipnc
  2192  065C  3E01               	addlw	1
  2193  065D  1903               	skipnz
  2194  065E  2E60               	goto	u1831
  2195  065F  07DF               	addwf	___flmul@prod+1,f
  2196  0660                     u1831:
  2197  0660  0854               	movf	??___flmul+2,w
  2198  0661  1103               	clrz
  2199  0662  1803               	skipnc
  2200  0663  3E01               	addlw	1
  2201  0664  1903               	skipnz
  2202  0665  2E67               	goto	u1832
  2203  0666  07E0               	addwf	___flmul@prod+2,f
  2204  0667                     u1832:
  2205  0667  0855               	movf	??___flmul+3,w
  2206  0668  1103               	clrz
  2207  0669  1803               	skipnc
  2208  066A  3E01               	addlw	1
  2209  066B  1903               	skipnz
  2210  066C  2E6E               	goto	u1833
  2211  066D  07E1               	addwf	___flmul@prod+3,f
  2212  066E                     u1833:
  2213  066E                     l1460:
  2214  066E  084C               	movf	___flmul@b+2,w
  2215  066F  00D2               	movwf	??___flmul
  2216  0670  0852               	movf	??___flmul,w
  2217  0671  00F0               	movwf	__Umul8_16@multiplicand
  2218  0672  084F               	movf	___flmul@a+1,w
  2219  0673  120A  158A  2720  120A  118A  	fcall	__Umul8_16
  2220  0678  0871               	movf	?__Umul8_16+1,w
  2221  0679  1283               	bcf	3,5	;RP0=0, select bank0
  2222  067A  1303               	bcf	3,6	;RP1=0, select bank0
  2223  067B  00E3               	movwf	___flmul@temp+1
  2224  067C  0870               	movf	?__Umul8_16,w
  2225  067D  00E2               	movwf	___flmul@temp
  2226  067E                     l1462:
  2227  067E  0862               	movf	___flmul@temp,w
  2228  067F  00D2               	movwf	??___flmul
  2229  0680  0863               	movf	___flmul@temp+1,w
  2230  0681  00D3               	movwf	??___flmul+1
  2231  0682  01D4               	clrf	??___flmul+2
  2232  0683  01D5               	clrf	??___flmul+3
  2233  0684  0852               	movf	??___flmul,w
  2234  0685  07DE               	addwf	___flmul@prod,f
  2235  0686  0853               	movf	??___flmul+1,w
  2236  0687  1103               	clrz
  2237  0688  1803               	skipnc
  2238  0689  3E01               	addlw	1
  2239  068A  1903               	skipnz
  2240  068B  2E8D               	goto	u1841
  2241  068C  07DF               	addwf	___flmul@prod+1,f
  2242  068D                     u1841:
  2243  068D  0854               	movf	??___flmul+2,w
  2244  068E  1103               	clrz
  2245  068F  1803               	skipnc
  2246  0690  3E01               	addlw	1
  2247  0691  1903               	skipnz
  2248  0692  2E94               	goto	u1842
  2249  0693  07E0               	addwf	___flmul@prod+2,f
  2250  0694                     u1842:
  2251  0694  0855               	movf	??___flmul+3,w
  2252  0695  1103               	clrz
  2253  0696  1803               	skipnc
  2254  0697  3E01               	addlw	1
  2255  0698  1903               	skipnz
  2256  0699  2E9B               	goto	u1843
  2257  069A  07E1               	addwf	___flmul@prod+3,f
  2258  069B                     u1843:
  2259  069B  084C               	movf	___flmul@b+2,w
  2260  069C  00D2               	movwf	??___flmul
  2261  069D  0852               	movf	??___flmul,w
  2262  069E  00F0               	movwf	__Umul8_16@multiplicand
  2263  069F  0850               	movf	___flmul@a+2,w
  2264  06A0  120A  158A  2720  120A  118A  	fcall	__Umul8_16
  2265  06A5  0871               	movf	?__Umul8_16+1,w
  2266  06A6  1283               	bcf	3,5	;RP0=0, select bank0
  2267  06A7  1303               	bcf	3,6	;RP1=0, select bank0
  2268  06A8  00E3               	movwf	___flmul@temp+1
  2269  06A9  0870               	movf	?__Umul8_16,w
  2270  06AA  00E2               	movwf	___flmul@temp
  2271  06AB                     l1464:
  2272  06AB  0862               	movf	___flmul@temp,w
  2273  06AC  00D2               	movwf	??___flmul
  2274  06AD  0863               	movf	___flmul@temp+1,w
  2275  06AE  00D3               	movwf	??___flmul+1
  2276  06AF  01D4               	clrf	??___flmul+2
  2277  06B0  01D5               	clrf	??___flmul+3
  2278  06B1  3008               	movlw	8
  2279  06B2                     u1855:
  2280  06B2  1003               	clrc
  2281  06B3  0DD2               	rlf	??___flmul,f
  2282  06B4  0DD3               	rlf	??___flmul+1,f
  2283  06B5  0DD4               	rlf	??___flmul+2,f
  2284  06B6  0DD5               	rlf	??___flmul+3,f
  2285  06B7                     u1850:
  2286  06B7  3EFF               	addlw	-1
  2287  06B8  1D03               	skipz
  2288  06B9  2EB2               	goto	u1855
  2289  06BA  0852               	movf	??___flmul,w
  2290  06BB  07DE               	addwf	___flmul@prod,f
  2291  06BC  0853               	movf	??___flmul+1,w
  2292  06BD  1103               	clrz
  2293  06BE  1803               	skipnc
  2294  06BF  3E01               	addlw	1
  2295  06C0  1903               	skipnz
  2296  06C1  2EC3               	goto	u1861
  2297  06C2  07DF               	addwf	___flmul@prod+1,f
  2298  06C3                     u1861:
  2299  06C3  0854               	movf	??___flmul+2,w
  2300  06C4  1103               	clrz
  2301  06C5  1803               	skipnc
  2302  06C6  3E01               	addlw	1
  2303  06C7  1903               	skipnz
  2304  06C8  2ECA               	goto	u1862
  2305  06C9  07E0               	addwf	___flmul@prod+2,f
  2306  06CA                     u1862:
  2307  06CA  0855               	movf	??___flmul+3,w
  2308  06CB  1103               	clrz
  2309  06CC  1803               	skipnc
  2310  06CD  3E01               	addlw	1
  2311  06CE  1903               	skipnz
  2312  06CF  2ED1               	goto	u1863
  2313  06D0  07E1               	addwf	___flmul@prod+3,f
  2314  06D1                     u1863:
  2315  06D1                     l1466:
  2316  06D1  0858               	movf	___flmul@grs,w
  2317  06D2  00D2               	movwf	??___flmul
  2318  06D3  0859               	movf	___flmul@grs+1,w
  2319  06D4  00D3               	movwf	??___flmul+1
  2320  06D5  085A               	movf	___flmul@grs+2,w
  2321  06D6  00D4               	movwf	??___flmul+2
  2322  06D7  085B               	movf	___flmul@grs+3,w
  2323  06D8  00D5               	movwf	??___flmul+3
  2324  06D9  3018               	movlw	24
  2325  06DA                     u1875:
  2326  06DA  1003               	clrc
  2327  06DB  0CD5               	rrf	??___flmul+3,f
  2328  06DC  0CD4               	rrf	??___flmul+2,f
  2329  06DD  0CD3               	rrf	??___flmul+1,f
  2330  06DE  0CD2               	rrf	??___flmul,f
  2331  06DF                     u1870:
  2332  06DF  3EFF               	addlw	-1
  2333  06E0  1D03               	skipz
  2334  06E1  2EDA               	goto	u1875
  2335  06E2  0852               	movf	??___flmul,w
  2336  06E3  07DE               	addwf	___flmul@prod,f
  2337  06E4  0853               	movf	??___flmul+1,w
  2338  06E5  1103               	clrz
  2339  06E6  1803               	skipnc
  2340  06E7  3E01               	addlw	1
  2341  06E8  1903               	skipnz
  2342  06E9  2EEB               	goto	u1881
  2343  06EA  07DF               	addwf	___flmul@prod+1,f
  2344  06EB                     u1881:
  2345  06EB  0854               	movf	??___flmul+2,w
  2346  06EC  1103               	clrz
  2347  06ED  1803               	skipnc
  2348  06EE  3E01               	addlw	1
  2349  06EF  1903               	skipnz
  2350  06F0  2EF2               	goto	u1882
  2351  06F1  07E0               	addwf	___flmul@prod+2,f
  2352  06F2                     u1882:
  2353  06F2  0855               	movf	??___flmul+3,w
  2354  06F3  1103               	clrz
  2355  06F4  1803               	skipnc
  2356  06F5  3E01               	addlw	1
  2357  06F6  1903               	skipnz
  2358  06F7  2EF9               	goto	u1883
  2359  06F8  07E1               	addwf	___flmul@prod+3,f
  2360  06F9                     u1883:
  2361  06F9                     l1468:
  2362  06F9  3008               	movlw	8
  2363  06FA  00D2               	movwf	??___flmul
  2364  06FB                     u1895:
  2365  06FB  1003               	clrc
  2366  06FC  0DD8               	rlf	___flmul@grs,f
  2367  06FD  0DD9               	rlf	___flmul@grs+1,f
  2368  06FE  0DDA               	rlf	___flmul@grs+2,f
  2369  06FF  0DDB               	rlf	___flmul@grs+3,f
  2370  0700  0BD2               	decfsz	??___flmul,f
  2371  0701  2EFB               	goto	u1895
  2372  0702                     l1470:
  2373  0702  085D               	movf	___flmul@bexp,w
  2374  0703  075C               	addwf	___flmul@aexp,w
  2375  0704  00D2               	movwf	??___flmul
  2376  0705  01D3               	clrf	??___flmul+1
  2377  0706  0DD3               	rlf	??___flmul+1,f
  2378  0707  0852               	movf	??___flmul,w
  2379  0708  3E82               	addlw	130
  2380  0709  00E2               	movwf	___flmul@temp
  2381  070A  0853               	movf	??___flmul+1,w
  2382  070B  1803               	skipnc
  2383  070C  3E01               	addlw	1
  2384  070D  3EFF               	addlw	255
  2385  070E  00E3               	movwf	___flmul@temp+1
  2386  070F  2F2D               	goto	l1482
  2387  0710                     l1472:
  2388  0710  3001               	movlw	1
  2389  0711  00D2               	movwf	??___flmul
  2390  0712                     u1905:
  2391  0712  1003               	clrc
  2392  0713  0DDE               	rlf	___flmul@prod,f
  2393  0714  0DDF               	rlf	___flmul@prod+1,f
  2394  0715  0DE0               	rlf	___flmul@prod+2,f
  2395  0716  0DE1               	rlf	___flmul@prod+3,f
  2396  0717  0BD2               	decfsz	??___flmul,f
  2397  0718  2F12               	goto	u1905
  2398  0719                     l1474:
  2399  0719  1FDB               	btfss	___flmul@grs+3,7
  2400  071A  2F1C               	goto	u1911
  2401  071B  2F1D               	goto	u1910
  2402  071C                     u1911:
  2403  071C  2F1E               	goto	l1478
  2404  071D                     u1910:
  2405  071D                     l1476:
  2406  071D  145E               	bsf	___flmul@prod,0
  2407  071E                     l1478:
  2408  071E  3001               	movlw	1
  2409  071F  00D2               	movwf	??___flmul
  2410  0720                     u1925:
  2411  0720  1003               	clrc
  2412  0721  0DD8               	rlf	___flmul@grs,f
  2413  0722  0DD9               	rlf	___flmul@grs+1,f
  2414  0723  0DDA               	rlf	___flmul@grs+2,f
  2415  0724  0DDB               	rlf	___flmul@grs+3,f
  2416  0725  0BD2               	decfsz	??___flmul,f
  2417  0726  2F20               	goto	u1925
  2418  0727                     l1480:
  2419  0727  30FF               	movlw	255
  2420  0728  07E2               	addwf	___flmul@temp,f
  2421  0729  1803               	skipnc
  2422  072A  0AE3               	incf	___flmul@temp+1,f
  2423  072B  30FF               	movlw	255
  2424  072C  07E3               	addwf	___flmul@temp+1,f
  2425  072D                     l1482:
  2426  072D  1FE0               	btfss	___flmul@prod+2,7
  2427  072E  2F30               	goto	u1931
  2428  072F  2F31               	goto	u1930
  2429  0730                     u1931:
  2430  0730  2F10               	goto	l1472
  2431  0731                     u1930:
  2432  0731                     l1484:
  2433  0731  01DC               	clrf	___flmul@aexp
  2434  0732                     l1486:
  2435  0732  1FDB               	btfss	___flmul@grs+3,7
  2436  0733  2F35               	goto	u1941
  2437  0734  2F36               	goto	u1940
  2438  0735                     u1941:
  2439  0735  2F52               	goto	l1494
  2440  0736                     u1940:
  2441  0736                     l1488:
  2442  0736  30FF               	movlw	255
  2443  0737  0558               	andwf	___flmul@grs,w
  2444  0738  00D2               	movwf	??___flmul
  2445  0739  30FF               	movlw	255
  2446  073A  0559               	andwf	___flmul@grs+1,w
  2447  073B  00D3               	movwf	??___flmul+1
  2448  073C  30FF               	movlw	255
  2449  073D  055A               	andwf	___flmul@grs+2,w
  2450  073E  00D4               	movwf	??___flmul+2
  2451  073F  307F               	movlw	127
  2452  0740  055B               	andwf	___flmul@grs+3,w
  2453  0741  00D5               	movwf	??___flmul+3
  2454  0742  0855               	movf	??___flmul+3,w
  2455  0743  0454               	iorwf	??___flmul+2,w
  2456  0744  0453               	iorwf	??___flmul+1,w
  2457  0745  0452               	iorwf	??___flmul,w
  2458  0746  1903               	skipnz
  2459  0747  2F49               	goto	u1951
  2460  0748  2F4A               	goto	u1950
  2461  0749                     u1951:
  2462  0749  2F4D               	goto	l557
  2463  074A                     u1950:
  2464  074A                     l1490:
  2465  074A  01DC               	clrf	___flmul@aexp
  2466  074B  0ADC               	incf	___flmul@aexp,f
  2467  074C  2F52               	goto	l1494
  2468  074D                     l557:
  2469  074D  1C5E               	btfss	___flmul@prod,0
  2470  074E  2F50               	goto	u1961
  2471  074F  2F51               	goto	u1960
  2472  0750                     u1961:
  2473  0750  2F52               	goto	l1494
  2474  0751                     u1960:
  2475  0751  2F4A               	goto	l1490
  2476  0752                     l1494:
  2477  0752  085C               	movf	___flmul@aexp,w
  2478  0753  1903               	btfsc	3,2
  2479  0754  2F56               	goto	u1971
  2480  0755  2F57               	goto	u1970
  2481  0756                     u1971:
  2482  0756  2F88               	goto	l1504
  2483  0757                     u1970:
  2484  0757                     l1496:
  2485  0757  3001               	movlw	1
  2486  0758  07DE               	addwf	___flmul@prod,f
  2487  0759  3000               	movlw	0
  2488  075A  1803               	skipnc
  2489  075B  3001               	movlw	1
  2490  075C  07DF               	addwf	___flmul@prod+1,f
  2491  075D  3000               	movlw	0
  2492  075E  1803               	skipnc
  2493  075F  3001               	movlw	1
  2494  0760  07E0               	addwf	___flmul@prod+2,f
  2495  0761  3000               	movlw	0
  2496  0762  1803               	skipnc
  2497  0763  3001               	movlw	1
  2498  0764  07E1               	addwf	___flmul@prod+3,f
  2499  0765                     l1498:
  2500  0765  1C61               	btfss	___flmul@prod+3,0
  2501  0766  2F68               	goto	u1981
  2502  0767  2F69               	goto	u1980
  2503  0768                     u1981:
  2504  0768  2F88               	goto	l1504
  2505  0769                     u1980:
  2506  0769                     l1500:
  2507  0769  085E               	movf	___flmul@prod,w
  2508  076A  00D2               	movwf	??___flmul
  2509  076B  085F               	movf	___flmul@prod+1,w
  2510  076C  00D3               	movwf	??___flmul+1
  2511  076D  0860               	movf	___flmul@prod+2,w
  2512  076E  00D4               	movwf	??___flmul+2
  2513  076F  0861               	movf	___flmul@prod+3,w
  2514  0770  00D5               	movwf	??___flmul+3
  2515  0771  3001               	movlw	1
  2516  0772  00D6               	movwf	??___flmul+4
  2517  0773                     u1995:
  2518  0773  0D55               	rlf	??___flmul+3,w
  2519  0774  0CD5               	rrf	??___flmul+3,f
  2520  0775  0CD4               	rrf	??___flmul+2,f
  2521  0776  0CD3               	rrf	??___flmul+1,f
  2522  0777  0CD2               	rrf	??___flmul,f
  2523  0778                     u1990:
  2524  0778  0BD6               	decfsz	??___flmul+4,f
  2525  0779  2F73               	goto	u1995
  2526  077A  0855               	movf	??___flmul+3,w
  2527  077B  00E1               	movwf	___flmul@prod+3
  2528  077C  0854               	movf	??___flmul+2,w
  2529  077D  00E0               	movwf	___flmul@prod+2
  2530  077E  0853               	movf	??___flmul+1,w
  2531  077F  00DF               	movwf	___flmul@prod+1
  2532  0780  0852               	movf	??___flmul,w
  2533  0781  00DE               	movwf	___flmul@prod
  2534  0782                     l1502:
  2535  0782  3001               	movlw	1
  2536  0783  07E2               	addwf	___flmul@temp,f
  2537  0784  1803               	skipnc
  2538  0785  0AE3               	incf	___flmul@temp+1,f
  2539  0786  3000               	movlw	0
  2540  0787  07E3               	addwf	___flmul@temp+1,f
  2541  0788                     l1504:
  2542  0788  0863               	movf	___flmul@temp+1,w
  2543  0789  3A80               	xorlw	128
  2544  078A  00FF               	movwf	btemp+1
  2545  078B  3080               	movlw	128
  2546  078C  027F               	subwf	btemp+1,w
  2547  078D  1D03               	skipz
  2548  078E  2F91               	goto	u2005
  2549  078F  30FF               	movlw	255
  2550  0790  0262               	subwf	___flmul@temp,w
  2551  0791                     u2005:
  2552  0791  1C03               	skipc
  2553  0792  2F94               	goto	u2001
  2554  0793  2F95               	goto	u2000
  2555  0794                     u2001:
  2556  0794  2FA0               	goto	l1508
  2557  0795                     u2000:
  2558  0795                     l1506:
  2559  0795  307F               	movlw	127
  2560  0796  1283               	bcf	3,5	;RP0=0, select bank0
  2561  0797  1303               	bcf	3,6	;RP1=0, select bank0
  2562  0798  00E1               	movwf	___flmul@prod+3
  2563  0799  3080               	movlw	128
  2564  079A  00E0               	movwf	___flmul@prod+2
  2565  079B  3000               	movlw	0
  2566  079C  00DF               	movwf	___flmul@prod+1
  2567  079D  3000               	movlw	0
  2568  079E  00DE               	movwf	___flmul@prod
  2569  079F  2FD5               	goto	l563
  2570  07A0                     l1508:
  2571  07A0  1283               	bcf	3,5	;RP0=0, select bank0
  2572  07A1  1303               	bcf	3,6	;RP1=0, select bank0
  2573  07A2  0863               	movf	___flmul@temp+1,w
  2574  07A3  3A80               	xorlw	128
  2575  07A4  00FF               	movwf	btemp+1
  2576  07A5  3080               	movlw	128
  2577  07A6  027F               	subwf	btemp+1,w
  2578  07A7  1D03               	skipz
  2579  07A8  2FAB               	goto	u2015
  2580  07A9  3001               	movlw	1
  2581  07AA  0262               	subwf	___flmul@temp,w
  2582  07AB                     u2015:
  2583  07AB  1803               	skipnc
  2584  07AC  2FAE               	goto	u2011
  2585  07AD  2FAF               	goto	u2010
  2586  07AE                     u2011:
  2587  07AE  2FBB               	goto	l1514
  2588  07AF                     u2010:
  2589  07AF                     l1510:
  2590  07AF  3000               	movlw	0
  2591  07B0  1283               	bcf	3,5	;RP0=0, select bank0
  2592  07B1  1303               	bcf	3,6	;RP1=0, select bank0
  2593  07B2  00E1               	movwf	___flmul@prod+3
  2594  07B3  3000               	movlw	0
  2595  07B4  00E0               	movwf	___flmul@prod+2
  2596  07B5  3000               	movlw	0
  2597  07B6  00DF               	movwf	___flmul@prod+1
  2598  07B7  3000               	movlw	0
  2599  07B8  00DE               	movwf	___flmul@prod
  2600  07B9                     l1512:
  2601  07B9  01D7               	clrf	___flmul@sign
  2602  07BA  2FD5               	goto	l563
  2603  07BB                     l1514:
  2604  07BB  1283               	bcf	3,5	;RP0=0, select bank0
  2605  07BC  1303               	bcf	3,6	;RP1=0, select bank0
  2606  07BD  0862               	movf	___flmul@temp,w
  2607  07BE  00D2               	movwf	??___flmul
  2608  07BF  0852               	movf	??___flmul,w
  2609  07C0  00DD               	movwf	___flmul@bexp
  2610  07C1  30FF               	movlw	255
  2611  07C2  05DE               	andwf	___flmul@prod,f
  2612  07C3  30FF               	movlw	255
  2613  07C4  05DF               	andwf	___flmul@prod+1,f
  2614  07C5  307F               	movlw	127
  2615  07C6  05E0               	andwf	___flmul@prod+2,f
  2616  07C7  3000               	movlw	0
  2617  07C8  05E1               	andwf	___flmul@prod+3,f
  2618  07C9                     l1516:
  2619  07C9  1C5D               	btfss	___flmul@bexp,0
  2620  07CA  2FCC               	goto	u2021
  2621  07CB  2FCD               	goto	u2020
  2622  07CC                     u2021:
  2623  07CC  2FCE               	goto	l1520
  2624  07CD                     u2020:
  2625  07CD                     l1518:
  2626  07CD  17E0               	bsf	___flmul@prod+2,7
  2627  07CE                     l1520:
  2628  07CE  085D               	movf	___flmul@bexp,w
  2629  07CF  00D2               	movwf	??___flmul
  2630  07D0  1003               	clrc
  2631  07D1  0C52               	rrf	??___flmul,w
  2632  07D2  00D3               	movwf	??___flmul+1
  2633  07D3  0853               	movf	??___flmul+1,w
  2634  07D4  00E1               	movwf	___flmul@prod+3
  2635  07D5                     l563:
  2636  07D5  0857               	movf	___flmul@sign,w
  2637  07D6  00D2               	movwf	??___flmul
  2638  07D7  0852               	movf	??___flmul,w
  2639  07D8  04E1               	iorwf	___flmul@prod+3,f
  2640  07D9                     l1522:
  2641  07D9  0861               	movf	___flmul@prod+3,w
  2642  07DA  00CD               	movwf	?___flmul+3
  2643  07DB  0860               	movf	___flmul@prod+2,w
  2644  07DC  00CC               	movwf	?___flmul+2
  2645  07DD  085F               	movf	___flmul@prod+1,w
  2646  07DE  00CB               	movwf	?___flmul+1
  2647  07DF  085E               	movf	___flmul@prod,w
  2648  07E0  00CA               	movwf	?___flmul
  2649  07E1                     l551:
  2650  07E1  0008               	return
  2651  07E2                     __end_of___flmul:
  2652                           
  2653                           	psect	text8
  2654  0F20                     __ptext8:	
  2655 ;; *************** function __Umul8_16 *****************
  2656 ;; Defined at:
  2657 ;;		line 4 in file "D:\File Install MBLAB IDE\XC8\pic\sources\c90\common\Umul8_16.c"
  2658 ;; Parameters:    Size  Location     Type
  2659 ;;  multiplier      1    wreg     unsigned char 
  2660 ;;  multiplicand    1    0[COMMON] unsigned char 
  2661 ;; Auto vars:     Size  Location     Type
  2662 ;;  multiplier      1    8[COMMON] unsigned char 
  2663 ;;  word_mpld       2    6[COMMON] unsigned int 
  2664 ;;  product         2    4[COMMON] unsigned int 
  2665 ;; Return value:  Size  Location     Type
  2666 ;;                  2    0[COMMON] unsigned int 
  2667 ;; Registers used:
  2668 ;;		wreg, status,2, status,0
  2669 ;; Tracked objects:
  2670 ;;		On entry : 0/0
  2671 ;;		On exit  : 0/0
  2672 ;;		Unchanged: 0/0
  2673 ;; Data sizes:     COMMON   BANK0   BANK1   BANK3   BANK2
  2674 ;;      Params:         2       0       0       0       0
  2675 ;;      Locals:         5       0       0       0       0
  2676 ;;      Temps:          2       0       0       0       0
  2677 ;;      Totals:         9       0       0       0       0
  2678 ;;Total ram usage:        9 bytes
  2679 ;; Hardware stack levels used: 1
  2680 ;; This function calls:
  2681 ;;		Nothing
  2682 ;; This function is called by:
  2683 ;;		___flmul
  2684 ;; This function uses a non-reentrant model
  2685 ;;
  2686                           
  2687                           
  2688                           ;psect for function __Umul8_16
  2689  0F20                     __Umul8_16:
  2690                           
  2691                           ;incstack = 0
  2692                           ; Regs used in __Umul8_16: [wreg+status,2+status,0]
  2693                           ;__Umul8_16@multiplier stored from wreg
  2694  0F20  00F8               	movwf	__Umul8_16@multiplier
  2695  0F21                     l1154:
  2696  0F21  01F4               	clrf	__Umul8_16@product
  2697  0F22  01F5               	clrf	__Umul8_16@product+1
  2698  0F23                     l1156:
  2699  0F23  0870               	movf	__Umul8_16@multiplicand,w
  2700  0F24  00F2               	movwf	??__Umul8_16
  2701  0F25  01F3               	clrf	??__Umul8_16+1
  2702  0F26  0872               	movf	??__Umul8_16,w
  2703  0F27  00F6               	movwf	__Umul8_16@word_mpld
  2704  0F28  0873               	movf	??__Umul8_16+1,w
  2705  0F29  00F7               	movwf	__Umul8_16@word_mpld+1
  2706  0F2A                     l1158:
  2707  0F2A  1C78               	btfss	__Umul8_16@multiplier,0
  2708  0F2B  2F2D               	goto	u1141
  2709  0F2C  2F2E               	goto	u1140
  2710  0F2D                     u1141:
  2711  0F2D  2F34               	goto	l570
  2712  0F2E                     u1140:
  2713  0F2E                     l1160:
  2714  0F2E  0876               	movf	__Umul8_16@word_mpld,w
  2715  0F2F  07F4               	addwf	__Umul8_16@product,f
  2716  0F30  1803               	skipnc
  2717  0F31  0AF5               	incf	__Umul8_16@product+1,f
  2718  0F32  0877               	movf	__Umul8_16@word_mpld+1,w
  2719  0F33  07F5               	addwf	__Umul8_16@product+1,f
  2720  0F34                     l570:
  2721  0F34  3001               	movlw	1
  2722  0F35                     u1155:
  2723  0F35  1003               	clrc
  2724  0F36  0DF6               	rlf	__Umul8_16@word_mpld,f
  2725  0F37  0DF7               	rlf	__Umul8_16@word_mpld+1,f
  2726  0F38  3EFF               	addlw	-1
  2727  0F39  1D03               	skipz
  2728  0F3A  2F35               	goto	u1155
  2729  0F3B  1003               	clrc
  2730  0F3C  0CF8               	rrf	__Umul8_16@multiplier,f
  2731  0F3D                     l1162:
  2732  0F3D  0878               	movf	__Umul8_16@multiplier,w
  2733  0F3E  1D03               	btfss	3,2
  2734  0F3F  2F41               	goto	u1161
  2735  0F40  2F42               	goto	u1160
  2736  0F41                     u1161:
  2737  0F41  2F2A               	goto	l1158
  2738  0F42                     u1160:
  2739  0F42                     l1164:
  2740  0F42  0875               	movf	__Umul8_16@product+1,w
  2741  0F43  00F1               	movwf	?__Umul8_16+1
  2742  0F44  0874               	movf	__Umul8_16@product,w
  2743  0F45  00F0               	movwf	?__Umul8_16
  2744  0F46                     l572:
  2745  0F46  0008               	return
  2746  0F47                     __end_of__Umul8_16:
  2747                           
  2748                           	psect	text9
  2749  02A4                     __ptext9:	
  2750 ;; *************** function ___fldiv *****************
  2751 ;; Defined at:
  2752 ;;		line 8 in file "D:\File Install MBLAB IDE\XC8\pic\sources\c90\common\sprcdiv.c"
  2753 ;; Parameters:    Size  Location     Type
  2754 ;;  a               4   16[BANK0 ] unsigned int 
  2755 ;;  b               4   20[BANK0 ] unsigned int 
  2756 ;; Auto vars:     Size  Location     Type
  2757 ;;  grs             4   36[BANK0 ] unsigned long 
  2758 ;;  rem             4   29[BANK0 ] unsigned long 
  2759 ;;  new_exp         2   34[BANK0 ] int 
  2760 ;;  aexp            1   41[BANK0 ] unsigned char 
  2761 ;;  bexp            1   40[BANK0 ] unsigned char 
  2762 ;;  sign            1   33[BANK0 ] unsigned char 
  2763 ;; Return value:  Size  Location     Type
  2764 ;;                  4   16[BANK0 ] unsigned char 
  2765 ;; Registers used:
  2766 ;;		wreg, status,2, status,0, btemp+1
  2767 ;; Tracked objects:
  2768 ;;		On entry : 0/0
  2769 ;;		On exit  : 0/0
  2770 ;;		Unchanged: 0/0
  2771 ;; Data sizes:     COMMON   BANK0   BANK1   BANK3   BANK2
  2772 ;;      Params:         0       8       0       0       0
  2773 ;;      Locals:         0      13       0       0       0
  2774 ;;      Temps:          0       5       0       0       0
  2775 ;;      Totals:         0      26       0       0       0
  2776 ;;Total ram usage:       26 bytes
  2777 ;; Hardware stack levels used: 1
  2778 ;; This function calls:
  2779 ;;		Nothing
  2780 ;; This function is called by:
  2781 ;;		_PWM1_Set_Duty
  2782 ;; This function uses a non-reentrant model
  2783 ;;
  2784                           
  2785                           
  2786                           ;psect for function ___fldiv
  2787  02A4                     ___fldiv:
  2788  02A4                     l1244:	
  2789                           ;incstack = 0
  2790                           ; Regs used in ___fldiv: [wreg+status,2+status,0+btemp+1]
  2791                           
  2792  02A4  1283               	bcf	3,5	;RP0=0, select bank0
  2793  02A5  1303               	bcf	3,6	;RP1=0, select bank0
  2794  02A6  0837               	movf	___fldiv@b+3,w
  2795  02A7  3980               	andlw	128
  2796  02A8  00B8               	movwf	??___fldiv
  2797  02A9  0838               	movf	??___fldiv,w
  2798  02AA  00C1               	movwf	___fldiv@sign
  2799  02AB                     l1246:
  2800  02AB  0837               	movf	___fldiv@b+3,w
  2801  02AC  00B8               	movwf	??___fldiv
  2802  02AD  0738               	addwf	??___fldiv,w
  2803  02AE  00B9               	movwf	??___fldiv+1
  2804  02AF  0839               	movf	??___fldiv+1,w
  2805  02B0  00C8               	movwf	___fldiv@bexp
  2806  02B1                     l1248:
  2807  02B1  1FB6               	btfss	___fldiv@b+2,7
  2808  02B2  2AB4               	goto	u1371
  2809  02B3  2AB5               	goto	u1370
  2810  02B4                     u1371:
  2811  02B4  2AB6               	goto	l1252
  2812  02B5                     u1370:
  2813  02B5                     l1250:
  2814  02B5  1448               	bsf	___fldiv@bexp,0
  2815  02B6                     l1252:
  2816  02B6  0848               	movf	___fldiv@bexp,w
  2817  02B7  1903               	btfsc	3,2
  2818  02B8  2ABA               	goto	u1381
  2819  02B9  2ABB               	goto	u1380
  2820  02BA                     u1381:
  2821  02BA  2ACB               	goto	l1262
  2822  02BB                     u1380:
  2823  02BB                     l1254:
  2824  02BB  0A48               	incf	___fldiv@bexp,w
  2825  02BC  1D03               	btfss	3,2
  2826  02BD  2ABF               	goto	u1391
  2827  02BE  2AC0               	goto	u1390
  2828  02BF                     u1391:
  2829  02BF  2AC8               	goto	l1258
  2830  02C0                     u1390:
  2831  02C0                     l1256:
  2832  02C0  3000               	movlw	0
  2833  02C1  00B7               	movwf	___fldiv@b+3
  2834  02C2  3000               	movlw	0
  2835  02C3  00B6               	movwf	___fldiv@b+2
  2836  02C4  3000               	movlw	0
  2837  02C5  00B5               	movwf	___fldiv@b+1
  2838  02C6  3000               	movlw	0
  2839  02C7  00B4               	movwf	___fldiv@b
  2840  02C8                     l1258:
  2841  02C8  17B6               	bsf	___fldiv@b+2,7
  2842  02C9                     l1260:
  2843  02C9  01B7               	clrf	___fldiv@b+3
  2844  02CA  2AD3               	goto	l1264
  2845  02CB                     l1262:
  2846  02CB  3000               	movlw	0
  2847  02CC  00B7               	movwf	___fldiv@b+3
  2848  02CD  3000               	movlw	0
  2849  02CE  00B6               	movwf	___fldiv@b+2
  2850  02CF  3000               	movlw	0
  2851  02D0  00B5               	movwf	___fldiv@b+1
  2852  02D1  3000               	movlw	0
  2853  02D2  00B4               	movwf	___fldiv@b
  2854  02D3                     l1264:
  2855  02D3  0833               	movf	___fldiv@a+3,w
  2856  02D4  3980               	andlw	128
  2857  02D5  00B8               	movwf	??___fldiv
  2858  02D6  0838               	movf	??___fldiv,w
  2859  02D7  06C1               	xorwf	___fldiv@sign,f
  2860  02D8                     l1266:
  2861  02D8  0833               	movf	___fldiv@a+3,w
  2862  02D9  00B8               	movwf	??___fldiv
  2863  02DA  0738               	addwf	??___fldiv,w
  2864  02DB  00B9               	movwf	??___fldiv+1
  2865  02DC  0839               	movf	??___fldiv+1,w
  2866  02DD  00C9               	movwf	___fldiv@aexp
  2867  02DE                     l1268:
  2868  02DE  1FB2               	btfss	___fldiv@a+2,7
  2869  02DF  2AE1               	goto	u1401
  2870  02E0  2AE2               	goto	u1400
  2871  02E1                     u1401:
  2872  02E1  2AE3               	goto	l1272
  2873  02E2                     u1400:
  2874  02E2                     l1270:
  2875  02E2  1449               	bsf	___fldiv@aexp,0
  2876  02E3                     l1272:
  2877  02E3  0849               	movf	___fldiv@aexp,w
  2878  02E4  1903               	btfsc	3,2
  2879  02E5  2AE7               	goto	u1411
  2880  02E6  2AE8               	goto	u1410
  2881  02E7                     u1411:
  2882  02E7  2AF8               	goto	l1282
  2883  02E8                     u1410:
  2884  02E8                     l1274:
  2885  02E8  0A49               	incf	___fldiv@aexp,w
  2886  02E9  1D03               	btfss	3,2
  2887  02EA  2AEC               	goto	u1421
  2888  02EB  2AED               	goto	u1420
  2889  02EC                     u1421:
  2890  02EC  2AF5               	goto	l1278
  2891  02ED                     u1420:
  2892  02ED                     l1276:
  2893  02ED  3000               	movlw	0
  2894  02EE  00B3               	movwf	___fldiv@a+3
  2895  02EF  3000               	movlw	0
  2896  02F0  00B2               	movwf	___fldiv@a+2
  2897  02F1  3000               	movlw	0
  2898  02F2  00B1               	movwf	___fldiv@a+1
  2899  02F3  3000               	movlw	0
  2900  02F4  00B0               	movwf	___fldiv@a
  2901  02F5                     l1278:
  2902  02F5  17B2               	bsf	___fldiv@a+2,7
  2903  02F6                     l1280:
  2904  02F6  01B3               	clrf	___fldiv@a+3
  2905  02F7  2B00               	goto	l511
  2906  02F8                     l1282:
  2907  02F8  3000               	movlw	0
  2908  02F9  00B3               	movwf	___fldiv@a+3
  2909  02FA  3000               	movlw	0
  2910  02FB  00B2               	movwf	___fldiv@a+2
  2911  02FC  3000               	movlw	0
  2912  02FD  00B1               	movwf	___fldiv@a+1
  2913  02FE  3000               	movlw	0
  2914  02FF  00B0               	movwf	___fldiv@a
  2915  0300                     l511:
  2916  0300  0833               	movf	___fldiv@a+3,w
  2917  0301  0432               	iorwf	___fldiv@a+2,w
  2918  0302  0431               	iorwf	___fldiv@a+1,w
  2919  0303  0430               	iorwf	___fldiv@a,w
  2920  0304  1D03               	skipz
  2921  0305  2B07               	goto	u1431
  2922  0306  2B08               	goto	u1430
  2923  0307                     u1431:
  2924  0307  2B21               	goto	l1292
  2925  0308                     u1430:
  2926  0308                     l1284:
  2927  0308  3000               	movlw	0
  2928  0309  00B7               	movwf	___fldiv@b+3
  2929  030A  3000               	movlw	0
  2930  030B  00B6               	movwf	___fldiv@b+2
  2931  030C  3000               	movlw	0
  2932  030D  00B5               	movwf	___fldiv@b+1
  2933  030E  3000               	movlw	0
  2934  030F  00B4               	movwf	___fldiv@b
  2935  0310  3080               	movlw	128
  2936  0311  04B6               	iorwf	___fldiv@b+2,f
  2937  0312  307F               	movlw	127
  2938  0313  04B7               	iorwf	___fldiv@b+3,f
  2939  0314                     l1286:
  2940  0314  0841               	movf	___fldiv@sign,w
  2941  0315  00B8               	movwf	??___fldiv
  2942  0316  0838               	movf	??___fldiv,w
  2943  0317  04B7               	iorwf	___fldiv@b+3,f
  2944  0318                     l1288:
  2945  0318  0837               	movf	___fldiv@b+3,w
  2946  0319  00B3               	movwf	?___fldiv+3
  2947  031A  0836               	movf	___fldiv@b+2,w
  2948  031B  00B2               	movwf	?___fldiv+2
  2949  031C  0835               	movf	___fldiv@b+1,w
  2950  031D  00B1               	movwf	?___fldiv+1
  2951  031E  0834               	movf	___fldiv@b,w
  2952  031F  00B0               	movwf	?___fldiv
  2953  0320  2C80               	goto	l513
  2954  0321                     l1292:
  2955  0321  0848               	movf	___fldiv@bexp,w
  2956  0322  1D03               	btfss	3,2
  2957  0323  2B25               	goto	u1441
  2958  0324  2B26               	goto	u1440
  2959  0325                     u1441:
  2960  0325  2B2F               	goto	l1298
  2961  0326                     u1440:
  2962  0326                     l1294:
  2963  0326  3000               	movlw	0
  2964  0327  00B3               	movwf	?___fldiv+3
  2965  0328  3000               	movlw	0
  2966  0329  00B2               	movwf	?___fldiv+2
  2967  032A  3000               	movlw	0
  2968  032B  00B1               	movwf	?___fldiv+1
  2969  032C  3000               	movlw	0
  2970  032D  00B0               	movwf	?___fldiv
  2971  032E  2C80               	goto	l513
  2972  032F                     l1298:
  2973  032F  0848               	movf	___fldiv@bexp,w
  2974  0330  00B8               	movwf	??___fldiv
  2975  0331  01B9               	clrf	??___fldiv+1
  2976  0332  0839               	movf	??___fldiv+1,w
  2977  0333  00BB               	movwf	??___fldiv+3
  2978  0334  0849               	movf	___fldiv@aexp,w
  2979  0335  0238               	subwf	??___fldiv,w
  2980  0336  00BA               	movwf	??___fldiv+2
  2981  0337  1C03               	skipc
  2982  0338  03BB               	decf	??___fldiv+3,f
  2983  0339  083A               	movf	??___fldiv+2,w
  2984  033A  3E7F               	addlw	127
  2985  033B  00C2               	movwf	___fldiv@new_exp
  2986  033C  083B               	movf	??___fldiv+3,w
  2987  033D  1803               	skipnc
  2988  033E  3E01               	addlw	1
  2989  033F  3E00               	addlw	0
  2990  0340  00C3               	movwf	___fldiv@new_exp+1
  2991  0341                     l1300:
  2992  0341  0837               	movf	___fldiv@b+3,w
  2993  0342  00C0               	movwf	___fldiv@rem+3
  2994  0343  0836               	movf	___fldiv@b+2,w
  2995  0344  00BF               	movwf	___fldiv@rem+2
  2996  0345  0835               	movf	___fldiv@b+1,w
  2997  0346  00BE               	movwf	___fldiv@rem+1
  2998  0347  0834               	movf	___fldiv@b,w
  2999  0348  00BD               	movwf	___fldiv@rem
  3000  0349                     l1302:
  3001  0349  3000               	movlw	0
  3002  034A  00B7               	movwf	___fldiv@b+3
  3003  034B  3000               	movlw	0
  3004  034C  00B6               	movwf	___fldiv@b+2
  3005  034D  3000               	movlw	0
  3006  034E  00B5               	movwf	___fldiv@b+1
  3007  034F  3000               	movlw	0
  3008  0350  00B4               	movwf	___fldiv@b
  3009  0351                     l1304:
  3010  0351  3000               	movlw	0
  3011  0352  00C7               	movwf	___fldiv@grs+3
  3012  0353  3000               	movlw	0
  3013  0354  00C6               	movwf	___fldiv@grs+2
  3014  0355  3000               	movlw	0
  3015  0356  00C5               	movwf	___fldiv@grs+1
  3016  0357  3000               	movlw	0
  3017  0358  00C4               	movwf	___fldiv@grs
  3018  0359                     l1306:
  3019  0359  01C9               	clrf	___fldiv@aexp
  3020  035A  2BA5               	goto	l1326
  3021  035B                     l1308:
  3022  035B  0849               	movf	___fldiv@aexp,w
  3023  035C  1903               	btfsc	3,2
  3024  035D  2B5F               	goto	u1451
  3025  035E  2B60               	goto	u1450
  3026  035F                     u1451:
  3027  035F  2B80               	goto	l1318
  3028  0360                     u1450:
  3029  0360                     l1310:
  3030  0360  3001               	movlw	1
  3031  0361  00B8               	movwf	??___fldiv
  3032  0362                     u1465:
  3033  0362  1003               	clrc
  3034  0363  0DBD               	rlf	___fldiv@rem,f
  3035  0364  0DBE               	rlf	___fldiv@rem+1,f
  3036  0365  0DBF               	rlf	___fldiv@rem+2,f
  3037  0366  0DC0               	rlf	___fldiv@rem+3,f
  3038  0367  0BB8               	decfsz	??___fldiv,f
  3039  0368  2B62               	goto	u1465
  3040  0369  3001               	movlw	1
  3041  036A  00B8               	movwf	??___fldiv
  3042  036B                     u1475:
  3043  036B  1003               	clrc
  3044  036C  0DB4               	rlf	___fldiv@b,f
  3045  036D  0DB5               	rlf	___fldiv@b+1,f
  3046  036E  0DB6               	rlf	___fldiv@b+2,f
  3047  036F  0DB7               	rlf	___fldiv@b+3,f
  3048  0370  0BB8               	decfsz	??___fldiv,f
  3049  0371  2B6B               	goto	u1475
  3050  0372                     l1312:
  3051  0372  1FC7               	btfss	___fldiv@grs+3,7
  3052  0373  2B75               	goto	u1481
  3053  0374  2B76               	goto	u1480
  3054  0375                     u1481:
  3055  0375  2B77               	goto	l1316
  3056  0376                     u1480:
  3057  0376                     l1314:
  3058  0376  1434               	bsf	___fldiv@b,0
  3059  0377                     l1316:
  3060  0377  3001               	movlw	1
  3061  0378  00B8               	movwf	??___fldiv
  3062  0379                     u1495:
  3063  0379  1003               	clrc
  3064  037A  0DC4               	rlf	___fldiv@grs,f
  3065  037B  0DC5               	rlf	___fldiv@grs+1,f
  3066  037C  0DC6               	rlf	___fldiv@grs+2,f
  3067  037D  0DC7               	rlf	___fldiv@grs+3,f
  3068  037E  0BB8               	decfsz	??___fldiv,f
  3069  037F  2B79               	goto	u1495
  3070  0380                     l1318:
  3071  0380  0833               	movf	___fldiv@a+3,w
  3072  0381  0240               	subwf	___fldiv@rem+3,w
  3073  0382  1D03               	skipz
  3074  0383  2B8E               	goto	u1505
  3075  0384  0832               	movf	___fldiv@a+2,w
  3076  0385  023F               	subwf	___fldiv@rem+2,w
  3077  0386  1D03               	skipz
  3078  0387  2B8E               	goto	u1505
  3079  0388  0831               	movf	___fldiv@a+1,w
  3080  0389  023E               	subwf	___fldiv@rem+1,w
  3081  038A  1D03               	skipz
  3082  038B  2B8E               	goto	u1505
  3083  038C  0830               	movf	___fldiv@a,w
  3084  038D  023D               	subwf	___fldiv@rem,w
  3085  038E                     u1505:
  3086  038E  1C03               	skipc
  3087  038F  2B91               	goto	u1501
  3088  0390  2B92               	goto	u1500
  3089  0391                     u1501:
  3090  0391  2BA1               	goto	l1324
  3091  0392                     u1500:
  3092  0392                     l1320:
  3093  0392  1747               	bsf	___fldiv@grs+3,6
  3094  0393                     l1322:
  3095  0393  0830               	movf	___fldiv@a,w
  3096  0394  02BD               	subwf	___fldiv@rem,f
  3097  0395  0831               	movf	___fldiv@a+1,w
  3098  0396  1C03               	skipc
  3099  0397  0F31               	incfsz	___fldiv@a+1,w
  3100  0398  02BE               	subwf	___fldiv@rem+1,f
  3101  0399  0832               	movf	___fldiv@a+2,w
  3102  039A  1C03               	skipc
  3103  039B  0F32               	incfsz	___fldiv@a+2,w
  3104  039C  02BF               	subwf	___fldiv@rem+2,f
  3105  039D  0833               	movf	___fldiv@a+3,w
  3106  039E  1C03               	skipc
  3107  039F  0F33               	incfsz	___fldiv@a+3,w
  3108  03A0  02C0               	subwf	___fldiv@rem+3,f
  3109  03A1                     l1324:
  3110  03A1  3001               	movlw	1
  3111  03A2  00B8               	movwf	??___fldiv
  3112  03A3  0838               	movf	??___fldiv,w
  3113  03A4  07C9               	addwf	___fldiv@aexp,f
  3114  03A5                     l1326:
  3115  03A5  301A               	movlw	26
  3116  03A6  0249               	subwf	___fldiv@aexp,w
  3117  03A7  1C03               	skipc
  3118  03A8  2BAA               	goto	u1511
  3119  03A9  2BAB               	goto	u1510
  3120  03AA                     u1511:
  3121  03AA  2B5B               	goto	l1308
  3122  03AB                     u1510:
  3123  03AB                     l1328:
  3124  03AB  0840               	movf	___fldiv@rem+3,w
  3125  03AC  043F               	iorwf	___fldiv@rem+2,w
  3126  03AD  043E               	iorwf	___fldiv@rem+1,w
  3127  03AE  043D               	iorwf	___fldiv@rem,w
  3128  03AF  1903               	skipnz
  3129  03B0  2BB2               	goto	u1521
  3130  03B1  2BB3               	goto	u1520
  3131  03B2                     u1521:
  3132  03B2  2BD2               	goto	l1342
  3133  03B3                     u1520:
  3134  03B3                     l1330:
  3135  03B3  1444               	bsf	___fldiv@grs,0
  3136  03B4  2BD2               	goto	l1342
  3137  03B5                     l1332:
  3138  03B5  3001               	movlw	1
  3139  03B6  00B8               	movwf	??___fldiv
  3140  03B7                     u1535:
  3141  03B7  1003               	clrc
  3142  03B8  0DB4               	rlf	___fldiv@b,f
  3143  03B9  0DB5               	rlf	___fldiv@b+1,f
  3144  03BA  0DB6               	rlf	___fldiv@b+2,f
  3145  03BB  0DB7               	rlf	___fldiv@b+3,f
  3146  03BC  0BB8               	decfsz	??___fldiv,f
  3147  03BD  2BB7               	goto	u1535
  3148  03BE                     l1334:
  3149  03BE  1FC7               	btfss	___fldiv@grs+3,7
  3150  03BF  2BC1               	goto	u1541
  3151  03C0  2BC2               	goto	u1540
  3152  03C1                     u1541:
  3153  03C1  2BC3               	goto	l1338
  3154  03C2                     u1540:
  3155  03C2                     l1336:
  3156  03C2  1434               	bsf	___fldiv@b,0
  3157  03C3                     l1338:
  3158  03C3  3001               	movlw	1
  3159  03C4  00B8               	movwf	??___fldiv
  3160  03C5                     u1555:
  3161  03C5  1003               	clrc
  3162  03C6  0DC4               	rlf	___fldiv@grs,f
  3163  03C7  0DC5               	rlf	___fldiv@grs+1,f
  3164  03C8  0DC6               	rlf	___fldiv@grs+2,f
  3165  03C9  0DC7               	rlf	___fldiv@grs+3,f
  3166  03CA  0BB8               	decfsz	??___fldiv,f
  3167  03CB  2BC5               	goto	u1555
  3168  03CC                     l1340:
  3169  03CC  30FF               	movlw	255
  3170  03CD  07C2               	addwf	___fldiv@new_exp,f
  3171  03CE  1803               	skipnc
  3172  03CF  0AC3               	incf	___fldiv@new_exp+1,f
  3173  03D0  30FF               	movlw	255
  3174  03D1  07C3               	addwf	___fldiv@new_exp+1,f
  3175  03D2                     l1342:
  3176  03D2  1FB6               	btfss	___fldiv@b+2,7
  3177  03D3  2BD5               	goto	u1561
  3178  03D4  2BD6               	goto	u1560
  3179  03D5                     u1561:
  3180  03D5  2BB5               	goto	l1332
  3181  03D6                     u1560:
  3182  03D6                     l1344:
  3183  03D6  01C9               	clrf	___fldiv@aexp
  3184  03D7                     l1346:
  3185  03D7  1FC7               	btfss	___fldiv@grs+3,7
  3186  03D8  2BDA               	goto	u1571
  3187  03D9  2BDB               	goto	u1570
  3188  03DA                     u1571:
  3189  03DA  2BF7               	goto	l1354
  3190  03DB                     u1570:
  3191  03DB                     l1348:
  3192  03DB  30FF               	movlw	255
  3193  03DC  0544               	andwf	___fldiv@grs,w
  3194  03DD  00B8               	movwf	??___fldiv
  3195  03DE  30FF               	movlw	255
  3196  03DF  0545               	andwf	___fldiv@grs+1,w
  3197  03E0  00B9               	movwf	??___fldiv+1
  3198  03E1  30FF               	movlw	255
  3199  03E2  0546               	andwf	___fldiv@grs+2,w
  3200  03E3  00BA               	movwf	??___fldiv+2
  3201  03E4  307F               	movlw	127
  3202  03E5  0547               	andwf	___fldiv@grs+3,w
  3203  03E6  00BB               	movwf	??___fldiv+3
  3204  03E7  083B               	movf	??___fldiv+3,w
  3205  03E8  043A               	iorwf	??___fldiv+2,w
  3206  03E9  0439               	iorwf	??___fldiv+1,w
  3207  03EA  0438               	iorwf	??___fldiv,w
  3208  03EB  1903               	skipnz
  3209  03EC  2BEE               	goto	u1581
  3210  03ED  2BEF               	goto	u1580
  3211  03EE                     u1581:
  3212  03EE  2BF2               	goto	l527
  3213  03EF                     u1580:
  3214  03EF                     l1350:
  3215  03EF  01C9               	clrf	___fldiv@aexp
  3216  03F0  0AC9               	incf	___fldiv@aexp,f
  3217  03F1  2BF7               	goto	l1354
  3218  03F2                     l527:
  3219  03F2  1C34               	btfss	___fldiv@b,0
  3220  03F3  2BF5               	goto	u1591
  3221  03F4  2BF6               	goto	u1590
  3222  03F5                     u1591:
  3223  03F5  2BF7               	goto	l1354
  3224  03F6                     u1590:
  3225  03F6  2BEF               	goto	l1350
  3226  03F7                     l1354:
  3227  03F7  0849               	movf	___fldiv@aexp,w
  3228  03F8  1903               	btfsc	3,2
  3229  03F9  2BFB               	goto	u1601
  3230  03FA  2BFC               	goto	u1600
  3231  03FB                     u1601:
  3232  03FB  2C2D               	goto	l1364
  3233  03FC                     u1600:
  3234  03FC                     l1356:
  3235  03FC  3001               	movlw	1
  3236  03FD  07B4               	addwf	___fldiv@b,f
  3237  03FE  3000               	movlw	0
  3238  03FF  1803               	skipnc
  3239  0400  3001               	movlw	1
  3240  0401  07B5               	addwf	___fldiv@b+1,f
  3241  0402  3000               	movlw	0
  3242  0403  1803               	skipnc
  3243  0404  3001               	movlw	1
  3244  0405  07B6               	addwf	___fldiv@b+2,f
  3245  0406  3000               	movlw	0
  3246  0407  1803               	skipnc
  3247  0408  3001               	movlw	1
  3248  0409  07B7               	addwf	___fldiv@b+3,f
  3249  040A                     l1358:
  3250  040A  1C37               	btfss	___fldiv@b+3,0
  3251  040B  2C0D               	goto	u1611
  3252  040C  2C0E               	goto	u1610
  3253  040D                     u1611:
  3254  040D  2C2D               	goto	l1364
  3255  040E                     u1610:
  3256  040E                     l1360:
  3257  040E  0834               	movf	___fldiv@b,w
  3258  040F  00B8               	movwf	??___fldiv
  3259  0410  0835               	movf	___fldiv@b+1,w
  3260  0411  00B9               	movwf	??___fldiv+1
  3261  0412  0836               	movf	___fldiv@b+2,w
  3262  0413  00BA               	movwf	??___fldiv+2
  3263  0414  0837               	movf	___fldiv@b+3,w
  3264  0415  00BB               	movwf	??___fldiv+3
  3265  0416  3001               	movlw	1
  3266  0417  00BC               	movwf	??___fldiv+4
  3267  0418                     u1625:
  3268  0418  0D3B               	rlf	??___fldiv+3,w
  3269  0419  0CBB               	rrf	??___fldiv+3,f
  3270  041A  0CBA               	rrf	??___fldiv+2,f
  3271  041B  0CB9               	rrf	??___fldiv+1,f
  3272  041C  0CB8               	rrf	??___fldiv,f
  3273  041D                     u1620:
  3274  041D  0BBC               	decfsz	??___fldiv+4,f
  3275  041E  2C18               	goto	u1625
  3276  041F  083B               	movf	??___fldiv+3,w
  3277  0420  00B7               	movwf	___fldiv@b+3
  3278  0421  083A               	movf	??___fldiv+2,w
  3279  0422  00B6               	movwf	___fldiv@b+2
  3280  0423  0839               	movf	??___fldiv+1,w
  3281  0424  00B5               	movwf	___fldiv@b+1
  3282  0425  0838               	movf	??___fldiv,w
  3283  0426  00B4               	movwf	___fldiv@b
  3284  0427                     l1362:
  3285  0427  3001               	movlw	1
  3286  0428  07C2               	addwf	___fldiv@new_exp,f
  3287  0429  1803               	skipnc
  3288  042A  0AC3               	incf	___fldiv@new_exp+1,f
  3289  042B  3000               	movlw	0
  3290  042C  07C3               	addwf	___fldiv@new_exp+1,f
  3291  042D                     l1364:
  3292  042D  0843               	movf	___fldiv@new_exp+1,w
  3293  042E  3A80               	xorlw	128
  3294  042F  00FF               	movwf	btemp+1
  3295  0430  3080               	movlw	128
  3296  0431  027F               	subwf	btemp+1,w
  3297  0432  1D03               	skipz
  3298  0433  2C36               	goto	u1635
  3299  0434  30FF               	movlw	255
  3300  0435  0242               	subwf	___fldiv@new_exp,w
  3301  0436                     u1635:
  3302  0436  1C03               	skipc
  3303  0437  2C39               	goto	u1631
  3304  0438  2C3A               	goto	u1630
  3305  0439                     u1631:
  3306  0439  2C48               	goto	l1368
  3307  043A                     u1630:
  3308  043A                     l1366:
  3309  043A  30FF               	movlw	255
  3310  043B  1283               	bcf	3,5	;RP0=0, select bank0
  3311  043C  1303               	bcf	3,6	;RP1=0, select bank0
  3312  043D  00C2               	movwf	___fldiv@new_exp
  3313  043E  3000               	movlw	0
  3314  043F  00C3               	movwf	___fldiv@new_exp+1
  3315  0440  3000               	movlw	0
  3316  0441  00B7               	movwf	___fldiv@b+3
  3317  0442  3000               	movlw	0
  3318  0443  00B6               	movwf	___fldiv@b+2
  3319  0444  3000               	movlw	0
  3320  0445  00B5               	movwf	___fldiv@b+1
  3321  0446  3000               	movlw	0
  3322  0447  00B4               	movwf	___fldiv@b
  3323  0448                     l1368:
  3324  0448  1283               	bcf	3,5	;RP0=0, select bank0
  3325  0449  1303               	bcf	3,6	;RP1=0, select bank0
  3326  044A  0843               	movf	___fldiv@new_exp+1,w
  3327  044B  3A80               	xorlw	128
  3328  044C  00FF               	movwf	btemp+1
  3329  044D  3080               	movlw	128
  3330  044E  027F               	subwf	btemp+1,w
  3331  044F  1D03               	skipz
  3332  0450  2C53               	goto	u1645
  3333  0451  3001               	movlw	1
  3334  0452  0242               	subwf	___fldiv@new_exp,w
  3335  0453                     u1645:
  3336  0453  1803               	skipnc
  3337  0454  2C56               	goto	u1641
  3338  0455  2C57               	goto	u1640
  3339  0456                     u1641:
  3340  0456  2C64               	goto	l533
  3341  0457                     u1640:
  3342  0457                     l1370:
  3343  0457  1283               	bcf	3,5	;RP0=0, select bank0
  3344  0458  1303               	bcf	3,6	;RP1=0, select bank0
  3345  0459  01C2               	clrf	___fldiv@new_exp
  3346  045A  01C3               	clrf	___fldiv@new_exp+1
  3347  045B                     l1372:
  3348  045B  3000               	movlw	0
  3349  045C  00B7               	movwf	___fldiv@b+3
  3350  045D  3000               	movlw	0
  3351  045E  00B6               	movwf	___fldiv@b+2
  3352  045F  3000               	movlw	0
  3353  0460  00B5               	movwf	___fldiv@b+1
  3354  0461  3000               	movlw	0
  3355  0462  00B4               	movwf	___fldiv@b
  3356  0463                     l1374:
  3357  0463  01C1               	clrf	___fldiv@sign
  3358  0464                     l533:
  3359  0464  1283               	bcf	3,5	;RP0=0, select bank0
  3360  0465  1303               	bcf	3,6	;RP1=0, select bank0
  3361  0466  0842               	movf	___fldiv@new_exp,w
  3362  0467  00B8               	movwf	??___fldiv
  3363  0468  0838               	movf	??___fldiv,w
  3364  0469  00C8               	movwf	___fldiv@bexp
  3365  046A                     l1376:
  3366  046A  1C48               	btfss	___fldiv@bexp,0
  3367  046B  2C6D               	goto	u1651
  3368  046C  2C6E               	goto	u1650
  3369  046D                     u1651:
  3370  046D  2C70               	goto	l1380
  3371  046E                     u1650:
  3372  046E                     l1378:
  3373  046E  17B6               	bsf	___fldiv@b+2,7
  3374  046F  2C74               	goto	l535
  3375  0470                     l1380:
  3376  0470  307F               	movlw	127
  3377  0471  00B8               	movwf	??___fldiv
  3378  0472  0838               	movf	??___fldiv,w
  3379  0473  05B6               	andwf	___fldiv@b+2,f
  3380  0474                     l535:
  3381  0474  0848               	movf	___fldiv@bexp,w
  3382  0475  00B8               	movwf	??___fldiv
  3383  0476  1003               	clrc
  3384  0477  0C38               	rrf	??___fldiv,w
  3385  0478  00B9               	movwf	??___fldiv+1
  3386  0479  0839               	movf	??___fldiv+1,w
  3387  047A  00B7               	movwf	___fldiv@b+3
  3388  047B  0841               	movf	___fldiv@sign,w
  3389  047C  00B8               	movwf	??___fldiv
  3390  047D  0838               	movf	??___fldiv,w
  3391  047E  04B7               	iorwf	___fldiv@b+3,f
  3392  047F  2B18               	goto	l1288
  3393  0480                     l513:
  3394  0480  0008               	return
  3395  0481                     __end_of___fldiv:
  3396                           
  3397                           	psect	text10
  3398  008F                     __ptext10:	
  3399 ;; *************** function ___aldiv *****************
  3400 ;; Defined at:
  3401 ;;		line 5 in file "D:\File Install MBLAB IDE\XC8\pic\sources\c90\common\aldiv.c"
  3402 ;; Parameters:    Size  Location     Type
  3403 ;;  divisor         4    0[COMMON] long 
  3404 ;;  dividend        4    4[COMMON] long 
  3405 ;; Auto vars:     Size  Location     Type
  3406 ;;  quotient        4    2[BANK0 ] long 
  3407 ;;  sign            1    1[BANK0 ] unsigned char 
  3408 ;;  counter         1    0[BANK0 ] unsigned char 
  3409 ;; Return value:  Size  Location     Type
  3410 ;;                  4    0[COMMON] long 
  3411 ;; Registers used:
  3412 ;;		wreg, status,2, status,0
  3413 ;; Tracked objects:
  3414 ;;		On entry : 0/0
  3415 ;;		On exit  : 0/0
  3416 ;;		Unchanged: 0/0
  3417 ;; Data sizes:     COMMON   BANK0   BANK1   BANK3   BANK2
  3418 ;;      Params:         8       0       0       0       0
  3419 ;;      Locals:         0       6       0       0       0
  3420 ;;      Temps:          1       0       0       0       0
  3421 ;;      Totals:         9       6       0       0       0
  3422 ;;Total ram usage:       15 bytes
  3423 ;; Hardware stack levels used: 1
  3424 ;; This function calls:
  3425 ;;		Nothing
  3426 ;; This function is called by:
  3427 ;;		_PWM1_Init
  3428 ;;		_PWM1_Set_Duty
  3429 ;; This function uses a non-reentrant model
  3430 ;;
  3431                           
  3432                           
  3433                           ;psect for function ___aldiv
  3434  008F                     ___aldiv:
  3435  008F                     l1168:	
  3436                           ;incstack = 0
  3437                           ; Regs used in ___aldiv: [wreg+status,2+status,0]
  3438                           
  3439  008F  1283               	bcf	3,5	;RP0=0, select bank0
  3440  0090  1303               	bcf	3,6	;RP1=0, select bank0
  3441  0091  01A1               	clrf	___aldiv@sign
  3442  0092                     l1170:
  3443  0092  1FF3               	btfss	___aldiv@divisor+3,7
  3444  0093  2895               	goto	u1171
  3445  0094  2896               	goto	u1170
  3446  0095                     u1171:
  3447  0095  28A3               	goto	l227
  3448  0096                     u1170:
  3449  0096                     l1172:
  3450  0096  09F0               	comf	___aldiv@divisor,f
  3451  0097  09F1               	comf	___aldiv@divisor+1,f
  3452  0098  09F2               	comf	___aldiv@divisor+2,f
  3453  0099  09F3               	comf	___aldiv@divisor+3,f
  3454  009A  0AF0               	incf	___aldiv@divisor,f
  3455  009B  1903               	skipnz
  3456  009C  0AF1               	incf	___aldiv@divisor+1,f
  3457  009D  1903               	skipnz
  3458  009E  0AF2               	incf	___aldiv@divisor+2,f
  3459  009F  1903               	skipnz
  3460  00A0  0AF3               	incf	___aldiv@divisor+3,f
  3461  00A1  01A1               	clrf	___aldiv@sign
  3462  00A2  0AA1               	incf	___aldiv@sign,f
  3463  00A3                     l227:
  3464  00A3  1FF7               	btfss	___aldiv@dividend+3,7
  3465  00A4  28A6               	goto	u1181
  3466  00A5  28A7               	goto	u1180
  3467  00A6                     u1181:
  3468  00A6  28B6               	goto	l1178
  3469  00A7                     u1180:
  3470  00A7                     l1174:
  3471  00A7  09F4               	comf	___aldiv@dividend,f
  3472  00A8  09F5               	comf	___aldiv@dividend+1,f
  3473  00A9  09F6               	comf	___aldiv@dividend+2,f
  3474  00AA  09F7               	comf	___aldiv@dividend+3,f
  3475  00AB  0AF4               	incf	___aldiv@dividend,f
  3476  00AC  1903               	skipnz
  3477  00AD  0AF5               	incf	___aldiv@dividend+1,f
  3478  00AE  1903               	skipnz
  3479  00AF  0AF6               	incf	___aldiv@dividend+2,f
  3480  00B0  1903               	skipnz
  3481  00B1  0AF7               	incf	___aldiv@dividend+3,f
  3482  00B2                     l1176:
  3483  00B2  3001               	movlw	1
  3484  00B3  00F8               	movwf	??___aldiv
  3485  00B4  0878               	movf	??___aldiv,w
  3486  00B5  06A1               	xorwf	___aldiv@sign,f
  3487  00B6                     l1178:
  3488  00B6  3000               	movlw	0
  3489  00B7  00A5               	movwf	___aldiv@quotient+3
  3490  00B8  3000               	movlw	0
  3491  00B9  00A4               	movwf	___aldiv@quotient+2
  3492  00BA  3000               	movlw	0
  3493  00BB  00A3               	movwf	___aldiv@quotient+1
  3494  00BC  3000               	movlw	0
  3495  00BD  00A2               	movwf	___aldiv@quotient
  3496  00BE                     l1180:
  3497  00BE  0873               	movf	___aldiv@divisor+3,w
  3498  00BF  0472               	iorwf	___aldiv@divisor+2,w
  3499  00C0  0471               	iorwf	___aldiv@divisor+1,w
  3500  00C1  0470               	iorwf	___aldiv@divisor,w
  3501  00C2  1903               	skipnz
  3502  00C3  28C5               	goto	u1191
  3503  00C4  28C6               	goto	u1190
  3504  00C5                     u1191:
  3505  00C5  2913               	goto	l1200
  3506  00C6                     u1190:
  3507  00C6                     l1182:
  3508  00C6  01A0               	clrf	___aldiv@counter
  3509  00C7  0AA0               	incf	___aldiv@counter,f
  3510  00C8  28D6               	goto	l1186
  3511  00C9                     l1184:
  3512  00C9  3001               	movlw	1
  3513  00CA  00F8               	movwf	??___aldiv
  3514  00CB                     u1205:
  3515  00CB  1003               	clrc
  3516  00CC  0DF0               	rlf	___aldiv@divisor,f
  3517  00CD  0DF1               	rlf	___aldiv@divisor+1,f
  3518  00CE  0DF2               	rlf	___aldiv@divisor+2,f
  3519  00CF  0DF3               	rlf	___aldiv@divisor+3,f
  3520  00D0  0BF8               	decfsz	??___aldiv,f
  3521  00D1  28CB               	goto	u1205
  3522  00D2  3001               	movlw	1
  3523  00D3  00F8               	movwf	??___aldiv
  3524  00D4  0878               	movf	??___aldiv,w
  3525  00D5  07A0               	addwf	___aldiv@counter,f
  3526  00D6                     l1186:
  3527  00D6  1FF3               	btfss	___aldiv@divisor+3,7
  3528  00D7  28D9               	goto	u1211
  3529  00D8  28DA               	goto	u1210
  3530  00D9                     u1211:
  3531  00D9  28C9               	goto	l1184
  3532  00DA                     u1210:
  3533  00DA                     l1188:
  3534  00DA  3001               	movlw	1
  3535  00DB  00F8               	movwf	??___aldiv
  3536  00DC                     u1225:
  3537  00DC  1003               	clrc
  3538  00DD  0DA2               	rlf	___aldiv@quotient,f
  3539  00DE  0DA3               	rlf	___aldiv@quotient+1,f
  3540  00DF  0DA4               	rlf	___aldiv@quotient+2,f
  3541  00E0  0DA5               	rlf	___aldiv@quotient+3,f
  3542  00E1  0BF8               	decfsz	??___aldiv,f
  3543  00E2  28DC               	goto	u1225
  3544  00E3                     l1190:
  3545  00E3  0873               	movf	___aldiv@divisor+3,w
  3546  00E4  0277               	subwf	___aldiv@dividend+3,w
  3547  00E5  1D03               	skipz
  3548  00E6  28F1               	goto	u1235
  3549  00E7  0872               	movf	___aldiv@divisor+2,w
  3550  00E8  0276               	subwf	___aldiv@dividend+2,w
  3551  00E9  1D03               	skipz
  3552  00EA  28F1               	goto	u1235
  3553  00EB  0871               	movf	___aldiv@divisor+1,w
  3554  00EC  0275               	subwf	___aldiv@dividend+1,w
  3555  00ED  1D03               	skipz
  3556  00EE  28F1               	goto	u1235
  3557  00EF  0870               	movf	___aldiv@divisor,w
  3558  00F0  0274               	subwf	___aldiv@dividend,w
  3559  00F1                     u1235:
  3560  00F1  1C03               	skipc
  3561  00F2  28F4               	goto	u1231
  3562  00F3  28F5               	goto	u1230
  3563  00F4                     u1231:
  3564  00F4  2904               	goto	l1196
  3565  00F5                     u1230:
  3566  00F5                     l1192:
  3567  00F5  0870               	movf	___aldiv@divisor,w
  3568  00F6  02F4               	subwf	___aldiv@dividend,f
  3569  00F7  0871               	movf	___aldiv@divisor+1,w
  3570  00F8  1C03               	skipc
  3571  00F9  0F71               	incfsz	___aldiv@divisor+1,w
  3572  00FA  02F5               	subwf	___aldiv@dividend+1,f
  3573  00FB  0872               	movf	___aldiv@divisor+2,w
  3574  00FC  1C03               	skipc
  3575  00FD  0F72               	incfsz	___aldiv@divisor+2,w
  3576  00FE  02F6               	subwf	___aldiv@dividend+2,f
  3577  00FF  0873               	movf	___aldiv@divisor+3,w
  3578  0100  1C03               	skipc
  3579  0101  0F73               	incfsz	___aldiv@divisor+3,w
  3580  0102  02F7               	subwf	___aldiv@dividend+3,f
  3581  0103                     l1194:
  3582  0103  1422               	bsf	___aldiv@quotient,0
  3583  0104                     l1196:
  3584  0104  3001               	movlw	1
  3585  0105                     u1245:
  3586  0105  1003               	clrc
  3587  0106  0CF3               	rrf	___aldiv@divisor+3,f
  3588  0107  0CF2               	rrf	___aldiv@divisor+2,f
  3589  0108  0CF1               	rrf	___aldiv@divisor+1,f
  3590  0109  0CF0               	rrf	___aldiv@divisor,f
  3591  010A  3EFF               	addlw	-1
  3592  010B  1D03               	skipz
  3593  010C  2905               	goto	u1245
  3594  010D                     l1198:
  3595  010D  3001               	movlw	1
  3596  010E  02A0               	subwf	___aldiv@counter,f
  3597  010F  1D03               	btfss	3,2
  3598  0110  2912               	goto	u1251
  3599  0111  2913               	goto	u1250
  3600  0112                     u1251:
  3601  0112  28DA               	goto	l1188
  3602  0113                     u1250:
  3603  0113                     l1200:
  3604  0113  0821               	movf	___aldiv@sign,w
  3605  0114  1903               	btfsc	3,2
  3606  0115  2917               	goto	u1261
  3607  0116  2918               	goto	u1260
  3608  0117                     u1261:
  3609  0117  2923               	goto	l1204
  3610  0118                     u1260:
  3611  0118                     l1202:
  3612  0118  09A2               	comf	___aldiv@quotient,f
  3613  0119  09A3               	comf	___aldiv@quotient+1,f
  3614  011A  09A4               	comf	___aldiv@quotient+2,f
  3615  011B  09A5               	comf	___aldiv@quotient+3,f
  3616  011C  0AA2               	incf	___aldiv@quotient,f
  3617  011D  1903               	skipnz
  3618  011E  0AA3               	incf	___aldiv@quotient+1,f
  3619  011F  1903               	skipnz
  3620  0120  0AA4               	incf	___aldiv@quotient+2,f
  3621  0121  1903               	skipnz
  3622  0122  0AA5               	incf	___aldiv@quotient+3,f
  3623  0123                     l1204:
  3624  0123  0825               	movf	___aldiv@quotient+3,w
  3625  0124  00F3               	movwf	?___aldiv+3
  3626  0125  0824               	movf	___aldiv@quotient+2,w
  3627  0126  00F2               	movwf	?___aldiv+2
  3628  0127  0823               	movf	___aldiv@quotient+1,w
  3629  0128  00F1               	movwf	?___aldiv+1
  3630  0129  0822               	movf	___aldiv@quotient,w
  3631  012A  00F0               	movwf	?___aldiv
  3632  012B                     l237:
  3633  012B  0008               	return
  3634  012C                     __end_of___aldiv:
  3635                           
  3636                           	psect	text11
  3637  0004                     __ptext11:	
  3638 ;; *************** function _ADC_Config *****************
  3639 ;; Defined at:
  3640 ;;		line 91 in file "newmain.c"
  3641 ;; Parameters:    Size  Location     Type
  3642 ;;		None
  3643 ;; Auto vars:     Size  Location     Type
  3644 ;;		None
  3645 ;; Return value:  Size  Location     Type
  3646 ;;                  1    wreg      void 
  3647 ;; Registers used:
  3648 ;;		wreg, status,2
  3649 ;; Tracked objects:
  3650 ;;		On entry : 0/0
  3651 ;;		On exit  : 0/0
  3652 ;;		Unchanged: 0/0
  3653 ;; Data sizes:     COMMON   BANK0   BANK1   BANK3   BANK2
  3654 ;;      Params:         0       0       0       0       0
  3655 ;;      Locals:         0       0       0       0       0
  3656 ;;      Temps:          0       0       0       0       0
  3657 ;;      Totals:         0       0       0       0       0
  3658 ;;Total ram usage:        0 bytes
  3659 ;; Hardware stack levels used: 1
  3660 ;; This function calls:
  3661 ;;		Nothing
  3662 ;; This function is called by:
  3663 ;;		_main
  3664 ;; This function uses a non-reentrant model
  3665 ;;
  3666                           
  3667                           
  3668                           ;psect for function _ADC_Config
  3669  0004                     _ADC_Config:
  3670  0004                     l1600:	
  3671                           ;incstack = 0
  3672                           ; Regs used in _ADC_Config: [wreg+status,2]
  3673                           
  3674                           
  3675                           ;newmain.c: 93:     TRISA = 0xFF;
  3676  0004  30FF               	movlw	255
  3677  0005  1683               	bsf	3,5	;RP0=1, select bank1
  3678  0006  1303               	bcf	3,6	;RP1=0, select bank1
  3679  0007  0085               	movwf	5	;volatile
  3680                           
  3681                           ;newmain.c: 94:     ADCON1 = 0b11000000;
  3682  0008  30C0               	movlw	192
  3683  0009  009F               	movwf	31	;volatile
  3684                           
  3685                           ;newmain.c: 95:     ADCON0 = 0b00000001;
  3686  000A  3001               	movlw	1
  3687  000B  1283               	bcf	3,5	;RP0=0, select bank0
  3688  000C  1303               	bcf	3,6	;RP1=0, select bank0
  3689  000D  009F               	movwf	31	;volatile
  3690  000E                     l1602:
  3691                           
  3692                           ;newmain.c: 96:     ADRESH = 0;
  3693  000E  019E               	clrf	30	;volatile
  3694  000F                     l1604:
  3695                           
  3696                           ;newmain.c: 97:     ADRESL = 0;
  3697  000F  1683               	bsf	3,5	;RP0=1, select bank1
  3698  0010  1303               	bcf	3,6	;RP1=0, select bank1
  3699  0011  019E               	clrf	30	;volatile
  3700  0012                     l58:
  3701  0012  0008               	return
  3702  0013                     __end_of_ADC_Config:
  3703  007E                     btemp	set	126	;btemp
  3704  007E                     wtemp0	set	126
  3705                           
  3706                           	psect	config
  3707                           
  3708                           ;Config register CONFIG @ 0x2007
  3709                           ;	Oscillator Selection bits
  3710                           ;	FOSC = HS, HS oscillator
  3711                           ;	Watchdog Timer Enable bit
  3712                           ;	WDTE = OFF, WDT disabled
  3713                           ;	Power-up Timer Enable bit
  3714                           ;	PWRTE = OFF, PWRT disabled
  3715                           ;	Brown-out Reset Enable bit
  3716                           ;	BOREN = OFF, BOR disabled
  3717                           ;	Low-Voltage (Single-Supply) In-Circuit Serial Programming Enable bit
  3718                           ;	LVP = OFF, RB3 is digital I/O, HV on MCLR must be used for programming
  3719                           ;	Data EEPROM Memory Code Protection bit
  3720                           ;	CPD = OFF, Data EEPROM code protection off
  3721                           ;	Flash Program Memory Write Enable bits
  3722                           ;	WRT = OFF, Write protection off; all program memory may be written to by EECON control
  3723                           ;	In-Circuit Debugger Mode bit
  3724                           ;	DEBUG = 0x1, unprogrammed default
  3725                           ;	Flash Program Memory Code Protection bit
  3726                           ;	CP = OFF, Code protection off
  3727  2007                     	org	8199
  3728  2007  3F3A               	dw	16186

Data Sizes:
    Strings     0
    Constant    0
    Data        4
    BSS         0
    Persistent  0
    Stack       0

Auto Spaces:
    Space          Size  Autos    Used
    COMMON           14     14      14
    BANK0            80     79      79
    BANK1            80     10      14
    BANK3            96      0       0
    BANK2            96      0       0

Pointer List with Targets:

    None.

Critical Paths under _main in COMMON

    _main->_PWM1_Init
    _PWM1_Init->___aldiv
    _PWM1_Set_Duty->___xxtofl
    ___xxtofl->___aldiv
    ___fltol->___xxtofl
    ___flmul->___xxtofl
    ___fldiv->___xxtofl

Critical Paths under _main in BANK0

    _PWM1_Init->___aldiv
    _PWM1_Set_Duty->___fltol
    ___xxtofl->___aldiv
    ___fltol->___flmul
    ___flmul->___fldiv
    ___fldiv->___xxtofl

Critical Paths under _main in BANK1

    _main->_ADC_Read
    _ADC_Read->_PWM1_Set_Duty

Critical Paths under _main in BANK3

    None.

Critical Paths under _main in BANK2

    None.

Call Graph Tables:

 ---------------------------------------------------------------------------------
 (Depth) Function   	        Calls       Base Space   Used Autos Params    Refs
 ---------------------------------------------------------------------------------
 (0) _main                                                 3     3      0    5987
                                             13 COMMON     1     1      0
                                              8 BANK1      2     2      0
                         _ADC_Config
                           _ADC_Read
                          _PWM1_Init
                      _Reverse_Motor
 ---------------------------------------------------------------------------------
 (1) _Reverse_Motor                                        2     0      2      98
                                              0 COMMON     2     0      2
 ---------------------------------------------------------------------------------
 (1) _PWM1_Init                                            4     4      0     604
                                              9 COMMON     4     4      0
                            ___aldiv
 ---------------------------------------------------------------------------------
 (1) _ADC_Read                                             3     3      0    5261
                                              6 BANK1      2     2      0
                      _PWM1_Set_Duty
 ---------------------------------------------------------------------------------
 (2) _PWM1_Set_Duty                                        6     4      2    5238
                                              0 BANK1      6     4      2
                            ___aldiv
                            ___fldiv
                            ___flmul
                            ___fltol
                           ___xxtofl
 ---------------------------------------------------------------------------------
 (3) ___xxtofl                                            14    10      4     474
                                              9 COMMON     4     4      0
                                              6 BANK0     10     6      4
                            ___aldiv (ARG)
 ---------------------------------------------------------------------------------
 (3) ___fltol                                             11     7      4     305
                                             68 BANK0     11     7      4
                            ___aldiv (ARG)
                            ___fldiv (ARG)
                            ___flmul (ARG)
                           ___xxtofl (ARG)
 ---------------------------------------------------------------------------------
 (3) ___flmul                                             26    18      8    2417
                                             42 BANK0     26    18      8
                          __Umul8_16
                            ___aldiv (ARG)
                            ___fldiv (ARG)
                           ___xxtofl (ARG)
 ---------------------------------------------------------------------------------
 (4) __Umul8_16                                            9     7      2     799
                                              0 COMMON     9     7      2
 ---------------------------------------------------------------------------------
 (3) ___fldiv                                             26    18      8    1273
                                             16 BANK0     26    18      8
                           ___xxtofl (ARG)
 ---------------------------------------------------------------------------------
 (2) ___aldiv                                             15     7      8     604
                                              0 COMMON     9     1      8
                                              0 BANK0      6     6      0
 ---------------------------------------------------------------------------------
 (1) _ADC_Config                                           0     0      0       0
 ---------------------------------------------------------------------------------
 Estimated maximum stack depth 4
 ---------------------------------------------------------------------------------

 Call Graph Graphs:

 _main (ROOT)
   _ADC_Config
   _ADC_Read
     _PWM1_Set_Duty
       ___aldiv
       ___fldiv
         ___xxtofl (ARG)
           ___aldiv (ARG)
       ___flmul
         __Umul8_16
         ___aldiv (ARG)
         ___fldiv (ARG)
         ___xxtofl (ARG)
       ___fltol
         ___aldiv (ARG)
         ___fldiv (ARG)
         ___flmul (ARG)
         ___xxtofl (ARG)
       ___xxtofl
   _PWM1_Init
     ___aldiv
   _Reverse_Motor

 Address spaces:
Name               Size   Autos  Total    Cost      Usage
BANK3               60      0       0       9        0.0%
BITBANK3            60      0       0       8        0.0%
SFR3                 0      0       0       4        0.0%
BITSFR3              0      0       0       4        0.0%
BANK2               60      0       0      11        0.0%
BITBANK2            60      0       0      10        0.0%
SFR2                 0      0       0       5        0.0%
BITSFR2              0      0       0       5        0.0%
BANK1               50      A       E       7       17.5%
BITBANK1            50      0       0       6        0.0%
SFR1                 0      0       0       2        0.0%
BITSFR1              0      0       0       2        0.0%
BANK0               50     4F      4F       5       98.8%
BITBANK0            50      0       0       4        0.0%
SFR0                 0      0       0       1        0.0%
BITSFR0              0      0       0       1        0.0%
COMMON               E      E       E       1      100.0%
BITCOMMON            E      0       0       0        0.0%
CODE                 0      0       0       0        0.0%
DATA                 0      0      6B      12        0.0%
ABS                  0      0      6B       3        0.0%
NULL                 0      0       0       0        0.0%
STACK                0      0       0       2        0.0%
EEDATA             100      0       0       0        0.0%


Microchip Technology PIC Macro Assembler V2.32 build 20210201212658 
Symbol Table                                                                                   Sat Apr 23 09:28:16 2022

           ___fldiv@aexp 0049             ___fldiv@bexp 0048             ___fldiv@sign 0041  
      PWM1_Set_Duty@duty 00A0                       l50 02A3                       l43 0FB1  
                     l61 0F5D                       l53 0F1B                       l46 0FB8  
                     l55 0F1F                       l71 0FE8                       l64 0F76  
                     l58 0012      __size_of_ADC_Config 000F      __Umul8_16@word_mpld 0076  
                    l227 00A3                      l237 012B                      l511 0300  
                    l513 0480                      l601 0195                      l355 0079  
                    l348 008E                      l533 0464                      l358 008E  
                    l535 0474                      l527 03F2                      l551 07E1  
                    l608 01B1                      l609 01BD                      l570 0F34  
                    l563 07D5                      l572 0F46                      l557 074D  
                    l595 0150                      l597 01E7                      _PR2 0092  
         Reverse_Motor@i 0070              main@u8count 007D             ___flmul@aexp 005C  
           ___flmul@bexp 005D             ___flmul@sign 0057             ___flmul@temp 0062  
           ___flmul@prod 005E             ___fltol@exp1 006E                     l1200 0113  
                   l1202 0118                     l1210 0020                     l1204 0123  
                   l1300 0341                     l1220 0047                     l1310 0360  
                   l1302 0349                     l1230 0055                     l1222 0049  
                   l1214 0029                     l1320 0392                     l1312 0372  
                   l1304 0351                     l1160 0F2E                     l1400 04A5  
                   l1240 007E                     l1224 004D                     l1232 0067  
                   l1216 003E                     l1208 0013                     l1170 0092  
                   l1330 03B3                     l1322 0393                     l1314 0376  
                   l1306 0359                     l1250 02B5                     l1162 0F3D  
                   l1154 0F21                     l1410 04BE                     l1402 04A7  
                   l1242 0083                     l1218 003F                     l1180 00BE  
                   l1172 0096                     l1340 03CC                     l1332 03B5  
                   l1324 03A1                     l1316 0377                     l1308 035B  
                   l1260 02C9                     l1252 02B6                     l1244 02A4  
                   l1164 0F42                     l1156 0F23                     l1500 0769  
                   l1420 04D3                     l1412 04BF                     l1404 04AF  
                   l1190 00E3                     l1182 00C6                     l1174 00A7  
                   l1350 03EF                     l1334 03BE                     l1342 03D2  
                   l1318 0380                     l1326 03A5                     l1270 02E2  
                   l1254 02BB                     l1262 02CB                     l1246 02AB  
                   l1158 0F2A                     l1510 07AF                     l1502 0782  
                   l1430 04EE                     l1422 04DB                     l1414 04C4  
                   l1406 04B4                     l1238 006E                     l1600 0004  
                   l1192 00F5                     l1184 00C9                     l1176 00B2  
                   l1168 008F                     l1360 040E                     l1344 03D6  
                   l1336 03C2                     l1328 03AB                     l1280 02F6  
                   l1272 02E3                     l1264 02D3                     l1256 02C0  
                   l1248 02B1                     l1520 07CE                     l1512 07B9  
                   l1504 0788                     l1440 0570                     l1432 04FE  
                   l1424 04E0                     l1416 04C9                     l1408 04BA  
                   l1602 000E                     l1194 0103                     l1186 00D6  
                   l1178 00B6                     l1370 0457                     l1362 0427  
                   l1354 03F7                     l1346 03D7                     l1338 03C3  
                   l1274 02E8                     l1282 02F8                     l1266 02D8  
                   l1258 02C8                     l1522 07D9                     l1514 07BB  
                   l1506 0795                     l1450 05DE                     l1442 058C  
                   l1434 050B                     l1426 04E5                     l1418 04D1  
                   l1530 0138                     l1610 0F4F                     l1604 000F  
                   l1196 0104                     l1188 00DA                     l1380 0470  
                   l1372 045B                     l1356 03FC                     l1364 042D  
                   l1348 03DB                     l1284 0308                     l1292 0321  
                   l1276 02ED                     l1268 02DE                     l1516 07C9  
                   l1508 07A0                     l1460 066E                     l1452 05EE  
                   l1444 05A8                     l1436 0528                     l1540 0166  
                   l1532 0148                     l1612 0F5A                     l1620 0FC6  
                   l1198 010D                     l1374 0463                     l1366 043A  
                   l1358 040A                     l1294 0326                     l1286 0314  
                   l1278 02F5                     l1518 07CD                     l1470 0702  
                   l1462 067E                     l1454 060B                     l1446 05B1  
                   l1438 0544                     l1390 048E                     l1550 019C  
                   l1542 0173                     l1534 0158                     l1526 012F  
                   l1614 0F61                     l1606 0F47                     l1630 0FCD  
                   l1622 0FC7                     l1376 046A                     l1368 0448  
                   l1288 0318                     l1480 0727                     l1472 0710  
                   l1464 06AB                     l1456 0624                     l1448 05C1  
                   l1392 0492                     l1560 01D5                     l1552 01A7  
                   l1544 017A                     l1528 0134                     l1608 0F47  
                   l1632 0FD2                     l1624 0FC8                     l1616 0FB9  
                   l1378 046E                     l1298 032F                     l1490 074A  
                   l1474 0719                     l1482 072D                     l1466 06D1  
                   l1458 0641                     l1394 0493                     l1386 0481  
                   l1562 01DA                     l1554 01AB                     l1546 017E  
                   l1538 0161                     l1570 01E8                     l1634 0FD8  
                   l1626 0FC9                     l1618 0FC3                     l1484 0731  
                   l1476 071D                     l1468 06F9                     l1396 0498  
                   l1388 0488                     l1564 01DE                     l1556 01B5  
                   l1548 018C                     l1572 01F3                     l1580 0F77  
                   l1636 0FDE                     l1628 0FCC                     l1494 0752  
                   l1486 0732                     l1478 071E                     l1398 049D  
                   l1566 01DF                     l1558 01BF                     l1574 0288  
                   l1590 0FB3                     l1582 0FAD                     l1638 0FEE  
                   l1496 0757                     l1488 0736                     l1576 0292  
                   l1592 0FB4                     l1584 0FB0                     l1498 0765  
                   l1578 0293                     l1594 0FB5                     l1596 0F12  
                   l1598 0F16                     u2000 0795                     u2001 0794  
                   u1210 00DA                     u2010 07AF                     u1211 00D9  
                   u2011 07AE                     u1140 0F2E                     u2020 07CD  
                   u1300 0054                     u1205 00CB                     u1141 0F2D  
                   u2021 07CC                     u2005 0791                     u1301 0053  
                   u1230 00F5                     u2110 01AB                     u2030 0134  
                   u1231 00F4                     u2015 07AB                     u2111 01AA  
                   u2031 0133                     u1400 02E2                     u1160 0F42  
                   u1320 0066                     u2120 01B1                     u2040 0138  
                   u1225 00DC                     u1401 02E1                     u1161 0F41  
                   u1321 0065                     u2121 01B0                     u2105 01A0  
                   u2041 0137                     u1250 0113                     u1170 0096  
                   u1410 02E8                     u1330 006D                     u2130 01B5  
                   u2050 0158                     u2210 0F87                     u1251 0112  
                   u1235 00F1                     u1171 0095                     u1411 02E7  
                   u1155 0F35                     u1331 006C                     u1315 0056  
                   u2131 01B4                     u2051 0157                     u1260 0118  
                   u1180 00A7                     u1500 0392                     u1420 02ED  
                   u2140 01CA                     u2204 0292                     u2220 0F90  
                   u1261 0117                     u1245 0105                     u1181 00A6  
                   u1501 0391                     u1421 02EC                     u1190 00C6  
                   u1510 03AB                     u1430 0308                     u1350 007E  
                   u1270 0020                     u2150 01DA                     u2070 0179  
                   u2230 0F16                     u1191 00C5                     u1511 03AA  
                   u1431 0307                     u1351 007D                     u1271 001F  
                   u2151 01D9                     u2071 0178                     u2215 0F82  
                   u2231 0F15                     u1600 03FC                     u1520 03B3  
                   u1440 0326                     u1360 0083                     u1280 0037  
                   u2160 01DE                     u2240 0F61                     u1601 03FB  
                   u1521 03B2                     u1505 038E                     u1441 0325  
                   u1361 0082                     u1345 0070                     u2161 01DD  
                   u2145 01C5                     u2065 016B                     u2241 0F60  
                   u2225 0F8B                     u1610 040E                     u1450 0360  
                   u1370 02B5                     u1290 004D                     u2090 019B  
                   u2170 01F3                     u2250 0FD8                     u1611 040D  
                   u1451 035F                     u1371 02B4                     u1291 004C  
                   u2091 019A                     u2171 01F2                     u2251 0FD7  
                   u1620 041D                     u1540 03C2                     u1380 02BB  
                   u1700 04C4                     u2180 023E                     u2260 0FEE  
                   u1541 03C1                     u1381 02BA                     u1701 04C3  
                   u1285 0032                     u2085 018D                     u2261 0FED  
                   u1630 043A                     u1390 02C0                     u1710 04C9  
                   u2190 028F                     u1631 0439                     u1535 03B7  
                   u1391 02BF                     u1711 04C8                     u2191 028B  
                   u1640 0457                     u1560 03D6                     u1480 0376  
                   u1720 04E0                     u1641 0456                     u1625 0418  
                   u1561 03D5                     u1481 0375                     u1465 0362  
                   u1801 05FD                     u1721 04DF                     u2185 0239  
                   u1650 046E                     u1570 03DB                     u1802 0604  
                   u1730 04E5                     u1651 046D                     u1635 0436  
                   u1571 03DA                     u1555 03C5                     u1475 036B  
                   u1803 060B                     u1731 04E4                     u1580 03EF  
                   u1660 0492                     u1645 0453                     u1581 03EE  
                   u1821 0633                     u1741 0536                     u1661 0491  
                   u2277 0FE4                     u1590 03F6                     u1910 071D  
                   u1822 063A                     u1742 053D                     u1670 0498  
                   u1591 03F5                     u1495 0379                     u1911 071C  
                   u1831 0660                     u1823 0641                     u1815 060D  
                   u1751 0552                     u1743 0544                     u1671 0497  
                   u2287 0F55                     u1832 0667                     u1752 0559  
                   u1680 049D                     u1905 0712                     u1841 068D  
                   u1833 066E                     u1761 057E                     u1753 0560  
                   u1681 049C                     u1930 0731                     u1850 06B7  
                   u1842 0694                     u1762 0585                     u1690 04BE  
                   u1931 0730                     u1843 069B                     u1771 059A  
                   u1763 058C                     u1691 04BD                     u1940 0736  
                   u1772 05A1                     u1941 0735                     u1925 0720  
                   u1861 06C3                     u1773 05A8                     u1950 074A  
                   u1870 06DF                     u1862 06CA                     u1951 0749  
                   u1863 06D1                     u1855 06B2                     u1791 05D0  
                   u1960 0751                     u1792 05D7                     u1961 0750  
                   u1881 06EB                     u1793 05DE                     u1785 05AA  
                   u1970 0757                     u1882 06F2                     u1971 0756  
                   u1883 06F9                     u1875 06DA                     u1980 0769  
                   u1981 0768                     u1990 0778                     u1895 06FB  
                   u1995 0773                     _TMR2 0011                     _main 0FB9  
                   btemp 007E         __end_of_ADC_Read 0F77                     start 0000  
        ___fldiv@new_exp 0042            ___fltol@sign1 006D          __end_of___aldiv 012C  
                  ?_main 0070                    _CCP1X 00BD          __end_of___fldiv 0481  
                  _CCP1Y 00BC          __end_of___flmul 07E2          __end_of___fltol 008F  
                  _TRISA 0085            _PWM_Frequency 00AA       __size_of_PWM1_Init 0042  
                  status 0003                    wtemp0 007E          __initialization 07E2  
           __end_of_main 1000    __end_of_Reverse_Motor 0F20                   ??_main 00A8  
                 _ADCON0 001F                   _ADCON1 009F                   _ADRESH 001E  
                 _ADRESL 009E                   _CCPR1L 0015             ??_ADC_Config 0070  
       __end_of___xxtofl 01E8        __end_of_PWM1_Init 0FB9                ??___aldiv 0078  
              ??___fldiv 0038                ??___flmul 0052                ??___fltol 0068  
     __end_of_ADC_Config 0013       __size_of__Umul8_16 0027                ?_ADC_Read 0070  
           ___xxtofl@arg 002C             ___xxtofl@exp 002B             ___xxtofl@val 0026  
__end_of__initialization 07FC               ___fltol@f1 0064           __pcstackCOMMON 0070  
  __end_of_PWM1_Set_Duty 02A4             __pidataBANK1 0F0E               ??_ADC_Read 00A6  
      __end_of__Umul8_16 0F47               __pmaintext 0FB9                ?___xxtofl 0026  
                ___aldiv 008F                  ___fldiv 02A4                  ___flmul 0481  
                ___fltol 0013                  __ptext1 0F12                  __ptext2 0F77  
                __ptext3 0F47                  __ptext4 01E8                  __ptext5 012C  
                __ptext6 0013                  __ptext7 0481                  __ptext8 0F20  
                __ptext9 02A4                _T2CONbits 0012               ??___xxtofl 0079  
       ___aldiv@dividend 0074     end_of_initialization 07FC         ___aldiv@quotient 0022  
              _PWM1_Init 0F77                _PORTBbits 0006                _PORTDbits 0008  
          ___xxtofl@sign 002A                _TRISBbits 0086                _TRISCbits 0087  
              _TRISDbits 0088              ___fldiv@grs 0044              ___fldiv@rem 003D  
      __size_of_ADC_Read 0030              ___flmul@grs 0058              _CCP1CONbits 0017  
 __size_of_Reverse_Motor 000E               ?_PWM1_Init 0070      start_initialization 07E2  
              __Umul8_16 0F20              __pdataBANK1 00AA            _Reverse_Motor 0F12  
              ___fldiv@a 0030                ___fldiv@b 0034                ___flmul@a 004E  
              ___flmul@b 004A                ___latbits 0002            __pcstackBANK0 0020  
          __pcstackBANK1 00A0        __size_of___xxtofl 00BC   __size_of_PWM1_Set_Duty 00BC  
               ?___aldiv 0070                 ?___fldiv 0030                 ?___flmul 004A  
               ?___fltol 0064               ?__Umul8_16 0070              ??_PWM1_Init 0079  
         ?_Reverse_Motor 0070                 _ADC_Read 0F47          ___aldiv@divisor 0070  
        ___aldiv@counter 0020                 _GO_nDONE 00FA            _PWM1_Set_Duty 01E8  
             _ADC_Config 0004           ?_PWM1_Set_Duty 00A0              ??__Umul8_16 0072  
       __size_of___aldiv 009D          ??_Reverse_Motor 0072         __size_of___fldiv 01DD  
       __size_of___flmul 0361         __size_of___fltol 007C                 ___xxtofl 012C  
               __ptext10 008F                 __ptext11 0004            __size_of_main 0047  
            ?_ADC_Config 0070          ??_PWM1_Set_Duty 00A2   __Umul8_16@multiplicand 0070  
           ___aldiv@sign 0021     __Umul8_16@multiplier 0078        __Umul8_16@product 0074  
