

Microchip MPLAB XC8 Assembler V2.32 build 20210201212658 
                                                                                               Tue Mar 08 21:13:02 2022

Microchip MPLAB XC8 C Compiler v2.32 (Free license) build 20210201212658 Og1 
     1                           	processor	16F877A
     2                           	pagewidth 120
     3                           	opt	flic
     4                           	psect	idataBANK1,global,class=CODE,delta=2,noexec
     5                           	psect	idataBANK3,global,class=CODE,delta=2,noexec
     6                           	psect	cinit,global,class=CODE,merge=1,delta=2
     7                           	psect	bssCOMMON,global,class=COMMON,space=1,delta=1,noexec
     8                           	psect	bssBANK1,global,class=BANK1,space=1,delta=1,noexec
     9                           	psect	dataBANK1,global,class=BANK1,space=1,delta=1,noexec
    10                           	psect	bssBANK3,global,class=BANK3,space=1,delta=1,noexec
    11                           	psect	dataBANK3,global,class=BANK3,space=1,delta=1,noexec
    12                           	psect	inittext,global,class=CODE,delta=2
    13                           	psect	clrtext,global,class=CODE,delta=2
    14                           	psect	cstackBANK1,global,class=BANK1,space=1,delta=1,noexec
    15                           	psect	cstackCOMMON,global,class=COMMON,space=1,delta=1,noexec
    16                           	psect	cstackBANK0,global,class=BANK0,space=1,delta=1,noexec
    17                           	psect	maintext,global,class=CODE,split=1,delta=2
    18                           	psect	text1,local,class=CODE,merge=1,delta=2
    19                           	psect	text2,local,class=CODE,merge=1,delta=2,group=1
    20                           	psect	text3,local,class=CODE,merge=1,delta=2,group=1
    21                           	psect	text4,local,class=CODE,merge=1,delta=2
    22                           	psect	text5,local,class=CODE,merge=1,delta=2
    23                           	psect	text6,local,class=CODE,merge=1,delta=2
    24                           	psect	text7,local,class=CODE,merge=1,delta=2,group=2
    25                           	psect	text8,local,class=CODE,merge=1,delta=2
    26                           	psect	text9,local,class=CODE,merge=1,delta=2,group=1
    27                           	psect	text10,local,class=CODE,merge=1,delta=2,group=1
    28                           	psect	text11,local,class=CODE,merge=1,delta=2,group=1
    29                           	psect	text12,local,class=CODE,merge=1,delta=2,group=1
    30                           	psect	text13,local,class=CODE,merge=1,delta=2,group=1
    31                           	psect	text14,local,class=CODE,merge=1,delta=2
    32                           	psect	text15,local,class=CODE,merge=1,delta=2
    33                           	psect	text16,local,class=CODE,merge=1,delta=2,group=1
    34                           	psect	text17,local,class=CODE,merge=1,delta=2
    35                           	psect	text18,local,class=CODE,merge=1,delta=2
    36                           	psect	text19,local,class=CODE,merge=1,delta=2
    37                           	psect	text20,local,class=CODE,merge=1,delta=2
    38                           	psect	text21,local,class=CODE,merge=1,delta=2,group=1
    39                           	psect	text22,local,class=CODE,merge=1,delta=2
    40                           	psect	text23,local,class=CODE,merge=1,delta=2
    41                           	psect	text24,local,class=CODE,merge=1,delta=2
    42                           	psect	text25,local,class=CODE,merge=1,delta=2
    43                           	psect	text26,local,class=CODE,merge=1,delta=2
    44                           	psect	text27,local,class=CODE,merge=1,delta=2
    45                           	psect	text28,local,class=CODE,merge=1,delta=2
    46                           	psect	intentry,global,class=CODE,delta=2
    47                           	psect	text29,local,class=CODE,merge=1,delta=2
    48                           	psect	text30,local,class=CODE,merge=1,delta=2
    49                           	psect	text31,local,class=CODE,merge=1,delta=2
    50                           	psect	text32,local,class=CODE,merge=1,delta=2
    51                           	psect	config,global,abs,ovrld,class=CONFIG,space=4,delta=2,noexec
    52                           	dabs	1,0x7E,2
    53  0000                     
    54                           ; Version 2.32
    55                           ; Generated 02/02/2021 GMT
    56                           ; 
    57                           ; Copyright © 2021, Microchip Technology Inc. and its subsidiaries ("Microchip")
    58                           ; All rights reserved.
    59                           ; 
    60                           ; This software is developed by Microchip Technology Inc. and its subsidiaries ("Microch
      +                          ip").
    61                           ; 
    62                           ; Redistribution and use in source and binary forms, with or without modification, are
    63                           ; permitted provided that the following conditions are met:
    64                           ; 
    65                           ;     1. Redistributions of source code must retain the above copyright notice, this lis
      +                          t of
    66                           ;        conditions and the following disclaimer.
    67                           ; 
    68                           ;     2. Redistributions in binary form must reproduce the above copyright notice, this 
      +                          list
    69                           ;        of conditions and the following disclaimer in the documentation and/or other
    70                           ;        materials provided with the distribution. Publication is not required when
    71                           ;        this file is used in an embedded application.
    72                           ; 
    73                           ;     3. Microchip's name may not be used to endorse or promote products derived from th
      +                          is
    74                           ;        software without specific prior written permission.
    75                           ; 
    76                           ; THIS SOFTWARE IS PROVIDED BY MICROCHIP "AS IS" AND ANY EXPRESS OR IMPLIED WARRANTIES,
    77                           ; INCLUDING, BUT NOT LIMITED TO, THE IMPLIED WARRANTIES OF MERCHANTABILITY AND FITNESS F
      +                          OR
    78                           ; PURPOSE ARE DISCLAIMED.  IN NO EVENT SHALL MICROCHIP BE LIABLE FOR ANY DIRECT, INDIREC
      +                          T,
    79                           ; INCIDENTAL, SPECIAL, EXEMPLARY, OR CONSEQUENTIAL DAMAGES (INCLUDING BUT NOT LIMITED TO
    80                           ; PROCUREMENT OF SUBSTITUTE GOODS OR SERVICES; LOSS OF USE, DATA OR PROFITS; OR BUSINESS
    81                           ; INTERRUPTION) HOWSOEVER CAUSED AND ON ANY THEORY OF LIABILITY, WHETHER IN CONTRACT, ST
      +                          RICT
    82                           ; LIABILITY, OR TORT (INCLUDING NEGLIGENCE OR OTHERWISE) ARISING IN ANY WAY OUT OF THE U
      +                          SE OF
    83                           ; THIS SOFTWARE, EVEN IF ADVISED OF THE POSSIBILITY OF SUCH DAMAGE.
    84                           ; 
    85                           ; 
    86                           ; Code-generator required, PIC16F877A Definitions
    87                           ; 
    88                           ; SFR Addresses
    89  0000                     	;# 
    90  0001                     	;# 
    91  0002                     	;# 
    92  0003                     	;# 
    93  0004                     	;# 
    94  0005                     	;# 
    95  0006                     	;# 
    96  0007                     	;# 
    97  0008                     	;# 
    98  0009                     	;# 
    99  000A                     	;# 
   100  000B                     	;# 
   101  000C                     	;# 
   102  000D                     	;# 
   103  000E                     	;# 
   104  000E                     	;# 
   105  000F                     	;# 
   106  0010                     	;# 
   107  0011                     	;# 
   108  0012                     	;# 
   109  0013                     	;# 
   110  0014                     	;# 
   111  0015                     	;# 
   112  0015                     	;# 
   113  0016                     	;# 
   114  0017                     	;# 
   115  0018                     	;# 
   116  0019                     	;# 
   117  001A                     	;# 
   118  001B                     	;# 
   119  001B                     	;# 
   120  001C                     	;# 
   121  001D                     	;# 
   122  001E                     	;# 
   123  001F                     	;# 
   124  0081                     	;# 
   125  0085                     	;# 
   126  0086                     	;# 
   127  0087                     	;# 
   128  0088                     	;# 
   129  0089                     	;# 
   130  008C                     	;# 
   131  008D                     	;# 
   132  008E                     	;# 
   133  0091                     	;# 
   134  0092                     	;# 
   135  0093                     	;# 
   136  0094                     	;# 
   137  0098                     	;# 
   138  0099                     	;# 
   139  009C                     	;# 
   140  009D                     	;# 
   141  009E                     	;# 
   142  009F                     	;# 
   143  010C                     	;# 
   144  010D                     	;# 
   145  010E                     	;# 
   146  010F                     	;# 
   147  018C                     	;# 
   148  018D                     	;# 
   149  0000                     	;# 
   150  0001                     	;# 
   151  0002                     	;# 
   152  0003                     	;# 
   153  0004                     	;# 
   154  0005                     	;# 
   155  0006                     	;# 
   156  0007                     	;# 
   157  0008                     	;# 
   158  0009                     	;# 
   159  000A                     	;# 
   160  000B                     	;# 
   161  000C                     	;# 
   162  000D                     	;# 
   163  000E                     	;# 
   164  000E                     	;# 
   165  000F                     	;# 
   166  0010                     	;# 
   167  0011                     	;# 
   168  0012                     	;# 
   169  0013                     	;# 
   170  0014                     	;# 
   171  0015                     	;# 
   172  0015                     	;# 
   173  0016                     	;# 
   174  0017                     	;# 
   175  0018                     	;# 
   176  0019                     	;# 
   177  001A                     	;# 
   178  001B                     	;# 
   179  001B                     	;# 
   180  001C                     	;# 
   181  001D                     	;# 
   182  001E                     	;# 
   183  001F                     	;# 
   184  0081                     	;# 
   185  0085                     	;# 
   186  0086                     	;# 
   187  0087                     	;# 
   188  0088                     	;# 
   189  0089                     	;# 
   190  008C                     	;# 
   191  008D                     	;# 
   192  008E                     	;# 
   193  0091                     	;# 
   194  0092                     	;# 
   195  0093                     	;# 
   196  0094                     	;# 
   197  0098                     	;# 
   198  0099                     	;# 
   199  009C                     	;# 
   200  009D                     	;# 
   201  009E                     	;# 
   202  009F                     	;# 
   203  010C                     	;# 
   204  010D                     	;# 
   205  010E                     	;# 
   206  010F                     	;# 
   207  018C                     	;# 
   208  018D                     	;# 
   209  0000                     	;# 
   210  0001                     	;# 
   211  0002                     	;# 
   212  0003                     	;# 
   213  0004                     	;# 
   214  0005                     	;# 
   215  0006                     	;# 
   216  0007                     	;# 
   217  0008                     	;# 
   218  0009                     	;# 
   219  000A                     	;# 
   220  000B                     	;# 
   221  000C                     	;# 
   222  000D                     	;# 
   223  000E                     	;# 
   224  000E                     	;# 
   225  000F                     	;# 
   226  0010                     	;# 
   227  0011                     	;# 
   228  0012                     	;# 
   229  0013                     	;# 
   230  0014                     	;# 
   231  0015                     	;# 
   232  0015                     	;# 
   233  0016                     	;# 
   234  0017                     	;# 
   235  0018                     	;# 
   236  0019                     	;# 
   237  001A                     	;# 
   238  001B                     	;# 
   239  001B                     	;# 
   240  001C                     	;# 
   241  001D                     	;# 
   242  001E                     	;# 
   243  001F                     	;# 
   244  0081                     	;# 
   245  0085                     	;# 
   246  0086                     	;# 
   247  0087                     	;# 
   248  0088                     	;# 
   249  0089                     	;# 
   250  008C                     	;# 
   251  008D                     	;# 
   252  008E                     	;# 
   253  0091                     	;# 
   254  0092                     	;# 
   255  0093                     	;# 
   256  0094                     	;# 
   257  0098                     	;# 
   258  0099                     	;# 
   259  009C                     	;# 
   260  009D                     	;# 
   261  009E                     	;# 
   262  009F                     	;# 
   263  010C                     	;# 
   264  010D                     	;# 
   265  010E                     	;# 
   266  010F                     	;# 
   267  018C                     	;# 
   268  018D                     	;# 
   269  0000                     	;# 
   270  0001                     	;# 
   271  0002                     	;# 
   272  0003                     	;# 
   273  0004                     	;# 
   274  0005                     	;# 
   275  0006                     	;# 
   276  0007                     	;# 
   277  0008                     	;# 
   278  0009                     	;# 
   279  000A                     	;# 
   280  000B                     	;# 
   281  000C                     	;# 
   282  000D                     	;# 
   283  000E                     	;# 
   284  000E                     	;# 
   285  000F                     	;# 
   286  0010                     	;# 
   287  0011                     	;# 
   288  0012                     	;# 
   289  0013                     	;# 
   290  0014                     	;# 
   291  0015                     	;# 
   292  0015                     	;# 
   293  0016                     	;# 
   294  0017                     	;# 
   295  0018                     	;# 
   296  0019                     	;# 
   297  001A                     	;# 
   298  001B                     	;# 
   299  001B                     	;# 
   300  001C                     	;# 
   301  001D                     	;# 
   302  001E                     	;# 
   303  001F                     	;# 
   304  0081                     	;# 
   305  0085                     	;# 
   306  0086                     	;# 
   307  0087                     	;# 
   308  0088                     	;# 
   309  0089                     	;# 
   310  008C                     	;# 
   311  008D                     	;# 
   312  008E                     	;# 
   313  0091                     	;# 
   314  0092                     	;# 
   315  0093                     	;# 
   316  0094                     	;# 
   317  0098                     	;# 
   318  0099                     	;# 
   319  009C                     	;# 
   320  009D                     	;# 
   321  009E                     	;# 
   322  009F                     	;# 
   323  010C                     	;# 
   324  010D                     	;# 
   325  010E                     	;# 
   326  010F                     	;# 
   327  018C                     	;# 
   328  018D                     	;# 
   329  0000                     	;# 
   330  0001                     	;# 
   331  0002                     	;# 
   332  0003                     	;# 
   333  0004                     	;# 
   334  0005                     	;# 
   335  0006                     	;# 
   336  0007                     	;# 
   337  0008                     	;# 
   338  0009                     	;# 
   339  000A                     	;# 
   340  000B                     	;# 
   341  000C                     	;# 
   342  000D                     	;# 
   343  000E                     	;# 
   344  000E                     	;# 
   345  000F                     	;# 
   346  0010                     	;# 
   347  0011                     	;# 
   348  0012                     	;# 
   349  0013                     	;# 
   350  0014                     	;# 
   351  0015                     	;# 
   352  0015                     	;# 
   353  0016                     	;# 
   354  0017                     	;# 
   355  0018                     	;# 
   356  0019                     	;# 
   357  001A                     	;# 
   358  001B                     	;# 
   359  001B                     	;# 
   360  001C                     	;# 
   361  001D                     	;# 
   362  001E                     	;# 
   363  001F                     	;# 
   364  0081                     	;# 
   365  0085                     	;# 
   366  0086                     	;# 
   367  0087                     	;# 
   368  0088                     	;# 
   369  0089                     	;# 
   370  008C                     	;# 
   371  008D                     	;# 
   372  008E                     	;# 
   373  0091                     	;# 
   374  0092                     	;# 
   375  0093                     	;# 
   376  0094                     	;# 
   377  0098                     	;# 
   378  0099                     	;# 
   379  009C                     	;# 
   380  009D                     	;# 
   381  009E                     	;# 
   382  009F                     	;# 
   383  010C                     	;# 
   384  010D                     	;# 
   385  010E                     	;# 
   386  010F                     	;# 
   387  018C                     	;# 
   388  018D                     	;# 
   389                           
   390                           	psect	idataBANK1
   391  10D1                     __pidataBANK1:
   392                           
   393                           ;initializer for _PWM_Frequency
   394  10D1  3488               	retlw	136
   395  10D2  3413               	retlw	19
   396  10D3  3400               	retlw	0
   397  10D4  3400               	retlw	0
   398                           
   399                           	psect	idataBANK3
   400  10E5                     __pidataBANK3:
   401                           
   402                           ;initializer for _Ki
   403  10E5  3400               	retlw	0
   404  10E6  3400               	retlw	0
   405  10E7  3400               	retlw	0
   406  10E8  343F               	retlw	63
   407                           
   408                           ;initializer for _Kp
   409  10E9  3400               	retlw	0
   410  10EA  3400               	retlw	0
   411  10EB  3418               	retlw	24
   412  10EC  3442               	retlw	66
   413  001B                     _CCPR2L	set	27
   414  0015                     _CCPR1L	set	21
   415  001D                     _CCP2CONbits	set	29
   416  0011                     _TMR2	set	17
   417  0012                     _T2CONbits	set	18
   418  0017                     _CCP1CONbits	set	23
   419  0013                     _SSPBUF	set	19
   420  000C                     _PIR1bits	set	12
   421  0014                     _SSPCONbits	set	20
   422  0014                     _SSPCON	set	20
   423  001A                     _RCREG	set	26
   424  0019                     _TXREG	set	25
   425  000B                     _INTCONbits	set	11
   426  0008                     _PORTDbits	set	8
   427  00EC                     _CCP2Y	set	236
   428  00ED                     _CCP2X	set	237
   429  00BC                     _CCP1Y	set	188
   430  00BD                     _CCP1X	set	189
   431  0065                     _RCIF	set	101
   432  00C4                     _CREN	set	196
   433  00C7                     _SPEN	set	199
   434  0092                     _PR2	set	146
   435  0088                     _TRISDbits	set	136
   436  0091                     _SSPCON2bits	set	145
   437  0093                     _SSPADD	set	147
   438  0094                     _SSPSTATbits	set	148
   439  0091                     _SSPCON2	set	145
   440  0099                     _SPBRG	set	153
   441  0087                     _TRISCbits	set	135
   442  04C1                     _TRMT	set	1217
   443  0465                     _RCIE	set	1125
   444  04C5                     _TXEN	set	1221
   445                           
   446                           	psect	cinit
   447  0011                     start_initialization:	
   448                           ; #config settings
   449                           
   450  0011                     __initialization:
   451                           
   452                           ; Initialize objects allocated to BANK3
   453  0011  1783               	bsf	3,7	;select IRP bank2
   454  0012  30AC               	movlw	low (__pdataBANK3+8)
   455  0013  00FD               	movwf	btemp+-1
   456  0014  3010               	movlw	high __pidataBANK3
   457  0015  00FE               	movwf	btemp
   458  0016  30E5               	movlw	low __pidataBANK3
   459  0017  00FF               	movwf	btemp+1
   460  0018  30A4               	movlw	low __pdataBANK3
   461  0019  0084               	movwf	4
   462  001A  160A  118A  213C  120A  118A  	fcall	init_ram0
   463                           
   464                           ; Initialize objects allocated to BANK1
   465  001F  1383               	bcf	3,7	;select IRP bank0
   466  0020  30EF               	movlw	low (__pdataBANK1+4)
   467  0021  00FD               	movwf	btemp+-1
   468  0022  3010               	movlw	high __pidataBANK1
   469  0023  00FE               	movwf	btemp
   470  0024  30D1               	movlw	low __pidataBANK1
   471  0025  00FF               	movwf	btemp+1
   472  0026  30EB               	movlw	low __pdataBANK1
   473  0027  0084               	movwf	4
   474  0028  160A  118A  213C  120A  118A  	fcall	init_ram0
   475                           
   476                           ; Clear objects allocated to BANK3
   477  002D  1783               	bsf	3,7	;select IRP bank2
   478  002E  3090               	movlw	low __pbssBANK3
   479  002F  0084               	movwf	4
   480  0030  30A4               	movlw	low (__pbssBANK3+20)
   481  0031  160A  118A  20DD  120A  118A  	fcall	clear_ram0
   482                           
   483                           ; Clear objects allocated to BANK1
   484  0036  1383               	bcf	3,7	;select IRP bank0
   485  0037  30D5               	movlw	low __pbssBANK1
   486  0038  0084               	movwf	4
   487  0039  30EB               	movlw	low (__pbssBANK1+22)
   488  003A  160A  118A  20DD  120A  118A  	fcall	clear_ram0
   489                           
   490                           ; Clear objects allocated to COMMON
   491  003F  01FA               	clrf	__pbssCOMMON& (0+127)
   492  0040  01FB               	clrf	(__pbssCOMMON+1)& (0+127)
   493  0041  01FC               	clrf	(__pbssCOMMON+2)& (0+127)
   494  0042                     end_of_initialization:	
   495                           ;End of C runtime variable initialization code
   496                           
   497  0042                     __end_of__initialization:
   498  0042  0183               	clrf	3
   499  0043  120A  158A  294D   	ljmp	_main	;jump to C main() function
   500                           
   501                           	psect	bssCOMMON
   502  007A                     __pbssCOMMON:
   503  007A                     _Output:
   504  007A                     	ds	2
   505  007C                     _rx_index:
   506  007C                     	ds	1
   507                           
   508                           	psect	bssBANK1
   509  00D5                     __pbssBANK1:
   510  00D5                     _Vgo_R:
   511  00D5                     	ds	2
   512  00D7                     _Vgo_L:
   513  00D7                     	ds	2
   514  00D9                     _OutputR:
   515  00D9                     	ds	2
   516  00DB                     _OutputL:
   517  00DB                     	ds	2
   518  00DD                     _input_lastR:
   519  00DD                     	ds	2
   520  00DF                     _input_lastL:
   521  00DF                     	ds	2
   522  00E1                     _I_R:
   523  00E1                     	ds	2
   524  00E3                     _I_L:
   525  00E3                     	ds	2
   526  00E5                     _Offset:
   527  00E5                     	ds	2
   528  00E7                     _inputR:
   529  00E7                     	ds	2
   530  00E9                     _inputL:
   531  00E9                     	ds	2
   532                           
   533                           	psect	dataBANK1
   534  00EB                     __pdataBANK1:
   535  00EB                     _PWM_Frequency:
   536  00EB                     	ds	4
   537                           
   538                           	psect	bssBANK3
   539  0190                     __pbssBANK3:
   540  0190                     _Kd:
   541  0190                     	ds	4
   542  0194                     _Vgo:
   543  0194                     	ds	2
   544  0196                     _MotorR:
   545  0196                     	ds	2
   546  0198                     _MotorL:
   547  0198                     	ds	2
   548  019A                     _RX_Buffer:
   549  019A                     	ds	10
   550                           
   551                           	psect	dataBANK3
   552  01A4                     __pdataBANK3:
   553  01A4                     _Ki:
   554  01A4                     	ds	4
   555  01A8                     _Kp:
   556  01A8                     	ds	4
   557                           
   558                           	psect	inittext
   559  1138                     init_fetch0:	
   560                           ;	Called with low address in FSR and high address in W
   561                           
   562  1138  087E               	movf	btemp,w
   563  1139  008A               	movwf	10
   564  113A  087F               	movf	btemp+1,w
   565  113B  0082               	movwf	2
   566  113C                     init_ram0:	
   567                           ;Called with:
   568                           ;	high address of idata address in btemp 
   569                           ;	low address of idata address in btemp+1 
   570                           ;	low address of data in FSR
   571                           ;	high address + 1 of data in btemp-1
   572                           
   573  113C  160A  118A  2138  160A  118A  	fcall	init_fetch0
   574  1141  0080               	movwf	0
   575  1142  0A84               	incf	4,f
   576  1143  0804               	movf	4,w
   577  1144  067D               	xorwf	btemp+-1,w
   578  1145  1903               	btfsc	3,2
   579  1146  3400               	retlw	0
   580  1147  0AFF               	incf	btemp+1,f
   581  1148  1903               	btfsc	3,2
   582  1149  0AFE               	incf	btemp,f
   583  114A  293C               	goto	init_ram0
   584                           
   585                           	psect	clrtext
   586  10DD                     clear_ram0:	
   587                           ;	Called with FSR containing the base address, and
   588                           ;	W with the last address+1
   589                           
   590  10DD  0064               	clrwdt	;clear the watchdog before getting into this loop
   591  10DE                     clrloop0:
   592  10DE  0180               	clrf	0	;clear RAM location pointed to by FSR
   593  10DF  0A84               	incf	4,f	;increment pointer
   594  10E0  0604               	xorwf	4,w	;XOR with final address
   595  10E1  1903               	btfsc	3,2	;have we reached the end yet?
   596  10E2  3400               	retlw	0	;all done for this memory range, return
   597  10E3  0604               	xorwf	4,w	;XOR again to restore value
   598  10E4  28DE               	goto	clrloop0	;do the next byte
   599                           
   600                           	psect	cstackBANK1
   601  00A0                     __pcstackBANK1:
   602  00A0                     ___flmul@sign:
   603                           
   604                           ; 1 bytes @ 0x0
   605  00A0                     	ds	1
   606  00A1                     ___flmul@grs:
   607                           
   608                           ; 4 bytes @ 0x1
   609  00A1                     	ds	4
   610  00A5                     ___flmul@aexp:
   611                           
   612                           ; 1 bytes @ 0x5
   613  00A5                     	ds	1
   614  00A6                     ___flmul@bexp:
   615                           
   616                           ; 1 bytes @ 0x6
   617  00A6                     	ds	1
   618  00A7                     ___flmul@prod:
   619                           
   620                           ; 4 bytes @ 0x7
   621  00A7                     	ds	4
   622  00AB                     ___flmul@temp:
   623                           
   624                           ; 2 bytes @ 0xB
   625  00AB                     	ds	2
   626  00AD                     ??___fladd:
   627                           
   628                           ; 1 bytes @ 0xD
   629  00AD                     	ds	8
   630  00B5                     ?___fltol:
   631  00B5                     ___fltol@f1:	
   632                           ; 4 bytes @ 0x15
   633                           
   634                           
   635                           ; 4 bytes @ 0x15
   636  00B5                     	ds	4
   637  00B9                     ??___fltol:
   638                           
   639                           ; 1 bytes @ 0x19
   640  00B9                     	ds	5
   641  00BE                     ___fltol@sign1:
   642                           
   643                           ; 1 bytes @ 0x1E
   644  00BE                     	ds	1
   645  00BF                     ___fltol@exp1:
   646                           
   647                           ; 1 bytes @ 0x1F
   648  00BF                     	ds	1
   649  00C0                     ?_PWM1_Set_Duty:
   650  00C0                     ?_PWM2_Set_Duty:	
   651                           ; 1 bytes @ 0x20
   652                           
   653  00C0                     ?_constrain:	
   654                           ; 1 bytes @ 0x20
   655                           
   656  00C0                     PWM1_Set_Duty@duty:	
   657                           ; 2 bytes @ 0x20
   658                           
   659  00C0                     PWM2_Set_Duty@duty:	
   660                           ; 2 bytes @ 0x20
   661                           
   662  00C0                     constrain@a:	
   663                           ; 2 bytes @ 0x20
   664                           
   665                           
   666                           ; 4 bytes @ 0x20
   667  00C0                     	ds	2
   668  00C2                     ??_PWM1_Set_Duty:
   669  00C2                     ??_PWM2_Set_Duty:	
   670                           ; 1 bytes @ 0x22
   671                           
   672                           
   673                           ; 1 bytes @ 0x22
   674  00C2                     	ds	2
   675  00C4                     constrain@min:
   676                           
   677                           ; 2 bytes @ 0x24
   678  00C4                     	ds	2
   679  00C6                     ?_Speed_L:
   680  00C6                     ?_Speed_R:	
   681                           ; 1 bytes @ 0x26
   682                           
   683  00C6                     Speed_L@speed:	
   684                           ; 1 bytes @ 0x26
   685                           
   686  00C6                     Speed_R@speed:	
   687                           ; 2 bytes @ 0x26
   688                           
   689  00C6                     constrain@max:	
   690                           ; 2 bytes @ 0x26
   691                           
   692                           
   693                           ; 2 bytes @ 0x26
   694  00C6                     	ds	2
   695  00C8                     ??_main:
   696                           
   697                           ; 1 bytes @ 0x28
   698  00C8                     	ds	3
   699  00CB                     main@Angle:
   700                           
   701                           ; 2 bytes @ 0x2B
   702  00CB                     	ds	2
   703  00CD                     _main$1254:
   704                           
   705                           ; 4 bytes @ 0x2D
   706  00CD                     	ds	4
   707  00D1                     _main$1255:
   708                           
   709                           ; 4 bytes @ 0x31
   710  00D1                     	ds	4
   711                           
   712                           	psect	cstackCOMMON
   713  0070                     __pcstackCOMMON:
   714  0070                     ?_MPU6050_Init:
   715  0070                     ?_PWM1_Init:	
   716                           ; 1 bytes @ 0x0
   717                           
   718  0070                     ?_PWM2_Init:	
   719                           ; 1 bytes @ 0x0
   720                           
   721  0070                     ?_HandleData:	
   722                           ; 1 bytes @ 0x0
   723                           
   724  0070                     ?_ClearRX_Buffer:	
   725                           ; 1 bytes @ 0x0
   726                           
   727  0070                     ??_ClearRX_Buffer:	
   728                           ; 1 bytes @ 0x0
   729                           
   730  0070                     ?_main:	
   731                           ; 1 bytes @ 0x0
   732                           
   733  0070                     ?_UART_Transmit:	
   734                           ; 1 bytes @ 0x0
   735                           
   736  0070                     ??_UART_Transmit:	
   737                           ; 1 bytes @ 0x0
   738                           
   739  0070                     ?_UART_Transmit_Text:	
   740                           ; 1 bytes @ 0x0
   741                           
   742  0070                     ?_isr1:	
   743                           ; 1 bytes @ 0x0
   744                           
   745  0070                     ?_I2C_Init:	
   746                           ; 1 bytes @ 0x0
   747                           
   748  0070                     ?_I2C_Idle:	
   749                           ; 1 bytes @ 0x0
   750                           
   751  0070                     ?_I2C_Start:	
   752                           ; 1 bytes @ 0x0
   753                           
   754  0070                     ?_I2C_Stop:	
   755                           ; 1 bytes @ 0x0
   756                           
   757  0070                     ?_I2C_Read:	
   758                           ; 1 bytes @ 0x0
   759                           
   760  0070                     ?_I2C_Write:	
   761                           ; 1 bytes @ 0x0
   762                           
   763  0070                     UART_Transmit@c:	
   764                           ; 1 bytes @ 0x0
   765                           
   766                           
   767                           ; 1 bytes @ 0x0
   768  0070                     	ds	1
   769  0071                     ??_UART_Transmit_Text:
   770  0071                     ClearRX_Buffer@i:	
   771                           ; 1 bytes @ 0x1
   772                           
   773                           
   774                           ; 1 bytes @ 0x1
   775  0071                     	ds	1
   776  0072                     UART_Transmit_Text@str:
   777                           
   778                           ; 1 bytes @ 0x2
   779  0072                     	ds	1
   780  0073                     UART_Transmit_Text@i:
   781                           
   782                           ; 1 bytes @ 0x3
   783  0073                     	ds	1
   784  0074                     ??_HandleData:
   785  0074                     HandleData@RX:	
   786                           ; 1 bytes @ 0x4
   787                           
   788                           
   789                           ; 1 bytes @ 0x4
   790  0074                     	ds	1
   791  0075                     ??_isr1:
   792                           
   793                           ; 1 bytes @ 0x5
   794  0075                     	ds	4
   795  0079                     isr1@ReceivedData:
   796                           
   797                           ; 1 bytes @ 0x9
   798  0079                     	ds	1
   799                           
   800                           	psect	cstackBANK0
   801  0020                     __pcstackBANK0:
   802  0020                     ??_I2C_Init:
   803  0020                     ??_I2C_Idle:	
   804                           ; 1 bytes @ 0x0
   805                           
   806  0020                     ?_abs:	
   807                           ; 1 bytes @ 0x0
   808                           
   809  0020                     ?__Umul8_16:	
   810                           ; 2 bytes @ 0x0
   811                           
   812  0020                     ?___awdiv:	
   813                           ; 2 bytes @ 0x0
   814                           
   815  0020                     ?___aldiv:	
   816                           ; 2 bytes @ 0x0
   817                           
   818  0020                     __Umul8_16@multiplicand:	
   819                           ; 4 bytes @ 0x0
   820                           
   821  0020                     ___awdiv@divisor:	
   822                           ; 1 bytes @ 0x0
   823                           
   824  0020                     abs@a:	
   825                           ; 2 bytes @ 0x0
   826                           
   827  0020                     ___aldiv@divisor:	
   828                           ; 2 bytes @ 0x0
   829                           
   830                           
   831                           ; 4 bytes @ 0x0
   832  0020                     	ds	2
   833  0022                     ??_abs:
   834  0022                     ??__Umul8_16:	
   835                           ; 1 bytes @ 0x2
   836                           
   837  0022                     ___awdiv@dividend:	
   838                           ; 1 bytes @ 0x2
   839                           
   840                           
   841                           ; 2 bytes @ 0x2
   842  0022                     	ds	1
   843  0023                     ??_I2C_Start:
   844  0023                     ??_I2C_Stop:	
   845                           ; 1 bytes @ 0x3
   846                           
   847  0023                     ??_I2C_Read:	
   848                           ; 1 bytes @ 0x3
   849                           
   850  0023                     ??_I2C_Write:	
   851                           ; 1 bytes @ 0x3
   852                           
   853  0023                     I2C_Write@Tvalue:	
   854                           ; 1 bytes @ 0x3
   855                           
   856                           
   857                           ; 1 bytes @ 0x3
   858  0023                     	ds	1
   859  0024                     ?_MPU6050_Write:
   860  0024                     ??___awdiv:	
   861                           ; 1 bytes @ 0x4
   862                           
   863  0024                     I2C_Read@Rvalue:	
   864                           ; 1 bytes @ 0x4
   865                           
   866  0024                     MPU6050_Write@data:	
   867                           ; 1 bytes @ 0x4
   868                           
   869  0024                     __Umul8_16@product:	
   870                           ; 1 bytes @ 0x4
   871                           
   872  0024                     ___aldiv@dividend:	
   873                           ; 2 bytes @ 0x4
   874                           
   875                           
   876                           ; 4 bytes @ 0x4
   877  0024                     	ds	1
   878  0025                     ??_MPU6050_Write:
   879  0025                     I2C_Read@ACK:	
   880                           ; 1 bytes @ 0x5
   881                           
   882  0025                     MPU6050_Write@add:	
   883                           ; 1 bytes @ 0x5
   884                           
   885  0025                     ___awdiv@counter:	
   886                           ; 1 bytes @ 0x5
   887                           
   888                           
   889                           ; 1 bytes @ 0x5
   890  0025                     	ds	1
   891  0026                     ??_MPU6050_Init:
   892  0026                     ?_MPU6050_Read:	
   893                           ; 1 bytes @ 0x6
   894                           
   895  0026                     ___awdiv@sign:	
   896                           ; 2 bytes @ 0x6
   897                           
   898  0026                     __Umul8_16@word_mpld:	
   899                           ; 1 bytes @ 0x6
   900                           
   901                           
   902                           ; 2 bytes @ 0x6
   903  0026                     	ds	1
   904  0027                     ___awdiv@quotient:
   905                           
   906                           ; 2 bytes @ 0x7
   907  0027                     	ds	1
   908  0028                     ??_MPU6050_Read:
   909  0028                     ??___aldiv:	
   910                           ; 1 bytes @ 0x8
   911                           
   912  0028                     __Umul8_16@multiplier:	
   913                           ; 1 bytes @ 0x8
   914                           
   915                           
   916                           ; 1 bytes @ 0x8
   917  0028                     	ds	1
   918  0029                     ___aldiv@counter:
   919                           
   920                           ; 1 bytes @ 0x9
   921  0029                     	ds	1
   922  002A                     ___aldiv@sign:
   923  002A                     MPU6050_Read@retval:	
   924                           ; 1 bytes @ 0xA
   925                           
   926                           
   927                           ; 2 bytes @ 0xA
   928  002A                     	ds	1
   929  002B                     ___aldiv@quotient:
   930                           
   931                           ; 4 bytes @ 0xB
   932  002B                     	ds	1
   933  002C                     MPU6050_Read@add:
   934                           
   935                           ; 1 bytes @ 0xC
   936  002C                     	ds	1
   937  002D                     ?_MPU6050_GetAngle:
   938                           
   939                           ; 2 bytes @ 0xD
   940  002D                     	ds	2
   941  002F                     ??_PWM1_Init:
   942  002F                     ??_PWM2_Init:	
   943                           ; 1 bytes @ 0xF
   944                           
   945  002F                     ??_MPU6050_GetAngle:	
   946                           ; 1 bytes @ 0xF
   947                           
   948  002F                     ?___xxtofl:	
   949                           ; 1 bytes @ 0xF
   950                           
   951  002F                     ___xxtofl@val:	
   952                           ; 4 bytes @ 0xF
   953                           
   954                           
   955                           ; 4 bytes @ 0xF
   956  002F                     	ds	2
   957  0031                     MPU6050_GetAngle@Ax:
   958                           
   959                           ; 2 bytes @ 0x11
   960  0031                     	ds	2
   961  0033                     ??___xxtofl:
   962                           
   963                           ; 1 bytes @ 0x13
   964  0033                     	ds	4
   965  0037                     ___xxtofl@sign:
   966                           
   967                           ; 1 bytes @ 0x17
   968  0037                     	ds	1
   969  0038                     ___xxtofl@exp:
   970                           
   971                           ; 1 bytes @ 0x18
   972  0038                     	ds	1
   973  0039                     ___xxtofl@arg:
   974                           
   975                           ; 4 bytes @ 0x19
   976  0039                     	ds	4
   977  003D                     ?___flge:
   978  003D                     ?___fldiv:	
   979                           ; 1 bit 
   980                           
   981  003D                     ___flge@ff1:	
   982                           ; 4 bytes @ 0x1D
   983                           
   984  003D                     ___fldiv@a:	
   985                           ; 4 bytes @ 0x1D
   986                           
   987                           
   988                           ; 4 bytes @ 0x1D
   989  003D                     	ds	4
   990  0041                     ___flge@ff2:
   991  0041                     ___fldiv@b:	
   992                           ; 4 bytes @ 0x21
   993                           
   994                           
   995                           ; 4 bytes @ 0x21
   996  0041                     	ds	4
   997  0045                     ??___flge:
   998  0045                     ??___fldiv:	
   999                           ; 1 bytes @ 0x25
  1000                           
  1001                           
  1002                           ; 1 bytes @ 0x25
  1003  0045                     	ds	5
  1004  004A                     ___fldiv@rem:
  1005                           
  1006                           ; 4 bytes @ 0x2A
  1007  004A                     	ds	4
  1008  004E                     ___fldiv@sign:
  1009                           
  1010                           ; 1 bytes @ 0x2E
  1011  004E                     	ds	1
  1012  004F                     ___fldiv@new_exp:
  1013                           
  1014                           ; 2 bytes @ 0x2F
  1015  004F                     	ds	2
  1016  0051                     ___fldiv@grs:
  1017                           
  1018                           ; 4 bytes @ 0x31
  1019  0051                     	ds	4
  1020  0055                     ___fldiv@bexp:
  1021                           
  1022                           ; 1 bytes @ 0x35
  1023  0055                     	ds	1
  1024  0056                     ___fldiv@aexp:
  1025                           
  1026                           ; 1 bytes @ 0x36
  1027  0056                     	ds	1
  1028  0057                     ?___flmul:
  1029  0057                     ___flmul@b:	
  1030                           ; 4 bytes @ 0x37
  1031                           
  1032                           
  1033                           ; 4 bytes @ 0x37
  1034  0057                     	ds	4
  1035  005B                     ___flmul@a:
  1036                           
  1037                           ; 4 bytes @ 0x3B
  1038  005B                     	ds	4
  1039  005F                     ??___flmul:
  1040                           
  1041                           ; 1 bytes @ 0x3F
  1042  005F                     	ds	5
  1043  0064                     ?___fladd:
  1044  0064                     ___fladd@b:	
  1045                           ; 4 bytes @ 0x44
  1046                           
  1047                           
  1048                           ; 4 bytes @ 0x44
  1049  0064                     	ds	4
  1050  0068                     ___fladd@a:
  1051                           
  1052                           ; 4 bytes @ 0x48
  1053  0068                     	ds	4
  1054  006C                     ___fladd@signs:
  1055                           
  1056                           ; 1 bytes @ 0x4C
  1057  006C                     	ds	1
  1058  006D                     ___fladd@aexp:
  1059                           
  1060                           ; 1 bytes @ 0x4D
  1061  006D                     	ds	1
  1062  006E                     ___fladd@bexp:
  1063                           
  1064                           ; 1 bytes @ 0x4E
  1065  006E                     	ds	1
  1066  006F                     ___fladd@grs:
  1067                           
  1068                           ; 1 bytes @ 0x4F
  1069  006F                     	ds	1
  1070  0070                     ??_constrain:
  1071  0070                     ??_Speed_L:	
  1072                           ; 1 bytes @ 0x50
  1073                           
  1074  0070                     ??_Speed_R:	
  1075                           ; 1 bytes @ 0x50
  1076                           
  1077                           
  1078                           	psect	maintext
  1079  094D                     __pmaintext:	
  1080                           ; 1 bytes @ 0x50
  1081 ;;
  1082 ;;Main: autosize = 0, tempsize = 3, incstack = 0, save=0
  1083 ;;
  1084 ;; *************** function _main *****************
  1085 ;; Defined at:
  1086 ;;		line 48 in file "main.c"
  1087 ;; Parameters:    Size  Location     Type
  1088 ;;		None
  1089 ;; Auto vars:     Size  Location     Type
  1090 ;;  Angle           2   43[BANK1 ] int 
  1091 ;; Return value:  Size  Location     Type
  1092 ;;                  1    wreg      void 
  1093 ;; Registers used:
  1094 ;;		wreg, status,2, status,0, btemp+1, pclath, cstack
  1095 ;; Tracked objects:
  1096 ;;		On entry : B00/0
  1097 ;;		On exit  : 0/0
  1098 ;;		Unchanged: 0/0
  1099 ;; Data sizes:     COMMON   BANK0   BANK1   BANK3   BANK2
  1100 ;;      Params:         0       0       0       0       0
  1101 ;;      Locals:         0       0      10       0       0
  1102 ;;      Temps:          0       0       3       0       0
  1103 ;;      Totals:         0       0      13       0       0
  1104 ;;Total ram usage:       13 bytes
  1105 ;; Hardware stack levels required when called: 8
  1106 ;; This function calls:
  1107 ;;		_MPU6050_GetAngle
  1108 ;;		_MPU6050_Init
  1109 ;;		_PWM1_Init
  1110 ;;		_PWM2_Init
  1111 ;;		_Speed_L
  1112 ;;		_Speed_R
  1113 ;;		___fladd
  1114 ;;		___flmul
  1115 ;;		___fltol
  1116 ;;		___xxtofl
  1117 ;;		_constrain
  1118 ;; This function is called by:
  1119 ;;		Startup code after reset
  1120 ;; This function uses a non-reentrant model
  1121 ;;
  1122                           
  1123                           
  1124                           ;psect for function _main
  1125  094D                     _main:
  1126  094D                     l2815:	
  1127                           ;incstack = 0
  1128                           ; Regs used in _main: [wreg+status,2+status,0+btemp+1+pclath+cstack]
  1129                           
  1130                           
  1131                           ;main.c: 51:     MPU6050_Init();
  1132  094D  160A  118A  2330  120A  158A  	fcall	_MPU6050_Init
  1133                           
  1134                           ;main.c: 52:     PWM1_Init();
  1135  0952  160A  118A  2378  120A  158A  	fcall	_PWM1_Init
  1136                           
  1137                           ;main.c: 53:     PWM2_Init();
  1138  0957  160A  118A  23CC  120A  158A  	fcall	_PWM2_Init
  1139  095C                     l2817:
  1140                           
  1141                           ;main.c: 59:     {;main.c: 60:         Angle = MPU6050_GetAngle();
  1142  095C  160A  118A  2202  120A  158A  	fcall	_MPU6050_GetAngle
  1143  0961  1283               	bcf	3,5	;RP0=0, select bank0
  1144  0962  1303               	bcf	3,6	;RP1=0, select bank0
  1145  0963  082E               	movf	?_MPU6050_GetAngle+1,w
  1146  0964  1683               	bsf	3,5	;RP0=1, select bank1
  1147  0965  1303               	bcf	3,6	;RP1=0, select bank1
  1148  0966  00CC               	movwf	(main@Angle+1)^(0+128)
  1149  0967  1283               	bcf	3,5	;RP0=0, select bank0
  1150  0968  1303               	bcf	3,6	;RP1=0, select bank0
  1151  0969  082D               	movf	?_MPU6050_GetAngle,w
  1152  096A  1683               	bsf	3,5	;RP0=1, select bank1
  1153  096B  1303               	bcf	3,6	;RP1=0, select bank1
  1154  096C  00CB               	movwf	main@Angle^(0+128)
  1155  096D                     l2819:
  1156                           
  1157                           ;main.c: 61:         Offset = 0;
  1158  096D  01E5               	clrf	_Offset^(0+128)
  1159  096E  01E6               	clrf	(_Offset+1)^(0+128)
  1160  096F                     l2821:
  1161                           
  1162                           ;main.c: 62:         Vgo=0;
  1163  096F  1683               	bsf	3,5	;RP0=1, select bank3
  1164  0970  1703               	bsf	3,6	;RP1=1, select bank3
  1165  0971  0194               	clrf	_Vgo^(0+384)
  1166  0972  0195               	clrf	(_Vgo+1)^(0+384)
  1167  0973                     l2823:
  1168                           
  1169                           ;main.c: 63:         Vgo_L = 0;
  1170  0973  1683               	bsf	3,5	;RP0=1, select bank1
  1171  0974  1303               	bcf	3,6	;RP1=0, select bank1
  1172  0975  01D7               	clrf	_Vgo_L^(0+128)
  1173  0976  01D8               	clrf	(_Vgo_L+1)^(0+128)
  1174  0977                     l2825:
  1175                           
  1176                           ;main.c: 64:         Vgo_R = 0;
  1177  0977  01D5               	clrf	_Vgo_R^(0+128)
  1178  0978  01D6               	clrf	(_Vgo_R+1)^(0+128)
  1179  0979                     l2827:
  1180                           
  1181                           ;main.c: 65:         inputL = Angle + Offset - Vgo_L;
  1182  0979  084C               	movf	(main@Angle+1)^(0+128),w
  1183  097A  00EA               	movwf	(_inputL+1)^(0+128)
  1184  097B  084B               	movf	main@Angle^(0+128),w
  1185  097C  00E9               	movwf	_inputL^(0+128)
  1186  097D                     l2829:
  1187                           
  1188                           ;main.c: 66:         I_L += inputL;
  1189  097D  0869               	movf	_inputL^(0+128),w
  1190  097E  07E3               	addwf	_I_L^(0+128),f
  1191  097F  1803               	skipnc
  1192  0980  0AE4               	incf	(_I_L+1)^(0+128),f
  1193  0981  086A               	movf	(_inputL+1)^(0+128),w
  1194  0982  07E4               	addwf	(_I_L+1)^(0+128),f
  1195  0983                     l2831:
  1196                           
  1197                           ;main.c: 67:         OutputL = Kp * inputL + Ki * I_L + Kd * (inputL - input_lastL);
  1198  0983  0869               	movf	_inputL^(0+128),w
  1199  0984  1283               	bcf	3,5	;RP0=0, select bank0
  1200  0985  1303               	bcf	3,6	;RP1=0, select bank0
  1201  0986  00AF               	movwf	___xxtofl@val
  1202  0987  1683               	bsf	3,5	;RP0=1, select bank1
  1203  0988  1303               	bcf	3,6	;RP1=0, select bank1
  1204  0989  086A               	movf	(_inputL+1)^(0+128),w
  1205  098A  1283               	bcf	3,5	;RP0=0, select bank0
  1206  098B  1303               	bcf	3,6	;RP1=0, select bank0
  1207  098C  00B0               	movwf	___xxtofl@val+1
  1208  098D  3000               	movlw	0
  1209  098E  1BB0               	btfsc	___xxtofl@val+1,7
  1210  098F  30FF               	movlw	255
  1211  0990  00B1               	movwf	___xxtofl@val+2
  1212  0991  00B2               	movwf	___xxtofl@val+3
  1213  0992  3001               	movlw	1
  1214  0993  160A  118A  2672  120A  158A  	fcall	___xxtofl
  1215  0998  1283               	bcf	3,5	;RP0=0, select bank0
  1216  0999  1303               	bcf	3,6	;RP1=0, select bank0
  1217  099A  0832               	movf	?___xxtofl+3,w
  1218  099B  00DE               	movwf	___flmul@a+3
  1219  099C  0831               	movf	?___xxtofl+2,w
  1220  099D  00DD               	movwf	___flmul@a+2
  1221  099E  0830               	movf	?___xxtofl+1,w
  1222  099F  00DC               	movwf	___flmul@a+1
  1223  09A0  082F               	movf	?___xxtofl,w
  1224  09A1  00DB               	movwf	___flmul@a
  1225  09A2  3042               	movlw	66
  1226  09A3  00DA               	movwf	___flmul@b+3
  1227  09A4  3018               	movlw	24
  1228  09A5  00D9               	movwf	___flmul@b+2
  1229  09A6  3000               	movlw	0
  1230  09A7  00D8               	movwf	___flmul@b+1
  1231  09A8  3000               	movlw	0
  1232  09A9  00D7               	movwf	___flmul@b
  1233  09AA  120A  118A  2046  120A  158A  	fcall	___flmul
  1234  09AF  1283               	bcf	3,5	;RP0=0, select bank0
  1235  09B0  1303               	bcf	3,6	;RP1=0, select bank0
  1236  09B1  085A               	movf	?___flmul+3,w
  1237  09B2  00EB               	movwf	___fladd@a+3
  1238  09B3  0859               	movf	?___flmul+2,w
  1239  09B4  00EA               	movwf	___fladd@a+2
  1240  09B5  0858               	movf	?___flmul+1,w
  1241  09B6  00E9               	movwf	___fladd@a+1
  1242  09B7  0857               	movf	?___flmul,w
  1243  09B8  00E8               	movwf	___fladd@a
  1244  09B9  1683               	bsf	3,5	;RP0=1, select bank1
  1245  09BA  1303               	bcf	3,6	;RP1=0, select bank1
  1246  09BB  0863               	movf	_I_L^(0+128),w
  1247  09BC  1283               	bcf	3,5	;RP0=0, select bank0
  1248  09BD  1303               	bcf	3,6	;RP1=0, select bank0
  1249  09BE  00AF               	movwf	___xxtofl@val
  1250  09BF  1683               	bsf	3,5	;RP0=1, select bank1
  1251  09C0  1303               	bcf	3,6	;RP1=0, select bank1
  1252  09C1  0864               	movf	(_I_L+1)^(0+128),w
  1253  09C2  1283               	bcf	3,5	;RP0=0, select bank0
  1254  09C3  1303               	bcf	3,6	;RP1=0, select bank0
  1255  09C4  00B0               	movwf	___xxtofl@val+1
  1256  09C5  3000               	movlw	0
  1257  09C6  1BB0               	btfsc	___xxtofl@val+1,7
  1258  09C7  30FF               	movlw	255
  1259  09C8  00B1               	movwf	___xxtofl@val+2
  1260  09C9  00B2               	movwf	___xxtofl@val+3
  1261  09CA  3001               	movlw	1
  1262  09CB  160A  118A  2672  120A  158A  	fcall	___xxtofl
  1263  09D0  1283               	bcf	3,5	;RP0=0, select bank0
  1264  09D1  1303               	bcf	3,6	;RP1=0, select bank0
  1265  09D2  0832               	movf	?___xxtofl+3,w
  1266  09D3  00DE               	movwf	___flmul@a+3
  1267  09D4  0831               	movf	?___xxtofl+2,w
  1268  09D5  00DD               	movwf	___flmul@a+2
  1269  09D6  0830               	movf	?___xxtofl+1,w
  1270  09D7  00DC               	movwf	___flmul@a+1
  1271  09D8  082F               	movf	?___xxtofl,w
  1272  09D9  00DB               	movwf	___flmul@a
  1273  09DA  303F               	movlw	63
  1274  09DB  00DA               	movwf	___flmul@b+3
  1275  09DC  3000               	movlw	0
  1276  09DD  00D9               	movwf	___flmul@b+2
  1277  09DE  3000               	movlw	0
  1278  09DF  00D8               	movwf	___flmul@b+1
  1279  09E0  3000               	movlw	0
  1280  09E1  00D7               	movwf	___flmul@b
  1281  09E2  120A  118A  2046  120A  158A  	fcall	___flmul
  1282  09E7  1283               	bcf	3,5	;RP0=0, select bank0
  1283  09E8  1303               	bcf	3,6	;RP1=0, select bank0
  1284  09E9  085A               	movf	?___flmul+3,w
  1285  09EA  00E7               	movwf	___fladd@b+3
  1286  09EB  0859               	movf	?___flmul+2,w
  1287  09EC  00E6               	movwf	___fladd@b+2
  1288  09ED  0858               	movf	?___flmul+1,w
  1289  09EE  00E5               	movwf	___fladd@b+1
  1290  09EF  0857               	movf	?___flmul,w
  1291  09F0  00E4               	movwf	___fladd@b
  1292  09F1  120A  158A  249A  120A  158A  	fcall	___fladd
  1293  09F6  1283               	bcf	3,5	;RP0=0, select bank0
  1294  09F7  1303               	bcf	3,6	;RP1=0, select bank0
  1295  09F8  0867               	movf	?___fladd+3,w
  1296  09F9  1683               	bsf	3,5	;RP0=1, select bank1
  1297  09FA  1303               	bcf	3,6	;RP1=0, select bank1
  1298  09FB  00D0               	movwf	(_main$1254+3)^(0+128)
  1299  09FC  1283               	bcf	3,5	;RP0=0, select bank0
  1300  09FD  1303               	bcf	3,6	;RP1=0, select bank0
  1301  09FE  0866               	movf	?___fladd+2,w
  1302  09FF  1683               	bsf	3,5	;RP0=1, select bank1
  1303  0A00  1303               	bcf	3,6	;RP1=0, select bank1
  1304  0A01  00CF               	movwf	(_main$1254+2)^(0+128)
  1305  0A02  1283               	bcf	3,5	;RP0=0, select bank0
  1306  0A03  1303               	bcf	3,6	;RP1=0, select bank0
  1307  0A04  0865               	movf	?___fladd+1,w
  1308  0A05  1683               	bsf	3,5	;RP0=1, select bank1
  1309  0A06  1303               	bcf	3,6	;RP1=0, select bank1
  1310  0A07  00CE               	movwf	(_main$1254+1)^(0+128)
  1311  0A08  1283               	bcf	3,5	;RP0=0, select bank0
  1312  0A09  1303               	bcf	3,6	;RP1=0, select bank0
  1313  0A0A  0864               	movf	?___fladd,w
  1314  0A0B  1683               	bsf	3,5	;RP0=1, select bank1
  1315  0A0C  1303               	bcf	3,6	;RP1=0, select bank1
  1316  0A0D  00CD               	movwf	_main$1254^(0+128)
  1317  0A0E                     l2833:
  1318                           
  1319                           ;main.c: 67:         OutputL = Kp * inputL + Ki * I_L + Kd * (inputL - input_lastL);
  1320  0A0E  0850               	movf	(_main$1254+3)^(0+128),w
  1321  0A0F  1283               	bcf	3,5	;RP0=0, select bank0
  1322  0A10  1303               	bcf	3,6	;RP1=0, select bank0
  1323  0A11  00EB               	movwf	___fladd@a+3
  1324  0A12  1683               	bsf	3,5	;RP0=1, select bank1
  1325  0A13  1303               	bcf	3,6	;RP1=0, select bank1
  1326  0A14  084F               	movf	(_main$1254+2)^(0+128),w
  1327  0A15  1283               	bcf	3,5	;RP0=0, select bank0
  1328  0A16  1303               	bcf	3,6	;RP1=0, select bank0
  1329  0A17  00EA               	movwf	___fladd@a+2
  1330  0A18  1683               	bsf	3,5	;RP0=1, select bank1
  1331  0A19  1303               	bcf	3,6	;RP1=0, select bank1
  1332  0A1A  084E               	movf	(_main$1254+1)^(0+128),w
  1333  0A1B  1283               	bcf	3,5	;RP0=0, select bank0
  1334  0A1C  1303               	bcf	3,6	;RP1=0, select bank0
  1335  0A1D  00E9               	movwf	___fladd@a+1
  1336  0A1E  1683               	bsf	3,5	;RP0=1, select bank1
  1337  0A1F  1303               	bcf	3,6	;RP1=0, select bank1
  1338  0A20  084D               	movf	_main$1254^(0+128),w
  1339  0A21  1283               	bcf	3,5	;RP0=0, select bank0
  1340  0A22  1303               	bcf	3,6	;RP1=0, select bank0
  1341  0A23  00E8               	movwf	___fladd@a
  1342  0A24  1683               	bsf	3,5	;RP0=1, select bank1
  1343  0A25  1303               	bcf	3,6	;RP1=0, select bank1
  1344  0A26  085F               	movf	_input_lastL^(0+128),w
  1345  0A27  0269               	subwf	_inputL^(0+128),w
  1346  0A28  1283               	bcf	3,5	;RP0=0, select bank0
  1347  0A29  1303               	bcf	3,6	;RP1=0, select bank0
  1348  0A2A  00AF               	movwf	___xxtofl@val
  1349  0A2B  1683               	bsf	3,5	;RP0=1, select bank1
  1350  0A2C  1303               	bcf	3,6	;RP1=0, select bank1
  1351  0A2D  0860               	movf	(_input_lastL+1)^(0+128),w
  1352  0A2E  1C03               	skipc
  1353  0A2F  0A60               	incf	(_input_lastL+1)^(0+128),w
  1354  0A30  026A               	subwf	(_inputL+1)^(0+128),w
  1355  0A31  1283               	bcf	3,5	;RP0=0, select bank0
  1356  0A32  1303               	bcf	3,6	;RP1=0, select bank0
  1357  0A33  00B0               	movwf	___xxtofl@val+1
  1358  0A34  01B1               	clrf	___xxtofl@val+2
  1359  0A35  1BB0               	btfsc	___xxtofl@val+1,7
  1360  0A36  03B1               	decf	___xxtofl@val+2,f
  1361  0A37  0831               	movf	___xxtofl@val+2,w
  1362  0A38  00B2               	movwf	___xxtofl@val+3
  1363  0A39  3001               	movlw	1
  1364  0A3A  160A  118A  2672  120A  158A  	fcall	___xxtofl
  1365  0A3F  1283               	bcf	3,5	;RP0=0, select bank0
  1366  0A40  1303               	bcf	3,6	;RP1=0, select bank0
  1367  0A41  0832               	movf	?___xxtofl+3,w
  1368  0A42  00DE               	movwf	___flmul@a+3
  1369  0A43  0831               	movf	?___xxtofl+2,w
  1370  0A44  00DD               	movwf	___flmul@a+2
  1371  0A45  0830               	movf	?___xxtofl+1,w
  1372  0A46  00DC               	movwf	___flmul@a+1
  1373  0A47  082F               	movf	?___xxtofl,w
  1374  0A48  00DB               	movwf	___flmul@a
  1375  0A49  3000               	movlw	0
  1376  0A4A  00DA               	movwf	___flmul@b+3
  1377  0A4B  3000               	movlw	0
  1378  0A4C  00D9               	movwf	___flmul@b+2
  1379  0A4D  3000               	movlw	0
  1380  0A4E  00D8               	movwf	___flmul@b+1
  1381  0A4F  3000               	movlw	0
  1382  0A50  00D7               	movwf	___flmul@b
  1383  0A51  120A  118A  2046  120A  158A  	fcall	___flmul
  1384  0A56  1283               	bcf	3,5	;RP0=0, select bank0
  1385  0A57  1303               	bcf	3,6	;RP1=0, select bank0
  1386  0A58  085A               	movf	?___flmul+3,w
  1387  0A59  00E7               	movwf	___fladd@b+3
  1388  0A5A  0859               	movf	?___flmul+2,w
  1389  0A5B  00E6               	movwf	___fladd@b+2
  1390  0A5C  0858               	movf	?___flmul+1,w
  1391  0A5D  00E5               	movwf	___fladd@b+1
  1392  0A5E  0857               	movf	?___flmul,w
  1393  0A5F  00E4               	movwf	___fladd@b
  1394  0A60  120A  158A  249A  120A  158A  	fcall	___fladd
  1395  0A65  1283               	bcf	3,5	;RP0=0, select bank0
  1396  0A66  1303               	bcf	3,6	;RP1=0, select bank0
  1397  0A67  0867               	movf	?___fladd+3,w
  1398  0A68  1683               	bsf	3,5	;RP0=1, select bank1
  1399  0A69  1303               	bcf	3,6	;RP1=0, select bank1
  1400  0A6A  00B8               	movwf	(___fltol@f1+3)^(0+128)
  1401  0A6B  1283               	bcf	3,5	;RP0=0, select bank0
  1402  0A6C  1303               	bcf	3,6	;RP1=0, select bank0
  1403  0A6D  0866               	movf	?___fladd+2,w
  1404  0A6E  1683               	bsf	3,5	;RP0=1, select bank1
  1405  0A6F  1303               	bcf	3,6	;RP1=0, select bank1
  1406  0A70  00B7               	movwf	(___fltol@f1+2)^(0+128)
  1407  0A71  1283               	bcf	3,5	;RP0=0, select bank0
  1408  0A72  1303               	bcf	3,6	;RP1=0, select bank0
  1409  0A73  0865               	movf	?___fladd+1,w
  1410  0A74  1683               	bsf	3,5	;RP0=1, select bank1
  1411  0A75  1303               	bcf	3,6	;RP1=0, select bank1
  1412  0A76  00B6               	movwf	(___fltol@f1+1)^(0+128)
  1413  0A77  1283               	bcf	3,5	;RP0=0, select bank0
  1414  0A78  1303               	bcf	3,6	;RP1=0, select bank0
  1415  0A79  0864               	movf	?___fladd,w
  1416  0A7A  1683               	bsf	3,5	;RP0=1, select bank1
  1417  0A7B  1303               	bcf	3,6	;RP1=0, select bank1
  1418  0A7C  00B5               	movwf	___fltol@f1^(0+128)
  1419  0A7D  120A  118A  2782  120A  158A  	fcall	___fltol
  1420  0A82  1683               	bsf	3,5	;RP0=1, select bank1
  1421  0A83  1303               	bcf	3,6	;RP1=0, select bank1
  1422  0A84  0836               	movf	(?___fltol+1)^(0+128),w
  1423  0A85  00DC               	movwf	(_OutputL+1)^(0+128)
  1424  0A86  0835               	movf	?___fltol^(0+128),w
  1425  0A87  00DB               	movwf	_OutputL^(0+128)
  1426  0A88                     l2835:
  1427                           
  1428                           ;main.c: 68:         input_lastL = inputL;
  1429  0A88  086A               	movf	(_inputL+1)^(0+128),w
  1430  0A89  00E0               	movwf	(_input_lastL+1)^(0+128)
  1431  0A8A  0869               	movf	_inputL^(0+128),w
  1432  0A8B  00DF               	movwf	_input_lastL^(0+128)
  1433  0A8C                     l2837:
  1434                           
  1435                           ;main.c: 69:         if (OutputL > -100 && OutputL < 100) OutputL = 0;
  1436  0A8C  085C               	movf	(_OutputL+1)^(0+128),w
  1437  0A8D  3A80               	xorlw	128
  1438  0A8E  00FF               	movwf	btemp+1
  1439  0A8F  307F               	movlw	127
  1440  0A90  027F               	subwf	btemp+1,w
  1441  0A91  1D03               	skipz
  1442  0A92  2A95               	goto	u4145
  1443  0A93  309D               	movlw	157
  1444  0A94  025B               	subwf	_OutputL^(0+128),w
  1445  0A95                     u4145:
  1446  0A95  1C03               	skipc
  1447  0A96  2A98               	goto	u4141
  1448  0A97  2A99               	goto	u4140
  1449  0A98                     u4141:
  1450  0A98  2AAC               	goto	l2843
  1451  0A99                     u4140:
  1452  0A99                     l2839:
  1453  0A99  1683               	bsf	3,5	;RP0=1, select bank1
  1454  0A9A  1303               	bcf	3,6	;RP1=0, select bank1
  1455  0A9B  085C               	movf	(_OutputL+1)^(0+128),w
  1456  0A9C  3A80               	xorlw	128
  1457  0A9D  00FF               	movwf	btemp+1
  1458  0A9E  3080               	movlw	128
  1459  0A9F  027F               	subwf	btemp+1,w
  1460  0AA0  1D03               	skipz
  1461  0AA1  2AA4               	goto	u4155
  1462  0AA2  3064               	movlw	100
  1463  0AA3  025B               	subwf	_OutputL^(0+128),w
  1464  0AA4                     u4155:
  1465  0AA4  1803               	skipnc
  1466  0AA5  2AA7               	goto	u4151
  1467  0AA6  2AA8               	goto	u4150
  1468  0AA7                     u4151:
  1469  0AA7  2AAC               	goto	l2843
  1470  0AA8                     u4150:
  1471  0AA8                     l2841:
  1472  0AA8  1683               	bsf	3,5	;RP0=1, select bank1
  1473  0AA9  1303               	bcf	3,6	;RP1=0, select bank1
  1474  0AAA  01DB               	clrf	_OutputL^(0+128)
  1475  0AAB  01DC               	clrf	(_OutputL+1)^(0+128)
  1476  0AAC                     l2843:
  1477                           
  1478                           ;main.c: 70:         OutputL = constrain(OutputL, -1023, 1023);
  1479  0AAC  1683               	bsf	3,5	;RP0=1, select bank1
  1480  0AAD  1303               	bcf	3,6	;RP1=0, select bank1
  1481  0AAE  085B               	movf	_OutputL^(0+128),w
  1482  0AAF  1283               	bcf	3,5	;RP0=0, select bank0
  1483  0AB0  1303               	bcf	3,6	;RP1=0, select bank0
  1484  0AB1  00AF               	movwf	___xxtofl@val
  1485  0AB2  1683               	bsf	3,5	;RP0=1, select bank1
  1486  0AB3  1303               	bcf	3,6	;RP1=0, select bank1
  1487  0AB4  085C               	movf	(_OutputL+1)^(0+128),w
  1488  0AB5  1283               	bcf	3,5	;RP0=0, select bank0
  1489  0AB6  1303               	bcf	3,6	;RP1=0, select bank0
  1490  0AB7  00B0               	movwf	___xxtofl@val+1
  1491  0AB8  3000               	movlw	0
  1492  0AB9  1BB0               	btfsc	___xxtofl@val+1,7
  1493  0ABA  30FF               	movlw	255
  1494  0ABB  00B1               	movwf	___xxtofl@val+2
  1495  0ABC  00B2               	movwf	___xxtofl@val+3
  1496  0ABD  3001               	movlw	1
  1497  0ABE  160A  118A  2672  120A  158A  	fcall	___xxtofl
  1498  0AC3  1283               	bcf	3,5	;RP0=0, select bank0
  1499  0AC4  1303               	bcf	3,6	;RP1=0, select bank0
  1500  0AC5  0832               	movf	?___xxtofl+3,w
  1501  0AC6  1683               	bsf	3,5	;RP0=1, select bank1
  1502  0AC7  1303               	bcf	3,6	;RP1=0, select bank1
  1503  0AC8  00D4               	movwf	(_main$1255+3)^(0+128)
  1504  0AC9  1283               	bcf	3,5	;RP0=0, select bank0
  1505  0ACA  1303               	bcf	3,6	;RP1=0, select bank0
  1506  0ACB  0831               	movf	?___xxtofl+2,w
  1507  0ACC  1683               	bsf	3,5	;RP0=1, select bank1
  1508  0ACD  1303               	bcf	3,6	;RP1=0, select bank1
  1509  0ACE  00D3               	movwf	(_main$1255+2)^(0+128)
  1510  0ACF  1283               	bcf	3,5	;RP0=0, select bank0
  1511  0AD0  1303               	bcf	3,6	;RP1=0, select bank0
  1512  0AD1  0830               	movf	?___xxtofl+1,w
  1513  0AD2  1683               	bsf	3,5	;RP0=1, select bank1
  1514  0AD3  1303               	bcf	3,6	;RP1=0, select bank1
  1515  0AD4  00D2               	movwf	(_main$1255+1)^(0+128)
  1516  0AD5  1283               	bcf	3,5	;RP0=0, select bank0
  1517  0AD6  1303               	bcf	3,6	;RP1=0, select bank0
  1518  0AD7  082F               	movf	?___xxtofl,w
  1519  0AD8  1683               	bsf	3,5	;RP0=1, select bank1
  1520  0AD9  1303               	bcf	3,6	;RP1=0, select bank1
  1521  0ADA  00D1               	movwf	_main$1255^(0+128)
  1522  0ADB                     l2845:
  1523                           
  1524                           ;main.c: 70:         OutputL = constrain(OutputL, -1023, 1023);
  1525  0ADB  0854               	movf	(_main$1255+3)^(0+128),w
  1526  0ADC  00C3               	movwf	(constrain@a+3)^(0+128)
  1527  0ADD  0853               	movf	(_main$1255+2)^(0+128),w
  1528  0ADE  00C2               	movwf	(constrain@a+2)^(0+128)
  1529  0ADF  0852               	movf	(_main$1255+1)^(0+128),w
  1530  0AE0  00C1               	movwf	(constrain@a+1)^(0+128)
  1531  0AE1  0851               	movf	_main$1255^(0+128),w
  1532  0AE2  00C0               	movwf	constrain@a^(0+128)
  1533  0AE3  3001               	movlw	1
  1534  0AE4  00C4               	movwf	constrain@min^(0+128)
  1535  0AE5  30FC               	movlw	252
  1536  0AE6  00C5               	movwf	(constrain@min^(0+128)+1)
  1537  0AE7  30FF               	movlw	255
  1538  0AE8  00C6               	movwf	constrain@max^(0+128)
  1539  0AE9  3003               	movlw	3
  1540  0AEA  00C7               	movwf	(constrain@max^(0+128)+1)
  1541  0AEB  160A  118A  25CA  120A  158A  	fcall	_constrain
  1542  0AF0  1683               	bsf	3,5	;RP0=1, select bank1
  1543  0AF1  1303               	bcf	3,6	;RP1=0, select bank1
  1544  0AF2  0841               	movf	(?_constrain+1)^(0+128),w
  1545  0AF3  00DC               	movwf	(_OutputL+1)^(0+128)
  1546  0AF4  0840               	movf	?_constrain^(0+128),w
  1547  0AF5  00DB               	movwf	_OutputL^(0+128)
  1548  0AF6                     l2847:
  1549                           
  1550                           ;main.c: 72:         inputR = Angle + Offset - Vgo_R;
  1551  0AF6  084C               	movf	(main@Angle+1)^(0+128),w
  1552  0AF7  00E8               	movwf	(_inputR+1)^(0+128)
  1553  0AF8  084B               	movf	main@Angle^(0+128),w
  1554  0AF9  00E7               	movwf	_inputR^(0+128)
  1555  0AFA                     l2849:
  1556                           
  1557                           ;main.c: 73:         I_R += inputR;
  1558  0AFA  0867               	movf	_inputR^(0+128),w
  1559  0AFB  07E1               	addwf	_I_R^(0+128),f
  1560  0AFC  1803               	skipnc
  1561  0AFD  0AE2               	incf	(_I_R+1)^(0+128),f
  1562  0AFE  0868               	movf	(_inputR+1)^(0+128),w
  1563  0AFF  07E2               	addwf	(_I_R+1)^(0+128),f
  1564  0B00                     l2851:
  1565                           
  1566                           ;main.c: 74:         OutputR = Kp * inputR + Ki * I_R + Kd * (inputR - input_lastR);
  1567  0B00  0867               	movf	_inputR^(0+128),w
  1568  0B01  1283               	bcf	3,5	;RP0=0, select bank0
  1569  0B02  1303               	bcf	3,6	;RP1=0, select bank0
  1570  0B03  00AF               	movwf	___xxtofl@val
  1571  0B04  1683               	bsf	3,5	;RP0=1, select bank1
  1572  0B05  1303               	bcf	3,6	;RP1=0, select bank1
  1573  0B06  0868               	movf	(_inputR+1)^(0+128),w
  1574  0B07  1283               	bcf	3,5	;RP0=0, select bank0
  1575  0B08  1303               	bcf	3,6	;RP1=0, select bank0
  1576  0B09  00B0               	movwf	___xxtofl@val+1
  1577  0B0A  3000               	movlw	0
  1578  0B0B  1BB0               	btfsc	___xxtofl@val+1,7
  1579  0B0C  30FF               	movlw	255
  1580  0B0D  00B1               	movwf	___xxtofl@val+2
  1581  0B0E  00B2               	movwf	___xxtofl@val+3
  1582  0B0F  3001               	movlw	1
  1583  0B10  160A  118A  2672  120A  158A  	fcall	___xxtofl
  1584  0B15  1283               	bcf	3,5	;RP0=0, select bank0
  1585  0B16  1303               	bcf	3,6	;RP1=0, select bank0
  1586  0B17  0832               	movf	?___xxtofl+3,w
  1587  0B18  00DE               	movwf	___flmul@a+3
  1588  0B19  0831               	movf	?___xxtofl+2,w
  1589  0B1A  00DD               	movwf	___flmul@a+2
  1590  0B1B  0830               	movf	?___xxtofl+1,w
  1591  0B1C  00DC               	movwf	___flmul@a+1
  1592  0B1D  082F               	movf	?___xxtofl,w
  1593  0B1E  00DB               	movwf	___flmul@a
  1594  0B1F  3042               	movlw	66
  1595  0B20  00DA               	movwf	___flmul@b+3
  1596  0B21  3018               	movlw	24
  1597  0B22  00D9               	movwf	___flmul@b+2
  1598  0B23  3000               	movlw	0
  1599  0B24  00D8               	movwf	___flmul@b+1
  1600  0B25  3000               	movlw	0
  1601  0B26  00D7               	movwf	___flmul@b
  1602  0B27  120A  118A  2046  120A  158A  	fcall	___flmul
  1603  0B2C  1283               	bcf	3,5	;RP0=0, select bank0
  1604  0B2D  1303               	bcf	3,6	;RP1=0, select bank0
  1605  0B2E  085A               	movf	?___flmul+3,w
  1606  0B2F  00EB               	movwf	___fladd@a+3
  1607  0B30  0859               	movf	?___flmul+2,w
  1608  0B31  00EA               	movwf	___fladd@a+2
  1609  0B32  0858               	movf	?___flmul+1,w
  1610  0B33  00E9               	movwf	___fladd@a+1
  1611  0B34  0857               	movf	?___flmul,w
  1612  0B35  00E8               	movwf	___fladd@a
  1613  0B36  1683               	bsf	3,5	;RP0=1, select bank1
  1614  0B37  1303               	bcf	3,6	;RP1=0, select bank1
  1615  0B38  0861               	movf	_I_R^(0+128),w
  1616  0B39  1283               	bcf	3,5	;RP0=0, select bank0
  1617  0B3A  1303               	bcf	3,6	;RP1=0, select bank0
  1618  0B3B  00AF               	movwf	___xxtofl@val
  1619  0B3C  1683               	bsf	3,5	;RP0=1, select bank1
  1620  0B3D  1303               	bcf	3,6	;RP1=0, select bank1
  1621  0B3E  0862               	movf	(_I_R+1)^(0+128),w
  1622  0B3F  1283               	bcf	3,5	;RP0=0, select bank0
  1623  0B40  1303               	bcf	3,6	;RP1=0, select bank0
  1624  0B41  00B0               	movwf	___xxtofl@val+1
  1625  0B42  3000               	movlw	0
  1626  0B43  1BB0               	btfsc	___xxtofl@val+1,7
  1627  0B44  30FF               	movlw	255
  1628  0B45  00B1               	movwf	___xxtofl@val+2
  1629  0B46  00B2               	movwf	___xxtofl@val+3
  1630  0B47  3001               	movlw	1
  1631  0B48  160A  118A  2672  120A  158A  	fcall	___xxtofl
  1632  0B4D  1283               	bcf	3,5	;RP0=0, select bank0
  1633  0B4E  1303               	bcf	3,6	;RP1=0, select bank0
  1634  0B4F  0832               	movf	?___xxtofl+3,w
  1635  0B50  00DE               	movwf	___flmul@a+3
  1636  0B51  0831               	movf	?___xxtofl+2,w
  1637  0B52  00DD               	movwf	___flmul@a+2
  1638  0B53  0830               	movf	?___xxtofl+1,w
  1639  0B54  00DC               	movwf	___flmul@a+1
  1640  0B55  082F               	movf	?___xxtofl,w
  1641  0B56  00DB               	movwf	___flmul@a
  1642  0B57  303F               	movlw	63
  1643  0B58  00DA               	movwf	___flmul@b+3
  1644  0B59  3000               	movlw	0
  1645  0B5A  00D9               	movwf	___flmul@b+2
  1646  0B5B  3000               	movlw	0
  1647  0B5C  00D8               	movwf	___flmul@b+1
  1648  0B5D  3000               	movlw	0
  1649  0B5E  00D7               	movwf	___flmul@b
  1650  0B5F  120A  118A  2046  120A  158A  	fcall	___flmul
  1651  0B64  1283               	bcf	3,5	;RP0=0, select bank0
  1652  0B65  1303               	bcf	3,6	;RP1=0, select bank0
  1653  0B66  085A               	movf	?___flmul+3,w
  1654  0B67  00E7               	movwf	___fladd@b+3
  1655  0B68  0859               	movf	?___flmul+2,w
  1656  0B69  00E6               	movwf	___fladd@b+2
  1657  0B6A  0858               	movf	?___flmul+1,w
  1658  0B6B  00E5               	movwf	___fladd@b+1
  1659  0B6C  0857               	movf	?___flmul,w
  1660  0B6D  00E4               	movwf	___fladd@b
  1661  0B6E  120A  158A  249A  120A  158A  	fcall	___fladd
  1662  0B73  1283               	bcf	3,5	;RP0=0, select bank0
  1663  0B74  1303               	bcf	3,6	;RP1=0, select bank0
  1664  0B75  0867               	movf	?___fladd+3,w
  1665  0B76  1683               	bsf	3,5	;RP0=1, select bank1
  1666  0B77  1303               	bcf	3,6	;RP1=0, select bank1
  1667  0B78  00D0               	movwf	(_main$1254+3)^(0+128)
  1668  0B79  1283               	bcf	3,5	;RP0=0, select bank0
  1669  0B7A  1303               	bcf	3,6	;RP1=0, select bank0
  1670  0B7B  0866               	movf	?___fladd+2,w
  1671  0B7C  1683               	bsf	3,5	;RP0=1, select bank1
  1672  0B7D  1303               	bcf	3,6	;RP1=0, select bank1
  1673  0B7E  00CF               	movwf	(_main$1254+2)^(0+128)
  1674  0B7F  1283               	bcf	3,5	;RP0=0, select bank0
  1675  0B80  1303               	bcf	3,6	;RP1=0, select bank0
  1676  0B81  0865               	movf	?___fladd+1,w
  1677  0B82  1683               	bsf	3,5	;RP0=1, select bank1
  1678  0B83  1303               	bcf	3,6	;RP1=0, select bank1
  1679  0B84  00CE               	movwf	(_main$1254+1)^(0+128)
  1680  0B85  1283               	bcf	3,5	;RP0=0, select bank0
  1681  0B86  1303               	bcf	3,6	;RP1=0, select bank0
  1682  0B87  0864               	movf	?___fladd,w
  1683  0B88  1683               	bsf	3,5	;RP0=1, select bank1
  1684  0B89  1303               	bcf	3,6	;RP1=0, select bank1
  1685  0B8A  00CD               	movwf	_main$1254^(0+128)
  1686  0B8B                     l2853:
  1687                           
  1688                           ;main.c: 74:         OutputR = Kp * inputR + Ki * I_R + Kd * (inputR - input_lastR);
  1689  0B8B  0850               	movf	(_main$1254+3)^(0+128),w
  1690  0B8C  1283               	bcf	3,5	;RP0=0, select bank0
  1691  0B8D  1303               	bcf	3,6	;RP1=0, select bank0
  1692  0B8E  00EB               	movwf	___fladd@a+3
  1693  0B8F  1683               	bsf	3,5	;RP0=1, select bank1
  1694  0B90  1303               	bcf	3,6	;RP1=0, select bank1
  1695  0B91  084F               	movf	(_main$1254+2)^(0+128),w
  1696  0B92  1283               	bcf	3,5	;RP0=0, select bank0
  1697  0B93  1303               	bcf	3,6	;RP1=0, select bank0
  1698  0B94  00EA               	movwf	___fladd@a+2
  1699  0B95  1683               	bsf	3,5	;RP0=1, select bank1
  1700  0B96  1303               	bcf	3,6	;RP1=0, select bank1
  1701  0B97  084E               	movf	(_main$1254+1)^(0+128),w
  1702  0B98  1283               	bcf	3,5	;RP0=0, select bank0
  1703  0B99  1303               	bcf	3,6	;RP1=0, select bank0
  1704  0B9A  00E9               	movwf	___fladd@a+1
  1705  0B9B  1683               	bsf	3,5	;RP0=1, select bank1
  1706  0B9C  1303               	bcf	3,6	;RP1=0, select bank1
  1707  0B9D  084D               	movf	_main$1254^(0+128),w
  1708  0B9E  1283               	bcf	3,5	;RP0=0, select bank0
  1709  0B9F  1303               	bcf	3,6	;RP1=0, select bank0
  1710  0BA0  00E8               	movwf	___fladd@a
  1711  0BA1  1683               	bsf	3,5	;RP0=1, select bank1
  1712  0BA2  1303               	bcf	3,6	;RP1=0, select bank1
  1713  0BA3  085D               	movf	_input_lastR^(0+128),w
  1714  0BA4  0267               	subwf	_inputR^(0+128),w
  1715  0BA5  1283               	bcf	3,5	;RP0=0, select bank0
  1716  0BA6  1303               	bcf	3,6	;RP1=0, select bank0
  1717  0BA7  00AF               	movwf	___xxtofl@val
  1718  0BA8  1683               	bsf	3,5	;RP0=1, select bank1
  1719  0BA9  1303               	bcf	3,6	;RP1=0, select bank1
  1720  0BAA  085E               	movf	(_input_lastR+1)^(0+128),w
  1721  0BAB  1C03               	skipc
  1722  0BAC  0A5E               	incf	(_input_lastR+1)^(0+128),w
  1723  0BAD  0268               	subwf	(_inputR+1)^(0+128),w
  1724  0BAE  1283               	bcf	3,5	;RP0=0, select bank0
  1725  0BAF  1303               	bcf	3,6	;RP1=0, select bank0
  1726  0BB0  00B0               	movwf	___xxtofl@val+1
  1727  0BB1  01B1               	clrf	___xxtofl@val+2
  1728  0BB2  1BB0               	btfsc	___xxtofl@val+1,7
  1729  0BB3  03B1               	decf	___xxtofl@val+2,f
  1730  0BB4  0831               	movf	___xxtofl@val+2,w
  1731  0BB5  00B2               	movwf	___xxtofl@val+3
  1732  0BB6  3001               	movlw	1
  1733  0BB7  160A  118A  2672  120A  158A  	fcall	___xxtofl
  1734  0BBC  1283               	bcf	3,5	;RP0=0, select bank0
  1735  0BBD  1303               	bcf	3,6	;RP1=0, select bank0
  1736  0BBE  0832               	movf	?___xxtofl+3,w
  1737  0BBF  00DE               	movwf	___flmul@a+3
  1738  0BC0  0831               	movf	?___xxtofl+2,w
  1739  0BC1  00DD               	movwf	___flmul@a+2
  1740  0BC2  0830               	movf	?___xxtofl+1,w
  1741  0BC3  00DC               	movwf	___flmul@a+1
  1742  0BC4  082F               	movf	?___xxtofl,w
  1743  0BC5  00DB               	movwf	___flmul@a
  1744  0BC6  3000               	movlw	0
  1745  0BC7  00DA               	movwf	___flmul@b+3
  1746  0BC8  3000               	movlw	0
  1747  0BC9  00D9               	movwf	___flmul@b+2
  1748  0BCA  3000               	movlw	0
  1749  0BCB  00D8               	movwf	___flmul@b+1
  1750  0BCC  3000               	movlw	0
  1751  0BCD  00D7               	movwf	___flmul@b
  1752  0BCE  120A  118A  2046  120A  158A  	fcall	___flmul
  1753  0BD3  1283               	bcf	3,5	;RP0=0, select bank0
  1754  0BD4  1303               	bcf	3,6	;RP1=0, select bank0
  1755  0BD5  085A               	movf	?___flmul+3,w
  1756  0BD6  00E7               	movwf	___fladd@b+3
  1757  0BD7  0859               	movf	?___flmul+2,w
  1758  0BD8  00E6               	movwf	___fladd@b+2
  1759  0BD9  0858               	movf	?___flmul+1,w
  1760  0BDA  00E5               	movwf	___fladd@b+1
  1761  0BDB  0857               	movf	?___flmul,w
  1762  0BDC  00E4               	movwf	___fladd@b
  1763  0BDD  120A  158A  249A  120A  158A  	fcall	___fladd
  1764  0BE2  1283               	bcf	3,5	;RP0=0, select bank0
  1765  0BE3  1303               	bcf	3,6	;RP1=0, select bank0
  1766  0BE4  0867               	movf	?___fladd+3,w
  1767  0BE5  1683               	bsf	3,5	;RP0=1, select bank1
  1768  0BE6  1303               	bcf	3,6	;RP1=0, select bank1
  1769  0BE7  00B8               	movwf	(___fltol@f1+3)^(0+128)
  1770  0BE8  1283               	bcf	3,5	;RP0=0, select bank0
  1771  0BE9  1303               	bcf	3,6	;RP1=0, select bank0
  1772  0BEA  0866               	movf	?___fladd+2,w
  1773  0BEB  1683               	bsf	3,5	;RP0=1, select bank1
  1774  0BEC  1303               	bcf	3,6	;RP1=0, select bank1
  1775  0BED  00B7               	movwf	(___fltol@f1+2)^(0+128)
  1776  0BEE  1283               	bcf	3,5	;RP0=0, select bank0
  1777  0BEF  1303               	bcf	3,6	;RP1=0, select bank0
  1778  0BF0  0865               	movf	?___fladd+1,w
  1779  0BF1  1683               	bsf	3,5	;RP0=1, select bank1
  1780  0BF2  1303               	bcf	3,6	;RP1=0, select bank1
  1781  0BF3  00B6               	movwf	(___fltol@f1+1)^(0+128)
  1782  0BF4  1283               	bcf	3,5	;RP0=0, select bank0
  1783  0BF5  1303               	bcf	3,6	;RP1=0, select bank0
  1784  0BF6  0864               	movf	?___fladd,w
  1785  0BF7  1683               	bsf	3,5	;RP0=1, select bank1
  1786  0BF8  1303               	bcf	3,6	;RP1=0, select bank1
  1787  0BF9  00B5               	movwf	___fltol@f1^(0+128)
  1788  0BFA  120A  118A  2782  120A  158A  	fcall	___fltol
  1789  0BFF  1683               	bsf	3,5	;RP0=1, select bank1
  1790  0C00  1303               	bcf	3,6	;RP1=0, select bank1
  1791  0C01  0836               	movf	(?___fltol+1)^(0+128),w
  1792  0C02  00DA               	movwf	(_OutputR+1)^(0+128)
  1793  0C03  0835               	movf	?___fltol^(0+128),w
  1794  0C04  00D9               	movwf	_OutputR^(0+128)
  1795  0C05                     l2855:
  1796                           
  1797                           ;main.c: 75:         input_lastR = inputR;
  1798  0C05  0868               	movf	(_inputR+1)^(0+128),w
  1799  0C06  00DE               	movwf	(_input_lastR+1)^(0+128)
  1800  0C07  0867               	movf	_inputR^(0+128),w
  1801  0C08  00DD               	movwf	_input_lastR^(0+128)
  1802  0C09                     l2857:
  1803                           
  1804                           ;main.c: 76:         if (OutputR > -100 && OutputR < 100) OutputR = 0;
  1805  0C09  085A               	movf	(_OutputR+1)^(0+128),w
  1806  0C0A  3A80               	xorlw	128
  1807  0C0B  00FF               	movwf	btemp+1
  1808  0C0C  307F               	movlw	127
  1809  0C0D  027F               	subwf	btemp+1,w
  1810  0C0E  1D03               	skipz
  1811  0C0F  2C12               	goto	u4165
  1812  0C10  309D               	movlw	157
  1813  0C11  0259               	subwf	_OutputR^(0+128),w
  1814  0C12                     u4165:
  1815  0C12  1C03               	skipc
  1816  0C13  2C15               	goto	u4161
  1817  0C14  2C16               	goto	u4160
  1818  0C15                     u4161:
  1819  0C15  2C29               	goto	l2863
  1820  0C16                     u4160:
  1821  0C16                     l2859:
  1822  0C16  1683               	bsf	3,5	;RP0=1, select bank1
  1823  0C17  1303               	bcf	3,6	;RP1=0, select bank1
  1824  0C18  085A               	movf	(_OutputR+1)^(0+128),w
  1825  0C19  3A80               	xorlw	128
  1826  0C1A  00FF               	movwf	btemp+1
  1827  0C1B  3080               	movlw	128
  1828  0C1C  027F               	subwf	btemp+1,w
  1829  0C1D  1D03               	skipz
  1830  0C1E  2C21               	goto	u4175
  1831  0C1F  3064               	movlw	100
  1832  0C20  0259               	subwf	_OutputR^(0+128),w
  1833  0C21                     u4175:
  1834  0C21  1803               	skipnc
  1835  0C22  2C24               	goto	u4171
  1836  0C23  2C25               	goto	u4170
  1837  0C24                     u4171:
  1838  0C24  2C29               	goto	l2863
  1839  0C25                     u4170:
  1840  0C25                     l2861:
  1841  0C25  1683               	bsf	3,5	;RP0=1, select bank1
  1842  0C26  1303               	bcf	3,6	;RP1=0, select bank1
  1843  0C27  01D9               	clrf	_OutputR^(0+128)
  1844  0C28  01DA               	clrf	(_OutputR+1)^(0+128)
  1845  0C29                     l2863:
  1846                           
  1847                           ;main.c: 77:         OutputR = constrain(OutputR, -1023, 1023);
  1848  0C29  1683               	bsf	3,5	;RP0=1, select bank1
  1849  0C2A  1303               	bcf	3,6	;RP1=0, select bank1
  1850  0C2B  0859               	movf	_OutputR^(0+128),w
  1851  0C2C  1283               	bcf	3,5	;RP0=0, select bank0
  1852  0C2D  1303               	bcf	3,6	;RP1=0, select bank0
  1853  0C2E  00AF               	movwf	___xxtofl@val
  1854  0C2F  1683               	bsf	3,5	;RP0=1, select bank1
  1855  0C30  1303               	bcf	3,6	;RP1=0, select bank1
  1856  0C31  085A               	movf	(_OutputR+1)^(0+128),w
  1857  0C32  1283               	bcf	3,5	;RP0=0, select bank0
  1858  0C33  1303               	bcf	3,6	;RP1=0, select bank0
  1859  0C34  00B0               	movwf	___xxtofl@val+1
  1860  0C35  3000               	movlw	0
  1861  0C36  1BB0               	btfsc	___xxtofl@val+1,7
  1862  0C37  30FF               	movlw	255
  1863  0C38  00B1               	movwf	___xxtofl@val+2
  1864  0C39  00B2               	movwf	___xxtofl@val+3
  1865  0C3A  3001               	movlw	1
  1866  0C3B  160A  118A  2672  120A  158A  	fcall	___xxtofl
  1867  0C40  1283               	bcf	3,5	;RP0=0, select bank0
  1868  0C41  1303               	bcf	3,6	;RP1=0, select bank0
  1869  0C42  0832               	movf	?___xxtofl+3,w
  1870  0C43  1683               	bsf	3,5	;RP0=1, select bank1
  1871  0C44  1303               	bcf	3,6	;RP1=0, select bank1
  1872  0C45  00D4               	movwf	(_main$1255+3)^(0+128)
  1873  0C46  1283               	bcf	3,5	;RP0=0, select bank0
  1874  0C47  1303               	bcf	3,6	;RP1=0, select bank0
  1875  0C48  0831               	movf	?___xxtofl+2,w
  1876  0C49  1683               	bsf	3,5	;RP0=1, select bank1
  1877  0C4A  1303               	bcf	3,6	;RP1=0, select bank1
  1878  0C4B  00D3               	movwf	(_main$1255+2)^(0+128)
  1879  0C4C  1283               	bcf	3,5	;RP0=0, select bank0
  1880  0C4D  1303               	bcf	3,6	;RP1=0, select bank0
  1881  0C4E  0830               	movf	?___xxtofl+1,w
  1882  0C4F  1683               	bsf	3,5	;RP0=1, select bank1
  1883  0C50  1303               	bcf	3,6	;RP1=0, select bank1
  1884  0C51  00D2               	movwf	(_main$1255+1)^(0+128)
  1885  0C52  1283               	bcf	3,5	;RP0=0, select bank0
  1886  0C53  1303               	bcf	3,6	;RP1=0, select bank0
  1887  0C54  082F               	movf	?___xxtofl,w
  1888  0C55  1683               	bsf	3,5	;RP0=1, select bank1
  1889  0C56  1303               	bcf	3,6	;RP1=0, select bank1
  1890  0C57  00D1               	movwf	_main$1255^(0+128)
  1891  0C58                     l2865:
  1892                           
  1893                           ;main.c: 77:         OutputR = constrain(OutputR, -1023, 1023);
  1894  0C58  0854               	movf	(_main$1255+3)^(0+128),w
  1895  0C59  00C3               	movwf	(constrain@a+3)^(0+128)
  1896  0C5A  0853               	movf	(_main$1255+2)^(0+128),w
  1897  0C5B  00C2               	movwf	(constrain@a+2)^(0+128)
  1898  0C5C  0852               	movf	(_main$1255+1)^(0+128),w
  1899  0C5D  00C1               	movwf	(constrain@a+1)^(0+128)
  1900  0C5E  0851               	movf	_main$1255^(0+128),w
  1901  0C5F  00C0               	movwf	constrain@a^(0+128)
  1902  0C60  3001               	movlw	1
  1903  0C61  00C4               	movwf	constrain@min^(0+128)
  1904  0C62  30FC               	movlw	252
  1905  0C63  00C5               	movwf	(constrain@min^(0+128)+1)
  1906  0C64  30FF               	movlw	255
  1907  0C65  00C6               	movwf	constrain@max^(0+128)
  1908  0C66  3003               	movlw	3
  1909  0C67  00C7               	movwf	(constrain@max^(0+128)+1)
  1910  0C68  160A  118A  25CA  120A  158A  	fcall	_constrain
  1911  0C6D  1683               	bsf	3,5	;RP0=1, select bank1
  1912  0C6E  1303               	bcf	3,6	;RP1=0, select bank1
  1913  0C6F  0841               	movf	(?_constrain+1)^(0+128),w
  1914  0C70  00DA               	movwf	(_OutputR+1)^(0+128)
  1915  0C71  0840               	movf	?_constrain^(0+128),w
  1916  0C72  00D9               	movwf	_OutputR^(0+128)
  1917  0C73                     l2867:
  1918                           
  1919                           ;main.c: 90:         Speed_L(OutputL);
  1920  0C73  085C               	movf	(_OutputL+1)^(0+128),w
  1921  0C74  00C7               	movwf	(Speed_L@speed+1)^(0+128)
  1922  0C75  085B               	movf	_OutputL^(0+128),w
  1923  0C76  00C6               	movwf	Speed_L@speed^(0+128)
  1924  0C77  160A  118A  22AE  120A  158A  	fcall	_Speed_L
  1925  0C7C                     l2869:
  1926                           
  1927                           ;main.c: 91:         Speed_R(OutputR);
  1928  0C7C  1683               	bsf	3,5	;RP0=1, select bank1
  1929  0C7D  1303               	bcf	3,6	;RP1=0, select bank1
  1930  0C7E  085A               	movf	(_OutputR+1)^(0+128),w
  1931  0C7F  00C7               	movwf	(Speed_R@speed+1)^(0+128)
  1932  0C80  0859               	movf	_OutputR^(0+128),w
  1933  0C81  00C6               	movwf	Speed_R@speed^(0+128)
  1934  0C82  160A  118A  22EF  120A  158A  	fcall	_Speed_R
  1935  0C87                     l2871:
  1936                           
  1937                           ;main.c: 94:         _delay((unsigned long)((80)*(20000000/4000.0)));
  1938  0C87  3003               	movlw	3
  1939  0C88  1683               	bsf	3,5	;RP0=1, select bank1
  1940  0C89  1303               	bcf	3,6	;RP1=0, select bank1
  1941  0C8A  00CA               	movwf	(??_main^(0+128)+2)
  1942  0C8B  3008               	movlw	8
  1943  0C8C  00C9               	movwf	(??_main^(0+128)+1)
  1944  0C8D  3076               	movlw	118
  1945  0C8E  00C8               	movwf	??_main^(0+128)
  1946  0C8F                     u4277:
  1947  0C8F  0BC8               	decfsz	??_main^(0+128),f
  1948  0C90  2C8F               	goto	u4277
  1949  0C91  0BC9               	decfsz	(??_main^(0+128)+1),f
  1950  0C92  2C8F               	goto	u4277
  1951  0C93  0BCA               	decfsz	(??_main^(0+128)+2),f
  1952  0C94  2C8F               	goto	u4277
  1953  0C95  0000               	nop
  1954  0C96  295C               	goto	l2817
  1955  0C97  120A  118A  280E   	ljmp	start
  1956  0C9A                     __end_of_main:
  1957                           
  1958                           	psect	text1
  1959  15CA                     __ptext1:	
  1960 ;; *************** function _constrain *****************
  1961 ;; Defined at:
  1962 ;;		line 16 in file "MPU6050.c"
  1963 ;; Parameters:    Size  Location     Type
  1964 ;;  a               4   32[BANK1 ] float 
  1965 ;;  min             2   36[BANK1 ] int 
  1966 ;;  max             2   38[BANK1 ] int 
  1967 ;; Auto vars:     Size  Location     Type
  1968 ;;		None
  1969 ;; Return value:  Size  Location     Type
  1970 ;;                  2   32[BANK1 ] int 
  1971 ;; Registers used:
  1972 ;;		wreg, status,2, status,0, pclath, cstack
  1973 ;; Tracked objects:
  1974 ;;		On entry : 0/0
  1975 ;;		On exit  : 0/0
  1976 ;;		Unchanged: 0/0
  1977 ;; Data sizes:     COMMON   BANK0   BANK1   BANK3   BANK2
  1978 ;;      Params:         0       0       8       0       0
  1979 ;;      Locals:         0       0       0       0       0
  1980 ;;      Temps:          0       0       0       0       0
  1981 ;;      Totals:         0       0       8       0       0
  1982 ;;Total ram usage:        8 bytes
  1983 ;; Hardware stack levels used: 1
  1984 ;; Hardware stack levels required when called: 5
  1985 ;; This function calls:
  1986 ;;		___flge
  1987 ;;		___fltol
  1988 ;;		___xxtofl
  1989 ;; This function is called by:
  1990 ;;		_main
  1991 ;; This function uses a non-reentrant model
  1992 ;;
  1993                           
  1994                           
  1995                           ;psect for function _constrain
  1996  15CA                     _constrain:
  1997  15CA                     l2587:	
  1998                           ;incstack = 0
  1999                           ; Regs used in _constrain: [wreg+status,2+status,0+pclath+cstack]
  2000                           
  2001                           
  2002                           ;MPU6050.c: 16: int16_t constrain(float a, int16_t min, int16_t max);MPU6050.c: 17: {;MP
      +                          U6050.c: 18:     if(a < min)
  2003  15CA  1683               	bsf	3,5	;RP0=1, select bank1
  2004  15CB  1303               	bcf	3,6	;RP1=0, select bank1
  2005  15CC  0843               	movf	(constrain@a+3)^(0+128),w
  2006  15CD  1283               	bcf	3,5	;RP0=0, select bank0
  2007  15CE  1303               	bcf	3,6	;RP1=0, select bank0
  2008  15CF  00C0               	movwf	___flge@ff1+3
  2009  15D0  1683               	bsf	3,5	;RP0=1, select bank1
  2010  15D1  1303               	bcf	3,6	;RP1=0, select bank1
  2011  15D2  0842               	movf	(constrain@a+2)^(0+128),w
  2012  15D3  1283               	bcf	3,5	;RP0=0, select bank0
  2013  15D4  1303               	bcf	3,6	;RP1=0, select bank0
  2014  15D5  00BF               	movwf	___flge@ff1+2
  2015  15D6  1683               	bsf	3,5	;RP0=1, select bank1
  2016  15D7  1303               	bcf	3,6	;RP1=0, select bank1
  2017  15D8  0841               	movf	(constrain@a+1)^(0+128),w
  2018  15D9  1283               	bcf	3,5	;RP0=0, select bank0
  2019  15DA  1303               	bcf	3,6	;RP1=0, select bank0
  2020  15DB  00BE               	movwf	___flge@ff1+1
  2021  15DC  1683               	bsf	3,5	;RP0=1, select bank1
  2022  15DD  1303               	bcf	3,6	;RP1=0, select bank1
  2023  15DE  0840               	movf	constrain@a^(0+128),w
  2024  15DF  1283               	bcf	3,5	;RP0=0, select bank0
  2025  15E0  1303               	bcf	3,6	;RP1=0, select bank0
  2026  15E1  00BD               	movwf	___flge@ff1
  2027  15E2  1683               	bsf	3,5	;RP0=1, select bank1
  2028  15E3  1303               	bcf	3,6	;RP1=0, select bank1
  2029  15E4  0844               	movf	constrain@min^(0+128),w
  2030  15E5  1283               	bcf	3,5	;RP0=0, select bank0
  2031  15E6  1303               	bcf	3,6	;RP1=0, select bank0
  2032  15E7  00AF               	movwf	___xxtofl@val
  2033  15E8  1683               	bsf	3,5	;RP0=1, select bank1
  2034  15E9  1303               	bcf	3,6	;RP1=0, select bank1
  2035  15EA  0845               	movf	(constrain@min+1)^(0+128),w
  2036  15EB  1283               	bcf	3,5	;RP0=0, select bank0
  2037  15EC  1303               	bcf	3,6	;RP1=0, select bank0
  2038  15ED  00B0               	movwf	___xxtofl@val+1
  2039  15EE  3000               	movlw	0
  2040  15EF  1BB0               	btfsc	___xxtofl@val+1,7
  2041  15F0  30FF               	movlw	255
  2042  15F1  00B1               	movwf	___xxtofl@val+2
  2043  15F2  00B2               	movwf	___xxtofl@val+3
  2044  15F3  3001               	movlw	1
  2045  15F4  160A  118A  2672  160A  118A  	fcall	___xxtofl
  2046  15F9  1283               	bcf	3,5	;RP0=0, select bank0
  2047  15FA  1303               	bcf	3,6	;RP1=0, select bank0
  2048  15FB  0832               	movf	?___xxtofl+3,w
  2049  15FC  00C4               	movwf	___flge@ff2+3
  2050  15FD  0831               	movf	?___xxtofl+2,w
  2051  15FE  00C3               	movwf	___flge@ff2+2
  2052  15FF  0830               	movf	?___xxtofl+1,w
  2053  1600  00C2               	movwf	___flge@ff2+1
  2054  1601  082F               	movf	?___xxtofl,w
  2055  1602  00C1               	movwf	___flge@ff2
  2056  1603  160A  118A  2526  160A  118A  	fcall	___flge
  2057  1608  1803               	btfsc	3,0
  2058  1609  2E0B               	goto	u3651
  2059  160A  2E0C               	goto	u3650
  2060  160B                     u3651:
  2061  160B  2E13               	goto	l2595
  2062  160C                     u3650:
  2063  160C                     l2589:
  2064                           
  2065                           ;MPU6050.c: 19:     {;MPU6050.c: 20:         return min;
  2066  160C  1683               	bsf	3,5	;RP0=1, select bank1
  2067  160D  1303               	bcf	3,6	;RP1=0, select bank1
  2068  160E  0845               	movf	(constrain@min+1)^(0+128),w
  2069  160F  00C1               	movwf	(?_constrain+1)^(0+128)
  2070  1610  0844               	movf	constrain@min^(0+128),w
  2071  1611  00C0               	movwf	?_constrain^(0+128)
  2072  1612  2E71               	goto	l274
  2073  1613                     l2595:
  2074  1613  1683               	bsf	3,5	;RP0=1, select bank1
  2075  1614  1303               	bcf	3,6	;RP1=0, select bank1
  2076  1615  0846               	movf	constrain@max^(0+128),w
  2077  1616  1283               	bcf	3,5	;RP0=0, select bank0
  2078  1617  1303               	bcf	3,6	;RP1=0, select bank0
  2079  1618  00AF               	movwf	___xxtofl@val
  2080  1619  1683               	bsf	3,5	;RP0=1, select bank1
  2081  161A  1303               	bcf	3,6	;RP1=0, select bank1
  2082  161B  0847               	movf	(constrain@max+1)^(0+128),w
  2083  161C  1283               	bcf	3,5	;RP0=0, select bank0
  2084  161D  1303               	bcf	3,6	;RP1=0, select bank0
  2085  161E  00B0               	movwf	___xxtofl@val+1
  2086  161F  3000               	movlw	0
  2087  1620  1BB0               	btfsc	___xxtofl@val+1,7
  2088  1621  30FF               	movlw	255
  2089  1622  00B1               	movwf	___xxtofl@val+2
  2090  1623  00B2               	movwf	___xxtofl@val+3
  2091  1624  3001               	movlw	1
  2092  1625  160A  118A  2672  160A  118A  	fcall	___xxtofl
  2093  162A  1283               	bcf	3,5	;RP0=0, select bank0
  2094  162B  1303               	bcf	3,6	;RP1=0, select bank0
  2095  162C  0832               	movf	?___xxtofl+3,w
  2096  162D  00C0               	movwf	___flge@ff1+3
  2097  162E  0831               	movf	?___xxtofl+2,w
  2098  162F  00BF               	movwf	___flge@ff1+2
  2099  1630  0830               	movf	?___xxtofl+1,w
  2100  1631  00BE               	movwf	___flge@ff1+1
  2101  1632  082F               	movf	?___xxtofl,w
  2102  1633  00BD               	movwf	___flge@ff1
  2103  1634  1683               	bsf	3,5	;RP0=1, select bank1
  2104  1635  1303               	bcf	3,6	;RP1=0, select bank1
  2105  1636  0843               	movf	(constrain@a+3)^(0+128),w
  2106  1637  1283               	bcf	3,5	;RP0=0, select bank0
  2107  1638  1303               	bcf	3,6	;RP1=0, select bank0
  2108  1639  00C4               	movwf	___flge@ff2+3
  2109  163A  1683               	bsf	3,5	;RP0=1, select bank1
  2110  163B  1303               	bcf	3,6	;RP1=0, select bank1
  2111  163C  0842               	movf	(constrain@a+2)^(0+128),w
  2112  163D  1283               	bcf	3,5	;RP0=0, select bank0
  2113  163E  1303               	bcf	3,6	;RP1=0, select bank0
  2114  163F  00C3               	movwf	___flge@ff2+2
  2115  1640  1683               	bsf	3,5	;RP0=1, select bank1
  2116  1641  1303               	bcf	3,6	;RP1=0, select bank1
  2117  1642  0841               	movf	(constrain@a+1)^(0+128),w
  2118  1643  1283               	bcf	3,5	;RP0=0, select bank0
  2119  1644  1303               	bcf	3,6	;RP1=0, select bank0
  2120  1645  00C2               	movwf	___flge@ff2+1
  2121  1646  1683               	bsf	3,5	;RP0=1, select bank1
  2122  1647  1303               	bcf	3,6	;RP1=0, select bank1
  2123  1648  0840               	movf	constrain@a^(0+128),w
  2124  1649  1283               	bcf	3,5	;RP0=0, select bank0
  2125  164A  1303               	bcf	3,6	;RP1=0, select bank0
  2126  164B  00C1               	movwf	___flge@ff2
  2127  164C  160A  118A  2526  160A  118A  	fcall	___flge
  2128  1651  1803               	btfsc	3,0
  2129  1652  2E54               	goto	u3661
  2130  1653  2E55               	goto	u3660
  2131  1654                     u3661:
  2132  1654  2E5C               	goto	l2601
  2133  1655                     u3660:
  2134  1655                     l2597:
  2135                           
  2136                           ;MPU6050.c: 23:     {;MPU6050.c: 24:         return max;
  2137  1655  1683               	bsf	3,5	;RP0=1, select bank1
  2138  1656  1303               	bcf	3,6	;RP1=0, select bank1
  2139  1657  0847               	movf	(constrain@max+1)^(0+128),w
  2140  1658  00C1               	movwf	(?_constrain+1)^(0+128)
  2141  1659  0846               	movf	constrain@max^(0+128),w
  2142  165A  00C0               	movwf	?_constrain^(0+128)
  2143  165B  2E71               	goto	l274
  2144  165C                     l2601:
  2145                           
  2146                           ;MPU6050.c: 26:     return a;
  2147  165C  1683               	bsf	3,5	;RP0=1, select bank1
  2148  165D  1303               	bcf	3,6	;RP1=0, select bank1
  2149  165E  0843               	movf	(constrain@a+3)^(0+128),w
  2150  165F  00B8               	movwf	(___fltol@f1+3)^(0+128)
  2151  1660  0842               	movf	(constrain@a+2)^(0+128),w
  2152  1661  00B7               	movwf	(___fltol@f1+2)^(0+128)
  2153  1662  0841               	movf	(constrain@a+1)^(0+128),w
  2154  1663  00B6               	movwf	(___fltol@f1+1)^(0+128)
  2155  1664  0840               	movf	constrain@a^(0+128),w
  2156  1665  00B5               	movwf	___fltol@f1^(0+128)
  2157  1666  120A  118A  2782  160A  118A  	fcall	___fltol
  2158  166B  1683               	bsf	3,5	;RP0=1, select bank1
  2159  166C  1303               	bcf	3,6	;RP1=0, select bank1
  2160  166D  0836               	movf	(?___fltol+1)^(0+128),w
  2161  166E  00C1               	movwf	(?_constrain+1)^(0+128)
  2162  166F  0835               	movf	?___fltol^(0+128),w
  2163  1670  00C0               	movwf	?_constrain^(0+128)
  2164  1671                     l274:
  2165  1671  0008               	return
  2166  1672                     __end_of_constrain:
  2167                           
  2168                           	psect	text2
  2169  1526                     __ptext2:	
  2170 ;; *************** function ___flge *****************
  2171 ;; Defined at:
  2172 ;;		line 4 in file "D:\File Install MBLAB IDE\XC8\pic\sources\c90\common\flge.c"
  2173 ;; Parameters:    Size  Location     Type
  2174 ;;  ff1             4   29[BANK0 ] int 
  2175 ;;  ff2             4   33[BANK0 ] int 
  2176 ;; Auto vars:     Size  Location     Type
  2177 ;;		None
  2178 ;; Return value:  Size  Location     Type
  2179 ;;		None               void
  2180 ;; Registers used:
  2181 ;;		wreg, status,2, status,0
  2182 ;; Tracked objects:
  2183 ;;		On entry : 0/0
  2184 ;;		On exit  : 0/0
  2185 ;;		Unchanged: 0/0
  2186 ;; Data sizes:     COMMON   BANK0   BANK1   BANK3   BANK2
  2187 ;;      Params:         0       8       0       0       0
  2188 ;;      Locals:         0       0       0       0       0
  2189 ;;      Temps:          0       4       0       0       0
  2190 ;;      Totals:         0      12       0       0       0
  2191 ;;Total ram usage:       12 bytes
  2192 ;; Hardware stack levels used: 1
  2193 ;; Hardware stack levels required when called: 4
  2194 ;; This function calls:
  2195 ;;		Nothing
  2196 ;; This function is called by:
  2197 ;;		_constrain
  2198 ;; This function uses a non-reentrant model
  2199 ;;
  2200                           
  2201                           
  2202                           ;psect for function ___flge
  2203  1526                     ___flge:
  2204  1526                     l2493:	
  2205                           ;incstack = 0
  2206                           ; Regs used in ___flge: [wreg+status,2+status,0]
  2207                           
  2208  1526  3000               	movlw	0
  2209  1527  1283               	bcf	3,5	;RP0=0, select bank0
  2210  1528  1303               	bcf	3,6	;RP1=0, select bank0
  2211  1529  053D               	andwf	___flge@ff1,w
  2212  152A  00C5               	movwf	??___flge
  2213  152B  3000               	movlw	0
  2214  152C  053E               	andwf	___flge@ff1+1,w
  2215  152D  00C6               	movwf	??___flge+1
  2216  152E  3080               	movlw	128
  2217  152F  053F               	andwf	___flge@ff1+2,w
  2218  1530  00C7               	movwf	??___flge+2
  2219  1531  307F               	movlw	127
  2220  1532  0540               	andwf	___flge@ff1+3,w
  2221  1533  00C8               	movwf	??___flge+3
  2222  1534  0848               	movf	??___flge+3,w
  2223  1535  0447               	iorwf	??___flge+2,w
  2224  1536  0446               	iorwf	??___flge+1,w
  2225  1537  0445               	iorwf	??___flge,w
  2226  1538  1D03               	skipz
  2227  1539  2D3B               	goto	u3501
  2228  153A  2D3C               	goto	u3500
  2229  153B                     u3501:
  2230  153B  2D44               	goto	l571
  2231  153C                     u3500:
  2232  153C                     l2495:
  2233  153C  3000               	movlw	0
  2234  153D  00C0               	movwf	___flge@ff1+3
  2235  153E  3000               	movlw	0
  2236  153F  00BF               	movwf	___flge@ff1+2
  2237  1540  3000               	movlw	0
  2238  1541  00BE               	movwf	___flge@ff1+1
  2239  1542  3000               	movlw	0
  2240  1543  00BD               	movwf	___flge@ff1
  2241  1544                     l571:
  2242  1544  3000               	movlw	0
  2243  1545  0541               	andwf	___flge@ff2,w
  2244  1546  00C5               	movwf	??___flge
  2245  1547  3000               	movlw	0
  2246  1548  0542               	andwf	___flge@ff2+1,w
  2247  1549  00C6               	movwf	??___flge+1
  2248  154A  3080               	movlw	128
  2249  154B  0543               	andwf	___flge@ff2+2,w
  2250  154C  00C7               	movwf	??___flge+2
  2251  154D  307F               	movlw	127
  2252  154E  0544               	andwf	___flge@ff2+3,w
  2253  154F  00C8               	movwf	??___flge+3
  2254  1550  0848               	movf	??___flge+3,w
  2255  1551  0447               	iorwf	??___flge+2,w
  2256  1552  0446               	iorwf	??___flge+1,w
  2257  1553  0445               	iorwf	??___flge,w
  2258  1554  1D03               	skipz
  2259  1555  2D57               	goto	u3511
  2260  1556  2D58               	goto	u3510
  2261  1557                     u3511:
  2262  1557  2D60               	goto	l2499
  2263  1558                     u3510:
  2264  1558                     l2497:
  2265  1558  3000               	movlw	0
  2266  1559  00C4               	movwf	___flge@ff2+3
  2267  155A  3000               	movlw	0
  2268  155B  00C3               	movwf	___flge@ff2+2
  2269  155C  3000               	movlw	0
  2270  155D  00C2               	movwf	___flge@ff2+1
  2271  155E  3000               	movlw	0
  2272  155F  00C1               	movwf	___flge@ff2
  2273  1560                     l2499:
  2274  1560  1FC0               	btfss	___flge@ff1+3,7
  2275  1561  2D63               	goto	u3521
  2276  1562  2D64               	goto	u3520
  2277  1563                     u3521:
  2278  1563  2D88               	goto	l2503
  2279  1564                     u3520:
  2280  1564                     l2501:
  2281  1564  3000               	movlw	0
  2282  1565  00C5               	movwf	??___flge
  2283  1566  3000               	movlw	0
  2284  1567  00C6               	movwf	??___flge+1
  2285  1568  3000               	movlw	0
  2286  1569  00C7               	movwf	??___flge+2
  2287  156A  3080               	movlw	128
  2288  156B  00C8               	movwf	??___flge+3
  2289  156C  083D               	movf	___flge@ff1,w
  2290  156D  02C5               	subwf	??___flge,f
  2291  156E  083E               	movf	___flge@ff1+1,w
  2292  156F  1C03               	skipc
  2293  1570  0F3E               	incfsz	___flge@ff1+1,w
  2294  1571  2D73               	goto	u3531
  2295  1572  2D74               	goto	u3532
  2296  1573                     u3531:
  2297  1573  02C6               	subwf	??___flge+1,f
  2298  1574                     u3532:
  2299  1574  083F               	movf	___flge@ff1+2,w
  2300  1575  1C03               	skipc
  2301  1576  0F3F               	incfsz	___flge@ff1+2,w
  2302  1577  2D79               	goto	u3533
  2303  1578  2D7A               	goto	u3534
  2304  1579                     u3533:
  2305  1579  02C7               	subwf	??___flge+2,f
  2306  157A                     u3534:
  2307  157A  0840               	movf	___flge@ff1+3,w
  2308  157B  1C03               	skipc
  2309  157C  0F40               	incfsz	___flge@ff1+3,w
  2310  157D  2D7F               	goto	u3535
  2311  157E  2D80               	goto	u3536
  2312  157F                     u3535:
  2313  157F  02C8               	subwf	??___flge+3,f
  2314  1580                     u3536:
  2315  1580  0848               	movf	??___flge+3,w
  2316  1581  00C0               	movwf	___flge@ff1+3
  2317  1582  0847               	movf	??___flge+2,w
  2318  1583  00BF               	movwf	___flge@ff1+2
  2319  1584  0846               	movf	??___flge+1,w
  2320  1585  00BE               	movwf	___flge@ff1+1
  2321  1586  0845               	movf	??___flge,w
  2322  1587  00BD               	movwf	___flge@ff1
  2323  1588                     l2503:
  2324  1588  1FC4               	btfss	___flge@ff2+3,7
  2325  1589  2D8B               	goto	u3541
  2326  158A  2D8C               	goto	u3540
  2327  158B                     u3541:
  2328  158B  2DB0               	goto	l574
  2329  158C                     u3540:
  2330  158C                     l2505:
  2331  158C  3000               	movlw	0
  2332  158D  00C5               	movwf	??___flge
  2333  158E  3000               	movlw	0
  2334  158F  00C6               	movwf	??___flge+1
  2335  1590  3000               	movlw	0
  2336  1591  00C7               	movwf	??___flge+2
  2337  1592  3080               	movlw	128
  2338  1593  00C8               	movwf	??___flge+3
  2339  1594  0841               	movf	___flge@ff2,w
  2340  1595  02C5               	subwf	??___flge,f
  2341  1596  0842               	movf	___flge@ff2+1,w
  2342  1597  1C03               	skipc
  2343  1598  0F42               	incfsz	___flge@ff2+1,w
  2344  1599  2D9B               	goto	u3551
  2345  159A  2D9C               	goto	u3552
  2346  159B                     u3551:
  2347  159B  02C6               	subwf	??___flge+1,f
  2348  159C                     u3552:
  2349  159C  0843               	movf	___flge@ff2+2,w
  2350  159D  1C03               	skipc
  2351  159E  0F43               	incfsz	___flge@ff2+2,w
  2352  159F  2DA1               	goto	u3553
  2353  15A0  2DA2               	goto	u3554
  2354  15A1                     u3553:
  2355  15A1  02C7               	subwf	??___flge+2,f
  2356  15A2                     u3554:
  2357  15A2  0844               	movf	___flge@ff2+3,w
  2358  15A3  1C03               	skipc
  2359  15A4  0F44               	incfsz	___flge@ff2+3,w
  2360  15A5  2DA7               	goto	u3555
  2361  15A6  2DA8               	goto	u3556
  2362  15A7                     u3555:
  2363  15A7  02C8               	subwf	??___flge+3,f
  2364  15A8                     u3556:
  2365  15A8  0848               	movf	??___flge+3,w
  2366  15A9  00C4               	movwf	___flge@ff2+3
  2367  15AA  0847               	movf	??___flge+2,w
  2368  15AB  00C3               	movwf	___flge@ff2+2
  2369  15AC  0846               	movf	??___flge+1,w
  2370  15AD  00C2               	movwf	___flge@ff2+1
  2371  15AE  0845               	movf	??___flge,w
  2372  15AF  00C1               	movwf	___flge@ff2
  2373  15B0                     l574:
  2374  15B0  3080               	movlw	128
  2375  15B1  06C0               	xorwf	___flge@ff1+3,f
  2376  15B2  3080               	movlw	128
  2377  15B3  06C4               	xorwf	___flge@ff2+3,f
  2378  15B4  0844               	movf	___flge@ff2+3,w
  2379  15B5  0240               	subwf	___flge@ff1+3,w
  2380  15B6  1D03               	skipz
  2381  15B7  2DC2               	goto	u3565
  2382  15B8  0843               	movf	___flge@ff2+2,w
  2383  15B9  023F               	subwf	___flge@ff1+2,w
  2384  15BA  1D03               	skipz
  2385  15BB  2DC2               	goto	u3565
  2386  15BC  0842               	movf	___flge@ff2+1,w
  2387  15BD  023E               	subwf	___flge@ff1+1,w
  2388  15BE  1D03               	skipz
  2389  15BF  2DC2               	goto	u3565
  2390  15C0  0841               	movf	___flge@ff2,w
  2391  15C1  023D               	subwf	___flge@ff1,w
  2392  15C2                     u3565:
  2393  15C2  1803               	skipnc
  2394  15C3  2DC5               	goto	u3561
  2395  15C4  2DC6               	goto	u3560
  2396  15C5                     u3561:
  2397  15C5  2DC8               	goto	l2509
  2398  15C6                     u3560:
  2399  15C6                     l2507:
  2400  15C6  1003               	clrc
  2401  15C7  2DC9               	goto	l575
  2402  15C8                     l2509:
  2403  15C8  1403               	setc
  2404  15C9                     l575:
  2405  15C9  0008               	return
  2406  15CA                     __end_of___flge:
  2407                           
  2408                           	psect	text3
  2409  0C9A                     __ptext3:	
  2410 ;; *************** function ___fladd *****************
  2411 ;; Defined at:
  2412 ;;		line 10 in file "D:\File Install MBLAB IDE\XC8\pic\sources\c90\common\sprcadd.c"
  2413 ;; Parameters:    Size  Location     Type
  2414 ;;  b               4   68[BANK0 ] int 
  2415 ;;  a               4   72[BANK0 ] int 
  2416 ;; Auto vars:     Size  Location     Type
  2417 ;;  grs             1   79[BANK0 ] unsigned char 
  2418 ;;  bexp            1   78[BANK0 ] unsigned char 
  2419 ;;  aexp            1   77[BANK0 ] unsigned char 
  2420 ;;  signs           1   76[BANK0 ] unsigned char 
  2421 ;; Return value:  Size  Location     Type
  2422 ;;                  4   68[BANK0 ] unsigned char 
  2423 ;; Registers used:
  2424 ;;		wreg, status,2, status,0, btemp+1
  2425 ;; Tracked objects:
  2426 ;;		On entry : 0/0
  2427 ;;		On exit  : 0/0
  2428 ;;		Unchanged: 0/0
  2429 ;; Data sizes:     COMMON   BANK0   BANK1   BANK3   BANK2
  2430 ;;      Params:         0       8       0       0       0
  2431 ;;      Locals:         0       4       0       0       0
  2432 ;;      Temps:          0       0       8       0       0
  2433 ;;      Totals:         0      12       8       0       0
  2434 ;;Total ram usage:       20 bytes
  2435 ;; Hardware stack levels used: 1
  2436 ;; Hardware stack levels required when called: 4
  2437 ;; This function calls:
  2438 ;;		Nothing
  2439 ;; This function is called by:
  2440 ;;		_main
  2441 ;; This function uses a non-reentrant model
  2442 ;;
  2443                           
  2444                           
  2445                           ;psect for function ___fladd
  2446  0C9A                     ___fladd:
  2447  0C9A                     l2621:	
  2448                           ;incstack = 0
  2449                           ; Regs used in ___fladd: [wreg+status,2+status,0+btemp+1]
  2450                           
  2451  0C9A  1283               	bcf	3,5	;RP0=0, select bank0
  2452  0C9B  1303               	bcf	3,6	;RP1=0, select bank0
  2453  0C9C  0867               	movf	___fladd@b+3,w
  2454  0C9D  3980               	andlw	128
  2455  0C9E  1683               	bsf	3,5	;RP0=1, select bank1
  2456  0C9F  1303               	bcf	3,6	;RP1=0, select bank1
  2457  0CA0  00AD               	movwf	??___fladd^(0+128)
  2458  0CA1  082D               	movf	??___fladd^(0+128),w
  2459  0CA2  1283               	bcf	3,5	;RP0=0, select bank0
  2460  0CA3  1303               	bcf	3,6	;RP1=0, select bank0
  2461  0CA4  00EC               	movwf	___fladd@signs
  2462  0CA5                     l2623:
  2463  0CA5  0867               	movf	___fladd@b+3,w
  2464  0CA6  1683               	bsf	3,5	;RP0=1, select bank1
  2465  0CA7  1303               	bcf	3,6	;RP1=0, select bank1
  2466  0CA8  00AD               	movwf	??___fladd^(0+128)
  2467  0CA9  072D               	addwf	??___fladd^(0+128),w
  2468  0CAA  00AE               	movwf	(??___fladd+1)^(0+128)
  2469  0CAB  082E               	movf	(??___fladd+1)^(0+128),w
  2470  0CAC  1283               	bcf	3,5	;RP0=0, select bank0
  2471  0CAD  1303               	bcf	3,6	;RP1=0, select bank0
  2472  0CAE  00EE               	movwf	___fladd@bexp
  2473  0CAF                     l2625:
  2474  0CAF  1FE6               	btfss	___fladd@b+2,7
  2475  0CB0  2CB2               	goto	u3681
  2476  0CB1  2CB3               	goto	u3680
  2477  0CB2                     u3681:
  2478  0CB2  2CB4               	goto	l2629
  2479  0CB3                     u3680:
  2480  0CB3                     l2627:
  2481  0CB3  146E               	bsf	___fladd@bexp,0
  2482  0CB4                     l2629:
  2483  0CB4  086E               	movf	___fladd@bexp,w
  2484  0CB5  1903               	btfsc	3,2
  2485  0CB6  2CB8               	goto	u3691
  2486  0CB7  2CB9               	goto	u3690
  2487  0CB8                     u3691:
  2488  0CB8  2CC9               	goto	l2639
  2489  0CB9                     u3690:
  2490  0CB9                     l2631:
  2491  0CB9  0A6E               	incf	___fladd@bexp,w
  2492  0CBA  1D03               	btfss	3,2
  2493  0CBB  2CBD               	goto	u3701
  2494  0CBC  2CBE               	goto	u3700
  2495  0CBD                     u3701:
  2496  0CBD  2CC6               	goto	l2635
  2497  0CBE                     u3700:
  2498  0CBE                     l2633:
  2499  0CBE  3000               	movlw	0
  2500  0CBF  00E7               	movwf	___fladd@b+3
  2501  0CC0  3000               	movlw	0
  2502  0CC1  00E6               	movwf	___fladd@b+2
  2503  0CC2  3000               	movlw	0
  2504  0CC3  00E5               	movwf	___fladd@b+1
  2505  0CC4  3000               	movlw	0
  2506  0CC5  00E4               	movwf	___fladd@b
  2507  0CC6                     l2635:
  2508  0CC6  17E6               	bsf	___fladd@b+2,7
  2509  0CC7                     l2637:
  2510  0CC7  01E7               	clrf	___fladd@b+3
  2511  0CC8  2CD1               	goto	l2641
  2512  0CC9                     l2639:
  2513  0CC9  3000               	movlw	0
  2514  0CCA  00E7               	movwf	___fladd@b+3
  2515  0CCB  3000               	movlw	0
  2516  0CCC  00E6               	movwf	___fladd@b+2
  2517  0CCD  3000               	movlw	0
  2518  0CCE  00E5               	movwf	___fladd@b+1
  2519  0CCF  3000               	movlw	0
  2520  0CD0  00E4               	movwf	___fladd@b
  2521  0CD1                     l2641:
  2522  0CD1  086B               	movf	___fladd@a+3,w
  2523  0CD2  3980               	andlw	128
  2524  0CD3  1683               	bsf	3,5	;RP0=1, select bank1
  2525  0CD4  1303               	bcf	3,6	;RP1=0, select bank1
  2526  0CD5  00AD               	movwf	??___fladd^(0+128)
  2527  0CD6  082D               	movf	??___fladd^(0+128),w
  2528  0CD7  1283               	bcf	3,5	;RP0=0, select bank0
  2529  0CD8  1303               	bcf	3,6	;RP1=0, select bank0
  2530  0CD9  00ED               	movwf	___fladd@aexp
  2531  0CDA                     l2643:
  2532  0CDA  086D               	movf	___fladd@aexp,w
  2533  0CDB  066C               	xorwf	___fladd@signs,w
  2534  0CDC  1903               	skipnz
  2535  0CDD  2CDF               	goto	u3711
  2536  0CDE  2CE0               	goto	u3710
  2537  0CDF                     u3711:
  2538  0CDF  2CE1               	goto	l2647
  2539  0CE0                     u3710:
  2540  0CE0                     l2645:
  2541  0CE0  176C               	bsf	___fladd@signs,6
  2542  0CE1                     l2647:
  2543  0CE1  086B               	movf	___fladd@a+3,w
  2544  0CE2  1683               	bsf	3,5	;RP0=1, select bank1
  2545  0CE3  1303               	bcf	3,6	;RP1=0, select bank1
  2546  0CE4  00AD               	movwf	??___fladd^(0+128)
  2547  0CE5  072D               	addwf	??___fladd^(0+128),w
  2548  0CE6  00AE               	movwf	(??___fladd+1)^(0+128)
  2549  0CE7  082E               	movf	(??___fladd+1)^(0+128),w
  2550  0CE8  1283               	bcf	3,5	;RP0=0, select bank0
  2551  0CE9  1303               	bcf	3,6	;RP1=0, select bank0
  2552  0CEA  00ED               	movwf	___fladd@aexp
  2553  0CEB                     l2649:
  2554  0CEB  1FEA               	btfss	___fladd@a+2,7
  2555  0CEC  2CEE               	goto	u3721
  2556  0CED  2CEF               	goto	u3720
  2557  0CEE                     u3721:
  2558  0CEE  2CF0               	goto	l2653
  2559  0CEF                     u3720:
  2560  0CEF                     l2651:
  2561  0CEF  146D               	bsf	___fladd@aexp,0
  2562  0CF0                     l2653:
  2563  0CF0  086D               	movf	___fladd@aexp,w
  2564  0CF1  1903               	btfsc	3,2
  2565  0CF2  2CF4               	goto	u3731
  2566  0CF3  2CF5               	goto	u3730
  2567  0CF4                     u3731:
  2568  0CF4  2D05               	goto	l2663
  2569  0CF5                     u3730:
  2570  0CF5                     l2655:
  2571  0CF5  0A6D               	incf	___fladd@aexp,w
  2572  0CF6  1D03               	btfss	3,2
  2573  0CF7  2CF9               	goto	u3741
  2574  0CF8  2CFA               	goto	u3740
  2575  0CF9                     u3741:
  2576  0CF9  2D02               	goto	l2659
  2577  0CFA                     u3740:
  2578  0CFA                     l2657:
  2579  0CFA  3000               	movlw	0
  2580  0CFB  00EB               	movwf	___fladd@a+3
  2581  0CFC  3000               	movlw	0
  2582  0CFD  00EA               	movwf	___fladd@a+2
  2583  0CFE  3000               	movlw	0
  2584  0CFF  00E9               	movwf	___fladd@a+1
  2585  0D00  3000               	movlw	0
  2586  0D01  00E8               	movwf	___fladd@a
  2587  0D02                     l2659:
  2588  0D02  17EA               	bsf	___fladd@a+2,7
  2589  0D03                     l2661:
  2590  0D03  01EB               	clrf	___fladd@a+3
  2591  0D04  2D0D               	goto	l690
  2592  0D05                     l2663:
  2593  0D05  3000               	movlw	0
  2594  0D06  00EB               	movwf	___fladd@a+3
  2595  0D07  3000               	movlw	0
  2596  0D08  00EA               	movwf	___fladd@a+2
  2597  0D09  3000               	movlw	0
  2598  0D0A  00E9               	movwf	___fladd@a+1
  2599  0D0B  3000               	movlw	0
  2600  0D0C  00E8               	movwf	___fladd@a
  2601  0D0D                     l690:
  2602  0D0D  086E               	movf	___fladd@bexp,w
  2603  0D0E  026D               	subwf	___fladd@aexp,w
  2604  0D0F  1803               	skipnc
  2605  0D10  2D12               	goto	u3751
  2606  0D11  2D13               	goto	u3750
  2607  0D12                     u3751:
  2608  0D12  2D97               	goto	l2699
  2609  0D13                     u3750:
  2610  0D13                     l2665:
  2611  0D13  1F6C               	btfss	___fladd@signs,6
  2612  0D14  2D16               	goto	u3761
  2613  0D15  2D17               	goto	u3760
  2614  0D16                     u3761:
  2615  0D16  2D1F               	goto	l2669
  2616  0D17                     u3760:
  2617  0D17                     l2667:
  2618  0D17  3080               	movlw	128
  2619  0D18  1683               	bsf	3,5	;RP0=1, select bank1
  2620  0D19  1303               	bcf	3,6	;RP1=0, select bank1
  2621  0D1A  00AD               	movwf	??___fladd^(0+128)
  2622  0D1B  082D               	movf	??___fladd^(0+128),w
  2623  0D1C  1283               	bcf	3,5	;RP0=0, select bank0
  2624  0D1D  1303               	bcf	3,6	;RP1=0, select bank0
  2625  0D1E  06EC               	xorwf	___fladd@signs,f
  2626  0D1F                     l2669:
  2627  0D1F  086E               	movf	___fladd@bexp,w
  2628  0D20  1683               	bsf	3,5	;RP0=1, select bank1
  2629  0D21  1303               	bcf	3,6	;RP1=0, select bank1
  2630  0D22  00AD               	movwf	??___fladd^(0+128)
  2631  0D23  082D               	movf	??___fladd^(0+128),w
  2632  0D24  1283               	bcf	3,5	;RP0=0, select bank0
  2633  0D25  1303               	bcf	3,6	;RP1=0, select bank0
  2634  0D26  00EF               	movwf	___fladd@grs
  2635  0D27                     l2671:
  2636  0D27  086D               	movf	___fladd@aexp,w
  2637  0D28  1683               	bsf	3,5	;RP0=1, select bank1
  2638  0D29  1303               	bcf	3,6	;RP1=0, select bank1
  2639  0D2A  00AD               	movwf	??___fladd^(0+128)
  2640  0D2B  082D               	movf	??___fladd^(0+128),w
  2641  0D2C  1283               	bcf	3,5	;RP0=0, select bank0
  2642  0D2D  1303               	bcf	3,6	;RP1=0, select bank0
  2643  0D2E  00EE               	movwf	___fladd@bexp
  2644  0D2F                     l2673:
  2645  0D2F  086F               	movf	___fladd@grs,w
  2646  0D30  1683               	bsf	3,5	;RP0=1, select bank1
  2647  0D31  1303               	bcf	3,6	;RP1=0, select bank1
  2648  0D32  00AD               	movwf	??___fladd^(0+128)
  2649  0D33  082D               	movf	??___fladd^(0+128),w
  2650  0D34  1283               	bcf	3,5	;RP0=0, select bank0
  2651  0D35  1303               	bcf	3,6	;RP1=0, select bank0
  2652  0D36  00ED               	movwf	___fladd@aexp
  2653  0D37                     l2675:
  2654  0D37  0864               	movf	___fladd@b,w
  2655  0D38  1683               	bsf	3,5	;RP0=1, select bank1
  2656  0D39  1303               	bcf	3,6	;RP1=0, select bank1
  2657  0D3A  00AD               	movwf	??___fladd^(0+128)
  2658  0D3B  082D               	movf	??___fladd^(0+128),w
  2659  0D3C  1283               	bcf	3,5	;RP0=0, select bank0
  2660  0D3D  1303               	bcf	3,6	;RP1=0, select bank0
  2661  0D3E  00EF               	movwf	___fladd@grs
  2662  0D3F                     l2677:
  2663  0D3F  0868               	movf	___fladd@a,w
  2664  0D40  1683               	bsf	3,5	;RP0=1, select bank1
  2665  0D41  1303               	bcf	3,6	;RP1=0, select bank1
  2666  0D42  00AD               	movwf	??___fladd^(0+128)
  2667  0D43  082D               	movf	??___fladd^(0+128),w
  2668  0D44  1283               	bcf	3,5	;RP0=0, select bank0
  2669  0D45  1303               	bcf	3,6	;RP1=0, select bank0
  2670  0D46  00E4               	movwf	___fladd@b
  2671  0D47                     l2679:
  2672  0D47  086F               	movf	___fladd@grs,w
  2673  0D48  1683               	bsf	3,5	;RP0=1, select bank1
  2674  0D49  1303               	bcf	3,6	;RP1=0, select bank1
  2675  0D4A  00AD               	movwf	??___fladd^(0+128)
  2676  0D4B  082D               	movf	??___fladd^(0+128),w
  2677  0D4C  1283               	bcf	3,5	;RP0=0, select bank0
  2678  0D4D  1303               	bcf	3,6	;RP1=0, select bank0
  2679  0D4E  00E8               	movwf	___fladd@a
  2680  0D4F                     l2681:
  2681  0D4F  0865               	movf	___fladd@b+1,w
  2682  0D50  1683               	bsf	3,5	;RP0=1, select bank1
  2683  0D51  1303               	bcf	3,6	;RP1=0, select bank1
  2684  0D52  00AD               	movwf	??___fladd^(0+128)
  2685  0D53  082D               	movf	??___fladd^(0+128),w
  2686  0D54  1283               	bcf	3,5	;RP0=0, select bank0
  2687  0D55  1303               	bcf	3,6	;RP1=0, select bank0
  2688  0D56  00EF               	movwf	___fladd@grs
  2689  0D57                     l2683:
  2690  0D57  0869               	movf	___fladd@a+1,w
  2691  0D58  1683               	bsf	3,5	;RP0=1, select bank1
  2692  0D59  1303               	bcf	3,6	;RP1=0, select bank1
  2693  0D5A  00AD               	movwf	??___fladd^(0+128)
  2694  0D5B  082D               	movf	??___fladd^(0+128),w
  2695  0D5C  1283               	bcf	3,5	;RP0=0, select bank0
  2696  0D5D  1303               	bcf	3,6	;RP1=0, select bank0
  2697  0D5E  00E5               	movwf	___fladd@b+1
  2698  0D5F                     l2685:
  2699  0D5F  086F               	movf	___fladd@grs,w
  2700  0D60  1683               	bsf	3,5	;RP0=1, select bank1
  2701  0D61  1303               	bcf	3,6	;RP1=0, select bank1
  2702  0D62  00AD               	movwf	??___fladd^(0+128)
  2703  0D63  082D               	movf	??___fladd^(0+128),w
  2704  0D64  1283               	bcf	3,5	;RP0=0, select bank0
  2705  0D65  1303               	bcf	3,6	;RP1=0, select bank0
  2706  0D66  00E9               	movwf	___fladd@a+1
  2707  0D67                     l2687:
  2708  0D67  0866               	movf	___fladd@b+2,w
  2709  0D68  1683               	bsf	3,5	;RP0=1, select bank1
  2710  0D69  1303               	bcf	3,6	;RP1=0, select bank1
  2711  0D6A  00AD               	movwf	??___fladd^(0+128)
  2712  0D6B  082D               	movf	??___fladd^(0+128),w
  2713  0D6C  1283               	bcf	3,5	;RP0=0, select bank0
  2714  0D6D  1303               	bcf	3,6	;RP1=0, select bank0
  2715  0D6E  00EF               	movwf	___fladd@grs
  2716  0D6F                     l2689:
  2717  0D6F  086A               	movf	___fladd@a+2,w
  2718  0D70  1683               	bsf	3,5	;RP0=1, select bank1
  2719  0D71  1303               	bcf	3,6	;RP1=0, select bank1
  2720  0D72  00AD               	movwf	??___fladd^(0+128)
  2721  0D73  082D               	movf	??___fladd^(0+128),w
  2722  0D74  1283               	bcf	3,5	;RP0=0, select bank0
  2723  0D75  1303               	bcf	3,6	;RP1=0, select bank0
  2724  0D76  00E6               	movwf	___fladd@b+2
  2725  0D77                     l2691:
  2726  0D77  086F               	movf	___fladd@grs,w
  2727  0D78  1683               	bsf	3,5	;RP0=1, select bank1
  2728  0D79  1303               	bcf	3,6	;RP1=0, select bank1
  2729  0D7A  00AD               	movwf	??___fladd^(0+128)
  2730  0D7B  082D               	movf	??___fladd^(0+128),w
  2731  0D7C  1283               	bcf	3,5	;RP0=0, select bank0
  2732  0D7D  1303               	bcf	3,6	;RP1=0, select bank0
  2733  0D7E  00EA               	movwf	___fladd@a+2
  2734  0D7F                     l2693:
  2735  0D7F  0867               	movf	___fladd@b+3,w
  2736  0D80  1683               	bsf	3,5	;RP0=1, select bank1
  2737  0D81  1303               	bcf	3,6	;RP1=0, select bank1
  2738  0D82  00AD               	movwf	??___fladd^(0+128)
  2739  0D83  082D               	movf	??___fladd^(0+128),w
  2740  0D84  1283               	bcf	3,5	;RP0=0, select bank0
  2741  0D85  1303               	bcf	3,6	;RP1=0, select bank0
  2742  0D86  00EF               	movwf	___fladd@grs
  2743  0D87                     l2695:
  2744  0D87  086B               	movf	___fladd@a+3,w
  2745  0D88  1683               	bsf	3,5	;RP0=1, select bank1
  2746  0D89  1303               	bcf	3,6	;RP1=0, select bank1
  2747  0D8A  00AD               	movwf	??___fladd^(0+128)
  2748  0D8B  082D               	movf	??___fladd^(0+128),w
  2749  0D8C  1283               	bcf	3,5	;RP0=0, select bank0
  2750  0D8D  1303               	bcf	3,6	;RP1=0, select bank0
  2751  0D8E  00E7               	movwf	___fladd@b+3
  2752  0D8F                     l2697:
  2753  0D8F  086F               	movf	___fladd@grs,w
  2754  0D90  1683               	bsf	3,5	;RP0=1, select bank1
  2755  0D91  1303               	bcf	3,6	;RP1=0, select bank1
  2756  0D92  00AD               	movwf	??___fladd^(0+128)
  2757  0D93  082D               	movf	??___fladd^(0+128),w
  2758  0D94  1283               	bcf	3,5	;RP0=0, select bank0
  2759  0D95  1303               	bcf	3,6	;RP1=0, select bank0
  2760  0D96  00EB               	movwf	___fladd@a+3
  2761  0D97                     l2699:
  2762  0D97  01EF               	clrf	___fladd@grs
  2763  0D98                     l2701:
  2764  0D98  086D               	movf	___fladd@aexp,w
  2765  0D99  1683               	bsf	3,5	;RP0=1, select bank1
  2766  0D9A  1303               	bcf	3,6	;RP1=0, select bank1
  2767  0D9B  00AD               	movwf	??___fladd^(0+128)
  2768  0D9C  01AE               	clrf	(??___fladd^(0+128)+1)
  2769  0D9D  082E               	movf	(??___fladd+1)^(0+128),w
  2770  0D9E  00B0               	movwf	((??___fladd+2)^(0+128)+1)
  2771  0D9F  1283               	bcf	3,5	;RP0=0, select bank0
  2772  0DA0  1303               	bcf	3,6	;RP1=0, select bank0
  2773  0DA1  086E               	movf	___fladd@bexp,w
  2774  0DA2  1683               	bsf	3,5	;RP0=1, select bank1
  2775  0DA3  1303               	bcf	3,6	;RP1=0, select bank1
  2776  0DA4  022D               	subwf	??___fladd^(0+128),w
  2777  0DA5  00AF               	movwf	(??___fladd+2)^(0+128)
  2778  0DA6  1C03               	skipc
  2779  0DA7  03B0               	decf	((??___fladd+2)^(0+128)+1),f
  2780  0DA8  0830               	movf	(??___fladd+3)^(0+128),w
  2781  0DA9  3A80               	xorlw	128
  2782  0DAA  00FF               	movwf	btemp+1
  2783  0DAB  3080               	movlw	128
  2784  0DAC  027F               	subwf	btemp+1,w
  2785  0DAD  1D03               	skipz
  2786  0DAE  2DB1               	goto	u3775
  2787  0DAF  301A               	movlw	26
  2788  0DB0  022F               	subwf	(??___fladd+2)^(0+128),w
  2789  0DB1                     u3775:
  2790  0DB1  1C03               	skipc
  2791  0DB2  2DB4               	goto	u3771
  2792  0DB3  2DB5               	goto	u3770
  2793  0DB4                     u3771:
  2794  0DB4  2E06               	goto	l2717
  2795  0DB5                     u3770:
  2796  0DB5                     l2703:
  2797  0DB5  1283               	bcf	3,5	;RP0=0, select bank0
  2798  0DB6  1303               	bcf	3,6	;RP1=0, select bank0
  2799  0DB7  0867               	movf	___fladd@b+3,w
  2800  0DB8  0466               	iorwf	___fladd@b+2,w
  2801  0DB9  0465               	iorwf	___fladd@b+1,w
  2802  0DBA  0464               	iorwf	___fladd@b,w
  2803  0DBB  1D03               	skipz
  2804  0DBC  2DBE               	goto	u3781
  2805  0DBD  2DC0               	goto	u3780
  2806  0DBE                     u3781:
  2807  0DBE  3001               	movlw	1
  2808  0DBF  2DC1               	goto	u3790
  2809  0DC0                     u3780:
  2810  0DC0  3000               	movlw	0
  2811  0DC1                     u3790:
  2812  0DC1  1683               	bsf	3,5	;RP0=1, select bank1
  2813  0DC2  1303               	bcf	3,6	;RP1=0, select bank1
  2814  0DC3  00AD               	movwf	??___fladd^(0+128)
  2815  0DC4  082D               	movf	??___fladd^(0+128),w
  2816  0DC5  1283               	bcf	3,5	;RP0=0, select bank0
  2817  0DC6  1303               	bcf	3,6	;RP1=0, select bank0
  2818  0DC7  00EF               	movwf	___fladd@grs
  2819  0DC8  3000               	movlw	0
  2820  0DC9  00E7               	movwf	___fladd@b+3
  2821  0DCA  3000               	movlw	0
  2822  0DCB  00E6               	movwf	___fladd@b+2
  2823  0DCC  3000               	movlw	0
  2824  0DCD  00E5               	movwf	___fladd@b+1
  2825  0DCE  3000               	movlw	0
  2826  0DCF  00E4               	movwf	___fladd@b
  2827  0DD0  086D               	movf	___fladd@aexp,w
  2828  0DD1  1683               	bsf	3,5	;RP0=1, select bank1
  2829  0DD2  1303               	bcf	3,6	;RP1=0, select bank1
  2830  0DD3  00AD               	movwf	??___fladd^(0+128)
  2831  0DD4  082D               	movf	??___fladd^(0+128),w
  2832  0DD5  1283               	bcf	3,5	;RP0=0, select bank0
  2833  0DD6  1303               	bcf	3,6	;RP1=0, select bank0
  2834  0DD7  00EE               	movwf	___fladd@bexp
  2835  0DD8  2E0E               	goto	l694
  2836  0DD9                     l696:
  2837  0DD9  1C6F               	btfss	___fladd@grs,0
  2838  0DDA  2DDC               	goto	u3801
  2839  0DDB  2DDD               	goto	u3800
  2840  0DDC                     u3801:
  2841  0DDC  2DEA               	goto	l2707
  2842  0DDD                     u3800:
  2843  0DDD                     l2705:
  2844  0DDD  086F               	movf	___fladd@grs,w
  2845  0DDE  1683               	bsf	3,5	;RP0=1, select bank1
  2846  0DDF  1303               	bcf	3,6	;RP1=0, select bank1
  2847  0DE0  00AD               	movwf	??___fladd^(0+128)
  2848  0DE1  1003               	clrc
  2849  0DE2  0C2D               	rrf	??___fladd^(0+128),w
  2850  0DE3  3801               	iorlw	1
  2851  0DE4  00AE               	movwf	(??___fladd+1)^(0+128)
  2852  0DE5  082E               	movf	(??___fladd+1)^(0+128),w
  2853  0DE6  1283               	bcf	3,5	;RP0=0, select bank0
  2854  0DE7  1303               	bcf	3,6	;RP1=0, select bank0
  2855  0DE8  00EF               	movwf	___fladd@grs
  2856  0DE9  2DEC               	goto	l2709
  2857  0DEA                     l2707:
  2858  0DEA  1003               	clrc
  2859  0DEB  0CEF               	rrf	___fladd@grs,f
  2860  0DEC                     l2709:
  2861  0DEC  1C64               	btfss	___fladd@b,0
  2862  0DED  2DEF               	goto	u3811
  2863  0DEE  2DF0               	goto	u3810
  2864  0DEF                     u3811:
  2865  0DEF  2DF1               	goto	l2713
  2866  0DF0                     u3810:
  2867  0DF0                     l2711:
  2868  0DF0  17EF               	bsf	___fladd@grs,7
  2869  0DF1                     l2713:
  2870  0DF1  3001               	movlw	1
  2871  0DF2  1683               	bsf	3,5	;RP0=1, select bank1
  2872  0DF3  1303               	bcf	3,6	;RP1=0, select bank1
  2873  0DF4  00AD               	movwf	??___fladd^(0+128)
  2874  0DF5                     u3825:
  2875  0DF5  1283               	bcf	3,5	;RP0=0, select bank0
  2876  0DF6  1303               	bcf	3,6	;RP1=0, select bank0
  2877  0DF7  0D67               	rlf	___fladd@b+3,w
  2878  0DF8  0CE7               	rrf	___fladd@b+3,f
  2879  0DF9  0CE6               	rrf	___fladd@b+2,f
  2880  0DFA  0CE5               	rrf	___fladd@b+1,f
  2881  0DFB  0CE4               	rrf	___fladd@b,f
  2882  0DFC  1683               	bsf	3,5	;RP0=1, select bank1
  2883  0DFD  1303               	bcf	3,6	;RP1=0, select bank1
  2884  0DFE  0BAD               	decfsz	(??___fladd^(0+128))& (0+127),f
  2885  0DFF  2DF5               	goto	u3825
  2886  0E00                     l2715:
  2887  0E00  3001               	movlw	1
  2888  0E01  00AD               	movwf	??___fladd^(0+128)
  2889  0E02  082D               	movf	??___fladd^(0+128),w
  2890  0E03  1283               	bcf	3,5	;RP0=0, select bank0
  2891  0E04  1303               	bcf	3,6	;RP1=0, select bank0
  2892  0E05  07EE               	addwf	___fladd@bexp,f
  2893  0E06                     l2717:
  2894  0E06  1283               	bcf	3,5	;RP0=0, select bank0
  2895  0E07  1303               	bcf	3,6	;RP1=0, select bank0
  2896  0E08  086D               	movf	___fladd@aexp,w
  2897  0E09  026E               	subwf	___fladd@bexp,w
  2898  0E0A  1C03               	skipc
  2899  0E0B  2E0D               	goto	u3831
  2900  0E0C  2E0E               	goto	u3830
  2901  0E0D                     u3831:
  2902  0E0D  2DD9               	goto	l696
  2903  0E0E                     u3830:
  2904  0E0E                     l694:
  2905  0E0E  1B6C               	btfsc	___fladd@signs,6
  2906  0E0F  2E11               	goto	u3841
  2907  0E10  2E12               	goto	u3840
  2908  0E11                     u3841:
  2909  0E11  2E69               	goto	l2743
  2910  0E12                     u3840:
  2911  0E12                     l2719:
  2912  0E12  086E               	movf	___fladd@bexp,w
  2913  0E13  1D03               	btfss	3,2
  2914  0E14  2E16               	goto	u3851
  2915  0E15  2E17               	goto	u3850
  2916  0E16                     u3851:
  2917  0E16  2E20               	goto	l2725
  2918  0E17                     u3850:
  2919  0E17                     l2721:
  2920  0E17  3000               	movlw	0
  2921  0E18  00E7               	movwf	?___fladd+3
  2922  0E19  3000               	movlw	0
  2923  0E1A  00E6               	movwf	?___fladd+2
  2924  0E1B  3000               	movlw	0
  2925  0E1C  00E5               	movwf	?___fladd+1
  2926  0E1D  3000               	movlw	0
  2927  0E1E  00E4               	movwf	?___fladd
  2928  0E1F  2FFF               	goto	l703
  2929  0E20                     l2725:
  2930  0E20  0868               	movf	___fladd@a,w
  2931  0E21  07E4               	addwf	___fladd@b,f
  2932  0E22  0869               	movf	___fladd@a+1,w
  2933  0E23  1103               	clrz
  2934  0E24  1803               	skipnc
  2935  0E25  3E01               	addlw	1
  2936  0E26  1903               	skipnz
  2937  0E27  2E29               	goto	u3861
  2938  0E28  07E5               	addwf	___fladd@b+1,f
  2939  0E29                     u3861:
  2940  0E29  086A               	movf	___fladd@a+2,w
  2941  0E2A  1103               	clrz
  2942  0E2B  1803               	skipnc
  2943  0E2C  3E01               	addlw	1
  2944  0E2D  1903               	skipnz
  2945  0E2E  2E30               	goto	u3862
  2946  0E2F  07E6               	addwf	___fladd@b+2,f
  2947  0E30                     u3862:
  2948  0E30  086B               	movf	___fladd@a+3,w
  2949  0E31  1103               	clrz
  2950  0E32  1803               	skipnc
  2951  0E33  3E01               	addlw	1
  2952  0E34  1903               	skipnz
  2953  0E35  2E37               	goto	u3863
  2954  0E36  07E7               	addwf	___fladd@b+3,f
  2955  0E37                     u3863:
  2956  0E37                     l2727:
  2957  0E37  1C67               	btfss	___fladd@b+3,0
  2958  0E38  2E3A               	goto	u3871
  2959  0E39  2E3B               	goto	u3870
  2960  0E3A                     u3871:
  2961  0E3A  2F5D               	goto	l2777
  2962  0E3B                     u3870:
  2963  0E3B                     l2729:
  2964  0E3B  1C6F               	btfss	___fladd@grs,0
  2965  0E3C  2E3E               	goto	u3881
  2966  0E3D  2E3F               	goto	u3880
  2967  0E3E                     u3881:
  2968  0E3E  2E4C               	goto	l2733
  2969  0E3F                     u3880:
  2970  0E3F                     l2731:
  2971  0E3F  086F               	movf	___fladd@grs,w
  2972  0E40  1683               	bsf	3,5	;RP0=1, select bank1
  2973  0E41  1303               	bcf	3,6	;RP1=0, select bank1
  2974  0E42  00AD               	movwf	??___fladd^(0+128)
  2975  0E43  1003               	clrc
  2976  0E44  0C2D               	rrf	??___fladd^(0+128),w
  2977  0E45  3801               	iorlw	1
  2978  0E46  00AE               	movwf	(??___fladd+1)^(0+128)
  2979  0E47  082E               	movf	(??___fladd+1)^(0+128),w
  2980  0E48  1283               	bcf	3,5	;RP0=0, select bank0
  2981  0E49  1303               	bcf	3,6	;RP1=0, select bank0
  2982  0E4A  00EF               	movwf	___fladd@grs
  2983  0E4B  2E4E               	goto	l2735
  2984  0E4C                     l2733:
  2985  0E4C  1003               	clrc
  2986  0E4D  0CEF               	rrf	___fladd@grs,f
  2987  0E4E                     l2735:
  2988  0E4E  1C64               	btfss	___fladd@b,0
  2989  0E4F  2E51               	goto	u3891
  2990  0E50  2E52               	goto	u3890
  2991  0E51                     u3891:
  2992  0E51  2E53               	goto	l2739
  2993  0E52                     u3890:
  2994  0E52                     l2737:
  2995  0E52  17EF               	bsf	___fladd@grs,7
  2996  0E53                     l2739:
  2997  0E53  3001               	movlw	1
  2998  0E54  1683               	bsf	3,5	;RP0=1, select bank1
  2999  0E55  1303               	bcf	3,6	;RP1=0, select bank1
  3000  0E56  00AD               	movwf	??___fladd^(0+128)
  3001  0E57                     u3905:
  3002  0E57  1283               	bcf	3,5	;RP0=0, select bank0
  3003  0E58  1303               	bcf	3,6	;RP1=0, select bank0
  3004  0E59  0D67               	rlf	___fladd@b+3,w
  3005  0E5A  0CE7               	rrf	___fladd@b+3,f
  3006  0E5B  0CE6               	rrf	___fladd@b+2,f
  3007  0E5C  0CE5               	rrf	___fladd@b+1,f
  3008  0E5D  0CE4               	rrf	___fladd@b,f
  3009  0E5E  1683               	bsf	3,5	;RP0=1, select bank1
  3010  0E5F  1303               	bcf	3,6	;RP1=0, select bank1
  3011  0E60  0BAD               	decfsz	(??___fladd^(0+128))& (0+127),f
  3012  0E61  2E57               	goto	u3905
  3013  0E62                     l2741:
  3014  0E62  3001               	movlw	1
  3015  0E63  00AD               	movwf	??___fladd^(0+128)
  3016  0E64  082D               	movf	??___fladd^(0+128),w
  3017  0E65  1283               	bcf	3,5	;RP0=0, select bank0
  3018  0E66  1303               	bcf	3,6	;RP1=0, select bank0
  3019  0E67  07EE               	addwf	___fladd@bexp,f
  3020  0E68  2F5D               	goto	l2777
  3021  0E69                     l2743:
  3022  0E69  0867               	movf	___fladd@b+3,w
  3023  0E6A  3A80               	xorlw	128
  3024  0E6B  00FF               	movwf	btemp+1
  3025  0E6C  086B               	movf	___fladd@a+3,w
  3026  0E6D  3A80               	xorlw	128
  3027  0E6E  027F               	subwf	btemp+1,w
  3028  0E6F  1D03               	skipz
  3029  0E70  2E7B               	goto	u3913
  3030  0E71  086A               	movf	___fladd@a+2,w
  3031  0E72  0266               	subwf	___fladd@b+2,w
  3032  0E73  1D03               	skipz
  3033  0E74  2E7B               	goto	u3913
  3034  0E75  0869               	movf	___fladd@a+1,w
  3035  0E76  0265               	subwf	___fladd@b+1,w
  3036  0E77  1D03               	skipz
  3037  0E78  2E7B               	goto	u3913
  3038  0E79  0868               	movf	___fladd@a,w
  3039  0E7A  0264               	subwf	___fladd@b,w
  3040  0E7B                     u3913:
  3041  0E7B  1803               	skipnc
  3042  0E7C  2E7E               	goto	u3911
  3043  0E7D  2E7F               	goto	u3910
  3044  0E7E                     u3911:
  3045  0E7E  2F0F               	goto	l2753
  3046  0E7F                     u3910:
  3047  0E7F                     l2745:
  3048  0E7F  30FF               	movlw	255
  3049  0E80  1683               	bsf	3,5	;RP0=1, select bank1
  3050  0E81  1303               	bcf	3,6	;RP1=0, select bank1
  3051  0E82  00AD               	movwf	??___fladd^(0+128)
  3052  0E83  30FF               	movlw	255
  3053  0E84  00AE               	movwf	(??___fladd^(0+128)+1)
  3054  0E85  30FF               	movlw	255
  3055  0E86  00AF               	movwf	(??___fladd^(0+128)+2)
  3056  0E87  30FF               	movlw	255
  3057  0E88  00B0               	movwf	(??___fladd^(0+128)+3)
  3058  0E89  1283               	bcf	3,5	;RP0=0, select bank0
  3059  0E8A  1303               	bcf	3,6	;RP1=0, select bank0
  3060  0E8B  0868               	movf	___fladd@a,w
  3061  0E8C  1683               	bsf	3,5	;RP0=1, select bank1
  3062  0E8D  1303               	bcf	3,6	;RP1=0, select bank1
  3063  0E8E  00B1               	movwf	(??___fladd+4)^(0+128)
  3064  0E8F  1283               	bcf	3,5	;RP0=0, select bank0
  3065  0E90  1303               	bcf	3,6	;RP1=0, select bank0
  3066  0E91  0869               	movf	___fladd@a+1,w
  3067  0E92  1683               	bsf	3,5	;RP0=1, select bank1
  3068  0E93  1303               	bcf	3,6	;RP1=0, select bank1
  3069  0E94  00B2               	movwf	((??___fladd+4)^(0+128)+1)
  3070  0E95  1283               	bcf	3,5	;RP0=0, select bank0
  3071  0E96  1303               	bcf	3,6	;RP1=0, select bank0
  3072  0E97  086A               	movf	___fladd@a+2,w
  3073  0E98  1683               	bsf	3,5	;RP0=1, select bank1
  3074  0E99  1303               	bcf	3,6	;RP1=0, select bank1
  3075  0E9A  00B3               	movwf	((??___fladd+4)^(0+128)+2)
  3076  0E9B  1283               	bcf	3,5	;RP0=0, select bank0
  3077  0E9C  1303               	bcf	3,6	;RP1=0, select bank0
  3078  0E9D  086B               	movf	___fladd@a+3,w
  3079  0E9E  1683               	bsf	3,5	;RP0=1, select bank1
  3080  0E9F  1303               	bcf	3,6	;RP1=0, select bank1
  3081  0EA0  00B4               	movwf	((??___fladd+4)^(0+128)+3)
  3082  0EA1  1283               	bcf	3,5	;RP0=0, select bank0
  3083  0EA2  1303               	bcf	3,6	;RP1=0, select bank0
  3084  0EA3  0864               	movf	___fladd@b,w
  3085  0EA4  1683               	bsf	3,5	;RP0=1, select bank1
  3086  0EA5  1303               	bcf	3,6	;RP1=0, select bank1
  3087  0EA6  02B1               	subwf	(??___fladd+4)^(0+128),f
  3088  0EA7  1283               	bcf	3,5	;RP0=0, select bank0
  3089  0EA8  1303               	bcf	3,6	;RP1=0, select bank0
  3090  0EA9  0865               	movf	___fladd@b+1,w
  3091  0EAA  1C03               	skipc
  3092  0EAB  0F65               	incfsz	___fladd@b+1,w
  3093  0EAC  2EAE               	goto	u3921
  3094  0EAD  2EB1               	goto	u3922
  3095  0EAE                     u3921:
  3096  0EAE  1683               	bsf	3,5	;RP0=1, select bank1
  3097  0EAF  1303               	bcf	3,6	;RP1=0, select bank1
  3098  0EB0  02B2               	subwf	((??___fladd+4)^(0+128)+1),f
  3099  0EB1                     u3922:
  3100  0EB1  1283               	bcf	3,5	;RP0=0, select bank0
  3101  0EB2  1303               	bcf	3,6	;RP1=0, select bank0
  3102  0EB3  0866               	movf	___fladd@b+2,w
  3103  0EB4  1C03               	skipc
  3104  0EB5  0F66               	incfsz	___fladd@b+2,w
  3105  0EB6  2EB8               	goto	u3923
  3106  0EB7  2EBB               	goto	u3924
  3107  0EB8                     u3923:
  3108  0EB8  1683               	bsf	3,5	;RP0=1, select bank1
  3109  0EB9  1303               	bcf	3,6	;RP1=0, select bank1
  3110  0EBA  02B3               	subwf	((??___fladd+4)^(0+128)+2),f
  3111  0EBB                     u3924:
  3112  0EBB  1283               	bcf	3,5	;RP0=0, select bank0
  3113  0EBC  1303               	bcf	3,6	;RP1=0, select bank0
  3114  0EBD  0867               	movf	___fladd@b+3,w
  3115  0EBE  1C03               	skipc
  3116  0EBF  0F67               	incfsz	___fladd@b+3,w
  3117  0EC0  2EC2               	goto	u3925
  3118  0EC1  2EC5               	goto	u3926
  3119  0EC2                     u3925:
  3120  0EC2  1683               	bsf	3,5	;RP0=1, select bank1
  3121  0EC3  1303               	bcf	3,6	;RP1=0, select bank1
  3122  0EC4  02B4               	subwf	((??___fladd+4)^(0+128)+3),f
  3123  0EC5                     u3926:
  3124  0EC5  1283               	bcf	3,5	;RP0=0, select bank0
  3125  0EC6  1303               	bcf	3,6	;RP1=0, select bank0
  3126  0EC7  1683               	bsf	3,5	;RP0=1, select bank1
  3127  0EC8  1303               	bcf	3,6	;RP1=0, select bank1
  3128  0EC9  0831               	movf	(??___fladd+4)^(0+128),w
  3129  0ECA  07AD               	addwf	??___fladd^(0+128),f
  3130  0ECB  0832               	movf	(??___fladd+5)^(0+128),w
  3131  0ECC  1803               	skipnc
  3132  0ECD  0F32               	incfsz	(??___fladd+5)^(0+128),w
  3133  0ECE  2ED0               	goto	u3930
  3134  0ECF  2ED1               	goto	u3931
  3135  0ED0                     u3930:
  3136  0ED0  07AE               	addwf	(??___fladd^(0+128)+1),f
  3137  0ED1                     u3931:
  3138  0ED1  0833               	movf	(??___fladd+6)^(0+128),w
  3139  0ED2  1803               	skipnc
  3140  0ED3  0F33               	incfsz	(??___fladd+6)^(0+128),w
  3141  0ED4  2ED6               	goto	u3932
  3142  0ED5  2ED7               	goto	u3933
  3143  0ED6                     u3932:
  3144  0ED6  07AF               	addwf	(??___fladd^(0+128)+2),f
  3145  0ED7                     u3933:
  3146  0ED7  0834               	movf	(??___fladd+7)^(0+128),w
  3147  0ED8  1803               	skipnc
  3148  0ED9  0A34               	incf	(??___fladd+7)^(0+128),w
  3149  0EDA  07B0               	addwf	(??___fladd^(0+128)+3),f
  3150  0EDB  0830               	movf	(??___fladd+3)^(0+128),w
  3151  0EDC  1283               	bcf	3,5	;RP0=0, select bank0
  3152  0EDD  1303               	bcf	3,6	;RP1=0, select bank0
  3153  0EDE  00E7               	movwf	___fladd@b+3
  3154  0EDF  1683               	bsf	3,5	;RP0=1, select bank1
  3155  0EE0  1303               	bcf	3,6	;RP1=0, select bank1
  3156  0EE1  082F               	movf	(??___fladd+2)^(0+128),w
  3157  0EE2  1283               	bcf	3,5	;RP0=0, select bank0
  3158  0EE3  1303               	bcf	3,6	;RP1=0, select bank0
  3159  0EE4  00E6               	movwf	___fladd@b+2
  3160  0EE5  1683               	bsf	3,5	;RP0=1, select bank1
  3161  0EE6  1303               	bcf	3,6	;RP1=0, select bank1
  3162  0EE7  082E               	movf	(??___fladd+1)^(0+128),w
  3163  0EE8  1283               	bcf	3,5	;RP0=0, select bank0
  3164  0EE9  1303               	bcf	3,6	;RP1=0, select bank0
  3165  0EEA  00E5               	movwf	___fladd@b+1
  3166  0EEB  1683               	bsf	3,5	;RP0=1, select bank1
  3167  0EEC  1303               	bcf	3,6	;RP1=0, select bank1
  3168  0EED  082D               	movf	??___fladd^(0+128),w
  3169  0EEE  1283               	bcf	3,5	;RP0=0, select bank0
  3170  0EEF  1303               	bcf	3,6	;RP1=0, select bank0
  3171  0EF0  00E4               	movwf	___fladd@b
  3172  0EF1                     l2747:
  3173  0EF1  3080               	movlw	128
  3174  0EF2  1683               	bsf	3,5	;RP0=1, select bank1
  3175  0EF3  1303               	bcf	3,6	;RP1=0, select bank1
  3176  0EF4  00AD               	movwf	??___fladd^(0+128)
  3177  0EF5  082D               	movf	??___fladd^(0+128),w
  3178  0EF6  1283               	bcf	3,5	;RP0=0, select bank0
  3179  0EF7  1303               	bcf	3,6	;RP1=0, select bank0
  3180  0EF8  06EC               	xorwf	___fladd@signs,f
  3181  0EF9  09EF               	comf	___fladd@grs,f
  3182  0EFA  0AEF               	incf	___fladd@grs,f
  3183  0EFB                     l2749:
  3184  0EFB  086F               	movf	___fladd@grs,w
  3185  0EFC  1D03               	btfss	3,2
  3186  0EFD  2EFF               	goto	u3941
  3187  0EFE  2F00               	goto	u3940
  3188  0EFF                     u3941:
  3189  0EFF  2F1D               	goto	l711
  3190  0F00                     u3940:
  3191  0F00                     l2751:
  3192  0F00  3001               	movlw	1
  3193  0F01  07E4               	addwf	___fladd@b,f
  3194  0F02  3000               	movlw	0
  3195  0F03  1803               	skipnc
  3196  0F04  3001               	movlw	1
  3197  0F05  07E5               	addwf	___fladd@b+1,f
  3198  0F06  3000               	movlw	0
  3199  0F07  1803               	skipnc
  3200  0F08  3001               	movlw	1
  3201  0F09  07E6               	addwf	___fladd@b+2,f
  3202  0F0A  3000               	movlw	0
  3203  0F0B  1803               	skipnc
  3204  0F0C  3001               	movlw	1
  3205  0F0D  07E7               	addwf	___fladd@b+3,f
  3206  0F0E  2F1D               	goto	l711
  3207  0F0F                     l2753:
  3208  0F0F  0868               	movf	___fladd@a,w
  3209  0F10  02E4               	subwf	___fladd@b,f
  3210  0F11  0869               	movf	___fladd@a+1,w
  3211  0F12  1C03               	skipc
  3212  0F13  0F69               	incfsz	___fladd@a+1,w
  3213  0F14  02E5               	subwf	___fladd@b+1,f
  3214  0F15  086A               	movf	___fladd@a+2,w
  3215  0F16  1C03               	skipc
  3216  0F17  0F6A               	incfsz	___fladd@a+2,w
  3217  0F18  02E6               	subwf	___fladd@b+2,f
  3218  0F19  086B               	movf	___fladd@a+3,w
  3219  0F1A  1C03               	skipc
  3220  0F1B  0F6B               	incfsz	___fladd@a+3,w
  3221  0F1C  02E7               	subwf	___fladd@b+3,f
  3222  0F1D                     l711:
  3223  0F1D  0867               	movf	___fladd@b+3,w
  3224  0F1E  0466               	iorwf	___fladd@b+2,w
  3225  0F1F  0465               	iorwf	___fladd@b+1,w
  3226  0F20  0464               	iorwf	___fladd@b,w
  3227  0F21  1D03               	skipz
  3228  0F22  2F24               	goto	u3951
  3229  0F23  2F25               	goto	u3950
  3230  0F24                     u3951:
  3231  0F24  2F59               	goto	l2775
  3232  0F25                     u3950:
  3233  0F25                     l2755:
  3234  0F25  086F               	movf	___fladd@grs,w
  3235  0F26  1D03               	btfss	3,2
  3236  0F27  2F29               	goto	u3961
  3237  0F28  2F2A               	goto	u3960
  3238  0F29                     u3961:
  3239  0F29  2F59               	goto	l2775
  3240  0F2A                     u3960:
  3241  0F2A                     l2757:
  3242  0F2A  3000               	movlw	0
  3243  0F2B  00E7               	movwf	?___fladd+3
  3244  0F2C  3000               	movlw	0
  3245  0F2D  00E6               	movwf	?___fladd+2
  3246  0F2E  3000               	movlw	0
  3247  0F2F  00E5               	movwf	?___fladd+1
  3248  0F30  3000               	movlw	0
  3249  0F31  00E4               	movwf	?___fladd
  3250  0F32  2FFF               	goto	l703
  3251  0F33                     l2761:
  3252  0F33  3001               	movlw	1
  3253  0F34  1683               	bsf	3,5	;RP0=1, select bank1
  3254  0F35  1303               	bcf	3,6	;RP1=0, select bank1
  3255  0F36  00AD               	movwf	??___fladd^(0+128)
  3256  0F37                     u3975:
  3257  0F37  1003               	clrc
  3258  0F38  1283               	bcf	3,5	;RP0=0, select bank0
  3259  0F39  1303               	bcf	3,6	;RP1=0, select bank0
  3260  0F3A  0DE4               	rlf	___fladd@b,f
  3261  0F3B  0DE5               	rlf	___fladd@b+1,f
  3262  0F3C  0DE6               	rlf	___fladd@b+2,f
  3263  0F3D  0DE7               	rlf	___fladd@b+3,f
  3264  0F3E  1683               	bsf	3,5	;RP0=1, select bank1
  3265  0F3F  1303               	bcf	3,6	;RP1=0, select bank1
  3266  0F40  0BAD               	decfsz	??___fladd^(0+128),f
  3267  0F41  2F37               	goto	u3975
  3268  0F42                     l2763:
  3269  0F42  1283               	bcf	3,5	;RP0=0, select bank0
  3270  0F43  1303               	bcf	3,6	;RP1=0, select bank0
  3271  0F44  1FEF               	btfss	___fladd@grs,7
  3272  0F45  2F47               	goto	u3981
  3273  0F46  2F48               	goto	u3980
  3274  0F47                     u3981:
  3275  0F47  2F49               	goto	l715
  3276  0F48                     u3980:
  3277  0F48                     l2765:
  3278  0F48  1464               	bsf	___fladd@b,0
  3279  0F49                     l715:
  3280  0F49  1C6F               	btfss	___fladd@grs,0
  3281  0F4A  2F4C               	goto	u3991
  3282  0F4B  2F4D               	goto	u3990
  3283  0F4C                     u3991:
  3284  0F4C  2F50               	goto	l2769
  3285  0F4D                     u3990:
  3286  0F4D                     l2767:
  3287  0F4D  1403               	setc
  3288  0F4E  0DEF               	rlf	___fladd@grs,f
  3289  0F4F  2F52               	goto	l2771
  3290  0F50                     l2769:
  3291  0F50  1003               	clrc
  3292  0F51  0DEF               	rlf	___fladd@grs,f
  3293  0F52                     l2771:
  3294  0F52  086E               	movf	___fladd@bexp,w
  3295  0F53  1903               	btfsc	3,2
  3296  0F54  2F56               	goto	u4001
  3297  0F55  2F57               	goto	u4000
  3298  0F56                     u4001:
  3299  0F56  2F59               	goto	l2775
  3300  0F57                     u4000:
  3301  0F57                     l2773:
  3302  0F57  3001               	movlw	1
  3303  0F58  02EE               	subwf	___fladd@bexp,f
  3304  0F59                     l2775:
  3305  0F59  1FE6               	btfss	___fladd@b+2,7
  3306  0F5A  2F5C               	goto	u4011
  3307  0F5B  2F5D               	goto	u4010
  3308  0F5C                     u4011:
  3309  0F5C  2F33               	goto	l2761
  3310  0F5D                     u4010:
  3311  0F5D                     l2777:
  3312  0F5D  01ED               	clrf	___fladd@aexp
  3313  0F5E                     l2779:
  3314  0F5E  1FEF               	btfss	___fladd@grs,7
  3315  0F5F  2F61               	goto	u4021
  3316  0F60  2F62               	goto	u4020
  3317  0F61                     u4021:
  3318  0F61  2F70               	goto	l2787
  3319  0F62                     u4020:
  3320  0F62                     l2781:
  3321  0F62  086F               	movf	___fladd@grs,w
  3322  0F63  397F               	andlw	127
  3323  0F64  1903               	btfsc	3,2
  3324  0F65  2F67               	goto	u4031
  3325  0F66  2F68               	goto	u4030
  3326  0F67                     u4031:
  3327  0F67  2F6B               	goto	l721
  3328  0F68                     u4030:
  3329  0F68                     l2783:
  3330  0F68  01ED               	clrf	___fladd@aexp
  3331  0F69  0AED               	incf	___fladd@aexp,f
  3332  0F6A  2F70               	goto	l2787
  3333  0F6B                     l721:
  3334  0F6B  1C64               	btfss	___fladd@b,0
  3335  0F6C  2F6E               	goto	u4041
  3336  0F6D  2F6F               	goto	u4040
  3337  0F6E                     u4041:
  3338  0F6E  2F70               	goto	l2787
  3339  0F6F                     u4040:
  3340  0F6F  2F68               	goto	l2783
  3341  0F70                     l2787:
  3342  0F70  086D               	movf	___fladd@aexp,w
  3343  0F71  1903               	btfsc	3,2
  3344  0F72  2F74               	goto	u4051
  3345  0F73  2F75               	goto	u4050
  3346  0F74                     u4051:
  3347  0F74  2FC9               	goto	l724
  3348  0F75                     u4050:
  3349  0F75                     l2789:
  3350  0F75  3001               	movlw	1
  3351  0F76  07E4               	addwf	___fladd@b,f
  3352  0F77  3000               	movlw	0
  3353  0F78  1803               	skipnc
  3354  0F79  3001               	movlw	1
  3355  0F7A  07E5               	addwf	___fladd@b+1,f
  3356  0F7B  3000               	movlw	0
  3357  0F7C  1803               	skipnc
  3358  0F7D  3001               	movlw	1
  3359  0F7E  07E6               	addwf	___fladd@b+2,f
  3360  0F7F  3000               	movlw	0
  3361  0F80  1803               	skipnc
  3362  0F81  3001               	movlw	1
  3363  0F82  07E7               	addwf	___fladd@b+3,f
  3364  0F83                     l2791:
  3365  0F83  1C67               	btfss	___fladd@b+3,0
  3366  0F84  2F86               	goto	u4061
  3367  0F85  2F87               	goto	u4060
  3368  0F86                     u4061:
  3369  0F86  2FC9               	goto	l724
  3370  0F87                     u4060:
  3371  0F87                     l2793:
  3372  0F87  0864               	movf	___fladd@b,w
  3373  0F88  1683               	bsf	3,5	;RP0=1, select bank1
  3374  0F89  1303               	bcf	3,6	;RP1=0, select bank1
  3375  0F8A  00AD               	movwf	??___fladd^(0+128)
  3376  0F8B  1283               	bcf	3,5	;RP0=0, select bank0
  3377  0F8C  1303               	bcf	3,6	;RP1=0, select bank0
  3378  0F8D  0865               	movf	___fladd@b+1,w
  3379  0F8E  1683               	bsf	3,5	;RP0=1, select bank1
  3380  0F8F  1303               	bcf	3,6	;RP1=0, select bank1
  3381  0F90  00AE               	movwf	(??___fladd^(0+128)+1)
  3382  0F91  1283               	bcf	3,5	;RP0=0, select bank0
  3383  0F92  1303               	bcf	3,6	;RP1=0, select bank0
  3384  0F93  0866               	movf	___fladd@b+2,w
  3385  0F94  1683               	bsf	3,5	;RP0=1, select bank1
  3386  0F95  1303               	bcf	3,6	;RP1=0, select bank1
  3387  0F96  00AF               	movwf	(??___fladd^(0+128)+2)
  3388  0F97  1283               	bcf	3,5	;RP0=0, select bank0
  3389  0F98  1303               	bcf	3,6	;RP1=0, select bank0
  3390  0F99  0867               	movf	___fladd@b+3,w
  3391  0F9A  1683               	bsf	3,5	;RP0=1, select bank1
  3392  0F9B  1303               	bcf	3,6	;RP1=0, select bank1
  3393  0F9C  00B0               	movwf	(??___fladd^(0+128)+3)
  3394  0F9D  3001               	movlw	1
  3395  0F9E  00B1               	movwf	(??___fladd+4)^(0+128)
  3396  0F9F                     u4075:
  3397  0F9F  0D30               	rlf	(??___fladd^(0+128)+3),w
  3398  0FA0  0CB0               	rrf	(??___fladd^(0+128)+3),f
  3399  0FA1  0CAF               	rrf	(??___fladd^(0+128)+2),f
  3400  0FA2  0CAE               	rrf	(??___fladd^(0+128)+1),f
  3401  0FA3  0CAD               	rrf	??___fladd^(0+128),f
  3402  0FA4                     u4070:
  3403  0FA4  0BB1               	decfsz	(??___fladd+4)^(0+128),f
  3404  0FA5  2F9F               	goto	u4075
  3405  0FA6  0830               	movf	(??___fladd+3)^(0+128),w
  3406  0FA7  1283               	bcf	3,5	;RP0=0, select bank0
  3407  0FA8  1303               	bcf	3,6	;RP1=0, select bank0
  3408  0FA9  00E7               	movwf	___fladd@b+3
  3409  0FAA  1683               	bsf	3,5	;RP0=1, select bank1
  3410  0FAB  1303               	bcf	3,6	;RP1=0, select bank1
  3411  0FAC  082F               	movf	(??___fladd+2)^(0+128),w
  3412  0FAD  1283               	bcf	3,5	;RP0=0, select bank0
  3413  0FAE  1303               	bcf	3,6	;RP1=0, select bank0
  3414  0FAF  00E6               	movwf	___fladd@b+2
  3415  0FB0  1683               	bsf	3,5	;RP0=1, select bank1
  3416  0FB1  1303               	bcf	3,6	;RP1=0, select bank1
  3417  0FB2  082E               	movf	(??___fladd+1)^(0+128),w
  3418  0FB3  1283               	bcf	3,5	;RP0=0, select bank0
  3419  0FB4  1303               	bcf	3,6	;RP1=0, select bank0
  3420  0FB5  00E5               	movwf	___fladd@b+1
  3421  0FB6  1683               	bsf	3,5	;RP0=1, select bank1
  3422  0FB7  1303               	bcf	3,6	;RP1=0, select bank1
  3423  0FB8  082D               	movf	??___fladd^(0+128),w
  3424  0FB9  1283               	bcf	3,5	;RP0=0, select bank0
  3425  0FBA  1303               	bcf	3,6	;RP1=0, select bank0
  3426  0FBB  00E4               	movwf	___fladd@b
  3427  0FBC  0A6E               	incf	___fladd@bexp,w
  3428  0FBD  1903               	btfsc	3,2
  3429  0FBE  2FC0               	goto	u4081
  3430  0FBF  2FC1               	goto	u4080
  3431  0FC0                     u4081:
  3432  0FC0  2FC9               	goto	l724
  3433  0FC1                     u4080:
  3434  0FC1                     l2795:
  3435  0FC1  3001               	movlw	1
  3436  0FC2  1683               	bsf	3,5	;RP0=1, select bank1
  3437  0FC3  1303               	bcf	3,6	;RP1=0, select bank1
  3438  0FC4  00AD               	movwf	??___fladd^(0+128)
  3439  0FC5  082D               	movf	??___fladd^(0+128),w
  3440  0FC6  1283               	bcf	3,5	;RP0=0, select bank0
  3441  0FC7  1303               	bcf	3,6	;RP1=0, select bank0
  3442  0FC8  07EE               	addwf	___fladd@bexp,f
  3443  0FC9                     l724:
  3444  0FC9  0A6E               	incf	___fladd@bexp,w
  3445  0FCA  1903               	btfsc	3,2
  3446  0FCB  2FCD               	goto	u4091
  3447  0FCC  2FCE               	goto	u4090
  3448  0FCD                     u4091:
  3449  0FCD  2FD3               	goto	l2799
  3450  0FCE                     u4090:
  3451  0FCE                     l2797:
  3452  0FCE  086E               	movf	___fladd@bexp,w
  3453  0FCF  1D03               	btfss	3,2
  3454  0FD0  2FD2               	goto	u4101
  3455  0FD1  2FD3               	goto	u4100
  3456  0FD2                     u4101:
  3457  0FD2  2FE1               	goto	l2805
  3458  0FD3                     u4100:
  3459  0FD3                     l2799:
  3460  0FD3  3000               	movlw	0
  3461  0FD4  00E7               	movwf	___fladd@b+3
  3462  0FD5  3000               	movlw	0
  3463  0FD6  00E6               	movwf	___fladd@b+2
  3464  0FD7  3000               	movlw	0
  3465  0FD8  00E5               	movwf	___fladd@b+1
  3466  0FD9  3000               	movlw	0
  3467  0FDA  00E4               	movwf	___fladd@b
  3468  0FDB                     l2801:
  3469  0FDB  086E               	movf	___fladd@bexp,w
  3470  0FDC  1D03               	btfss	3,2
  3471  0FDD  2FDF               	goto	u4111
  3472  0FDE  2FE0               	goto	u4110
  3473  0FDF                     u4111:
  3474  0FDF  2FE1               	goto	l2805
  3475  0FE0                     u4110:
  3476  0FE0                     l2803:
  3477  0FE0  01EC               	clrf	___fladd@signs
  3478  0FE1                     l2805:
  3479  0FE1  1C6E               	btfss	___fladd@bexp,0
  3480  0FE2  2FE4               	goto	u4121
  3481  0FE3  2FE5               	goto	u4120
  3482  0FE4                     u4121:
  3483  0FE4  2FE7               	goto	l2809
  3484  0FE5                     u4120:
  3485  0FE5                     l2807:
  3486  0FE5  17E6               	bsf	___fladd@b+2,7
  3487  0FE6  2FEF               	goto	l732
  3488  0FE7                     l2809:
  3489  0FE7  307F               	movlw	127
  3490  0FE8  1683               	bsf	3,5	;RP0=1, select bank1
  3491  0FE9  1303               	bcf	3,6	;RP1=0, select bank1
  3492  0FEA  00AD               	movwf	??___fladd^(0+128)
  3493  0FEB  082D               	movf	??___fladd^(0+128),w
  3494  0FEC  1283               	bcf	3,5	;RP0=0, select bank0
  3495  0FED  1303               	bcf	3,6	;RP1=0, select bank0
  3496  0FEE  05E6               	andwf	___fladd@b+2,f
  3497  0FEF                     l732:
  3498  0FEF  086E               	movf	___fladd@bexp,w
  3499  0FF0  1683               	bsf	3,5	;RP0=1, select bank1
  3500  0FF1  1303               	bcf	3,6	;RP1=0, select bank1
  3501  0FF2  00AD               	movwf	??___fladd^(0+128)
  3502  0FF3  1003               	clrc
  3503  0FF4  0C2D               	rrf	??___fladd^(0+128),w
  3504  0FF5  00AE               	movwf	(??___fladd+1)^(0+128)
  3505  0FF6  082E               	movf	(??___fladd+1)^(0+128),w
  3506  0FF7  1283               	bcf	3,5	;RP0=0, select bank0
  3507  0FF8  1303               	bcf	3,6	;RP1=0, select bank0
  3508  0FF9  00E7               	movwf	___fladd@b+3
  3509  0FFA                     l2811:
  3510  0FFA  1FEC               	btfss	___fladd@signs,7
  3511  0FFB  2FFD               	goto	u4131
  3512  0FFC  2FFE               	goto	u4130
  3513  0FFD                     u4131:
  3514  0FFD  2FFF               	goto	l733
  3515  0FFE                     u4130:
  3516  0FFE                     l2813:
  3517  0FFE  17E7               	bsf	___fladd@b+3,7
  3518  0FFF                     l733:
  3519  0FFF                     l703:
  3520  0FFF  0008               	return
  3521  1000                     __end_of___fladd:
  3522                           
  3523                           	psect	text4
  3524  12EF                     __ptext4:	
  3525 ;; *************** function _Speed_R *****************
  3526 ;; Defined at:
  3527 ;;		line 27 in file "main.c"
  3528 ;; Parameters:    Size  Location     Type
  3529 ;;  speed           2   38[BANK1 ] int 
  3530 ;; Auto vars:     Size  Location     Type
  3531 ;;		None
  3532 ;; Return value:  Size  Location     Type
  3533 ;;                  1    wreg      void 
  3534 ;; Registers used:
  3535 ;;		wreg, status,2, status,0, btemp+1, pclath, cstack
  3536 ;; Tracked objects:
  3537 ;;		On entry : 0/0
  3538 ;;		On exit  : 0/0
  3539 ;;		Unchanged: 0/0
  3540 ;; Data sizes:     COMMON   BANK0   BANK1   BANK3   BANK2
  3541 ;;      Params:         0       0       2       0       0
  3542 ;;      Locals:         0       0       0       0       0
  3543 ;;      Temps:          0       0       0       0       0
  3544 ;;      Totals:         0       0       2       0       0
  3545 ;;Total ram usage:        2 bytes
  3546 ;; Hardware stack levels used: 1
  3547 ;; Hardware stack levels required when called: 7
  3548 ;; This function calls:
  3549 ;;		_PWM2_Set_Duty
  3550 ;;		_abs
  3551 ;; This function is called by:
  3552 ;;		_main
  3553 ;; This function uses a non-reentrant model
  3554 ;;
  3555                           
  3556                           
  3557                           ;psect for function _Speed_R
  3558  12EF                     _Speed_R:
  3559  12EF                     l2521:	
  3560                           ;incstack = 0
  3561                           ; Regs used in _Speed_R: [wreg+status,2+status,0+btemp+1+pclath+cstack]
  3562                           
  3563                           
  3564                           ;main.c: 27: void Speed_R(int speed);main.c: 28: {;main.c: 29:     if(speed > 0)
  3565  12EF  1683               	bsf	3,5	;RP0=1, select bank1
  3566  12F0  1303               	bcf	3,6	;RP1=0, select bank1
  3567  12F1  0847               	movf	(Speed_R@speed+1)^(0+128),w
  3568  12F2  3A80               	xorlw	128
  3569  12F3  00FF               	movwf	btemp+1
  3570  12F4  3080               	movlw	128
  3571  12F5  027F               	subwf	btemp+1,w
  3572  12F6  1D03               	skipz
  3573  12F7  2AFA               	goto	u3595
  3574  12F8  3001               	movlw	1
  3575  12F9  0246               	subwf	Speed_R@speed^(0+128),w
  3576  12FA                     u3595:
  3577  12FA  1C03               	skipc
  3578  12FB  2AFD               	goto	u3591
  3579  12FC  2AFE               	goto	u3590
  3580  12FD                     u3591:
  3581  12FD  2B03               	goto	l35
  3582  12FE                     u3590:
  3583  12FE                     l2523:
  3584                           
  3585                           ;main.c: 30:     {;main.c: 31:         PORTDbits.RD3 = 1;
  3586  12FE  1283               	bcf	3,5	;RP0=0, select bank0
  3587  12FF  1303               	bcf	3,6	;RP1=0, select bank0
  3588  1300  1588               	bsf	8,3	;volatile
  3589                           
  3590                           ;main.c: 32:         PORTDbits.RD2 = 0;
  3591  1301  1108               	bcf	8,2	;volatile
  3592                           
  3593                           ;main.c: 33:     }
  3594  1302  2B0D               	goto	l2527
  3595  1303                     l35:	
  3596                           ;main.c: 34:     else if(speed < 0)
  3597                           
  3598  1303  1683               	bsf	3,5	;RP0=1, select bank1
  3599  1304  1303               	bcf	3,6	;RP1=0, select bank1
  3600  1305  1FC7               	btfss	(Speed_R@speed+1)^(0+128),7
  3601  1306  2B08               	goto	u3601
  3602  1307  2B09               	goto	u3600
  3603  1308                     u3601:
  3604  1308  2B0D               	goto	l2527
  3605  1309                     u3600:
  3606  1309                     l2525:
  3607                           
  3608                           ;main.c: 35:     {;main.c: 36:         PORTDbits.RD3 = 0;
  3609  1309  1283               	bcf	3,5	;RP0=0, select bank0
  3610  130A  1303               	bcf	3,6	;RP1=0, select bank0
  3611  130B  1188               	bcf	8,3	;volatile
  3612                           
  3613                           ;main.c: 37:         PORTDbits.RD2 = 1;
  3614  130C  1508               	bsf	8,2	;volatile
  3615  130D                     l2527:
  3616                           
  3617                           ;main.c: 39:     PWM2_Set_Duty(abs(speed));
  3618  130D  1683               	bsf	3,5	;RP0=1, select bank1
  3619  130E  1303               	bcf	3,6	;RP1=0, select bank1
  3620  130F  0847               	movf	(Speed_R@speed+1)^(0+128),w
  3621  1310  1283               	bcf	3,5	;RP0=0, select bank0
  3622  1311  1303               	bcf	3,6	;RP1=0, select bank0
  3623  1312  00A1               	movwf	abs@a+1
  3624  1313  1683               	bsf	3,5	;RP0=1, select bank1
  3625  1314  1303               	bcf	3,6	;RP1=0, select bank1
  3626  1315  0846               	movf	Speed_R@speed^(0+128),w
  3627  1316  1283               	bcf	3,5	;RP0=0, select bank0
  3628  1317  1303               	bcf	3,6	;RP1=0, select bank0
  3629  1318  00A0               	movwf	abs@a
  3630  1319  160A  118A  2125  160A  118A  	fcall	_abs
  3631  131E  1283               	bcf	3,5	;RP0=0, select bank0
  3632  131F  1303               	bcf	3,6	;RP1=0, select bank0
  3633  1320  0821               	movf	?_abs+1,w
  3634  1321  1683               	bsf	3,5	;RP0=1, select bank1
  3635  1322  1303               	bcf	3,6	;RP1=0, select bank1
  3636  1323  00C1               	movwf	(PWM2_Set_Duty@duty+1)^(0+128)
  3637  1324  1283               	bcf	3,5	;RP0=0, select bank0
  3638  1325  1303               	bcf	3,6	;RP1=0, select bank0
  3639  1326  0820               	movf	?_abs,w
  3640  1327  1683               	bsf	3,5	;RP0=1, select bank1
  3641  1328  1303               	bcf	3,6	;RP1=0, select bank1
  3642  1329  00C0               	movwf	PWM2_Set_Duty@duty^(0+128)
  3643  132A  120A  158A  207B  160A  118A  	fcall	_PWM2_Set_Duty
  3644  132F                     l38:
  3645  132F  0008               	return
  3646  1330                     __end_of_Speed_R:
  3647                           
  3648                           	psect	text5
  3649  087B                     __ptext5:	
  3650 ;; *************** function _PWM2_Set_Duty *****************
  3651 ;; Defined at:
  3652 ;;		line 95 in file "MPU6050.c"
  3653 ;; Parameters:    Size  Location     Type
  3654 ;;  duty            2   32[BANK1 ] unsigned int 
  3655 ;; Auto vars:     Size  Location     Type
  3656 ;;		None
  3657 ;; Return value:  Size  Location     Type
  3658 ;;                  1    wreg      void 
  3659 ;; Registers used:
  3660 ;;		wreg, status,2, status,0, btemp+1, pclath, cstack
  3661 ;; Tracked objects:
  3662 ;;		On entry : 0/0
  3663 ;;		On exit  : 0/0
  3664 ;;		Unchanged: 0/0
  3665 ;; Data sizes:     COMMON   BANK0   BANK1   BANK3   BANK2
  3666 ;;      Params:         0       0       2       0       0
  3667 ;;      Locals:         0       0       0       0       0
  3668 ;;      Temps:          0       0       4       0       0
  3669 ;;      Totals:         0       0       6       0       0
  3670 ;;Total ram usage:        6 bytes
  3671 ;; Hardware stack levels used: 1
  3672 ;; Hardware stack levels required when called: 6
  3673 ;; This function calls:
  3674 ;;		___aldiv
  3675 ;;		___fldiv
  3676 ;;		___flmul
  3677 ;;		___fltol
  3678 ;;		___xxtofl
  3679 ;; This function is called by:
  3680 ;;		_Speed_R
  3681 ;; This function uses a non-reentrant model
  3682 ;;
  3683                           
  3684                           
  3685                           ;psect for function _PWM2_Set_Duty
  3686  087B                     _PWM2_Set_Duty:
  3687  087B                     l2413:	
  3688                           ;incstack = 0
  3689                           ; Regs used in _PWM2_Set_Duty: [wreg+status,2+status,0+btemp+1+pclath+cstack]
  3690                           
  3691                           
  3692                           ;MPU6050.c: 95: void PWM2_Set_Duty(unsigned int duty);MPU6050.c: 96: {;MPU6050.c: 97:   
      +                            if(duty < 1024)
  3693  087B  3004               	movlw	4
  3694  087C  1683               	bsf	3,5	;RP0=1, select bank1
  3695  087D  1303               	bcf	3,6	;RP1=0, select bank1
  3696  087E  0241               	subwf	(PWM2_Set_Duty@duty+1)^(0+128),w
  3697  087F  3000               	movlw	0
  3698  0880  1903               	skipnz
  3699  0881  0240               	subwf	PWM2_Set_Duty@duty^(0+128),w
  3700  0882  1803               	skipnc
  3701  0883  2885               	goto	u3351
  3702  0884  2886               	goto	u3350
  3703  0885                     u3351:
  3704  0885  294C               	goto	l299
  3705  0886                     u3350:
  3706  0886                     l2415:
  3707                           
  3708                           ;MPU6050.c: 98:     {;MPU6050.c: 99:         duty = ((float)duty/1023)*(20000000/(PWM_Fr
      +                          equency*4));
  3709  0886  0840               	movf	PWM2_Set_Duty@duty^(0+128),w
  3710  0887  1283               	bcf	3,5	;RP0=0, select bank0
  3711  0888  1303               	bcf	3,6	;RP1=0, select bank0
  3712  0889  00AF               	movwf	___xxtofl@val
  3713  088A  1683               	bsf	3,5	;RP0=1, select bank1
  3714  088B  1303               	bcf	3,6	;RP1=0, select bank1
  3715  088C  0841               	movf	(PWM2_Set_Duty@duty+1)^(0+128),w
  3716  088D  1283               	bcf	3,5	;RP0=0, select bank0
  3717  088E  1303               	bcf	3,6	;RP1=0, select bank0
  3718  088F  00B0               	movwf	___xxtofl@val+1
  3719  0890  01B1               	clrf	___xxtofl@val+2
  3720  0891  01B2               	clrf	___xxtofl@val+3
  3721  0892  3000               	movlw	0
  3722  0893  160A  118A  2672  120A  158A  	fcall	___xxtofl
  3723  0898  1283               	bcf	3,5	;RP0=0, select bank0
  3724  0899  1303               	bcf	3,6	;RP1=0, select bank0
  3725  089A  0832               	movf	?___xxtofl+3,w
  3726  089B  00C4               	movwf	___fldiv@b+3
  3727  089C  0831               	movf	?___xxtofl+2,w
  3728  089D  00C3               	movwf	___fldiv@b+2
  3729  089E  0830               	movf	?___xxtofl+1,w
  3730  089F  00C2               	movwf	___fldiv@b+1
  3731  08A0  082F               	movf	?___xxtofl,w
  3732  08A1  00C1               	movwf	___fldiv@b
  3733  08A2  3044               	movlw	68
  3734  08A3  00C0               	movwf	___fldiv@a+3
  3735  08A4  307F               	movlw	127
  3736  08A5  00BF               	movwf	___fldiv@a+2
  3737  08A6  30C0               	movlw	192
  3738  08A7  00BE               	movwf	___fldiv@a+1
  3739  08A8  3000               	movlw	0
  3740  08A9  00BD               	movwf	___fldiv@a
  3741  08AA  120A  118A  25A5  120A  158A  	fcall	___fldiv
  3742  08AF  1283               	bcf	3,5	;RP0=0, select bank0
  3743  08B0  1303               	bcf	3,6	;RP1=0, select bank0
  3744  08B1  0840               	movf	?___fldiv+3,w
  3745  08B2  00DE               	movwf	___flmul@a+3
  3746  08B3  083F               	movf	?___fldiv+2,w
  3747  08B4  00DD               	movwf	___flmul@a+2
  3748  08B5  083E               	movf	?___fldiv+1,w
  3749  08B6  00DC               	movwf	___flmul@a+1
  3750  08B7  083D               	movf	?___fldiv,w
  3751  08B8  00DB               	movwf	___flmul@a
  3752  08B9  3001               	movlw	1
  3753  08BA  00A7               	movwf	___aldiv@dividend+3
  3754  08BB  3031               	movlw	49
  3755  08BC  00A6               	movwf	___aldiv@dividend+2
  3756  08BD  302D               	movlw	45
  3757  08BE  00A5               	movwf	___aldiv@dividend+1
  3758  08BF  3000               	movlw	0
  3759  08C0  00A4               	movwf	___aldiv@dividend
  3760  08C1  1683               	bsf	3,5	;RP0=1, select bank1
  3761  08C2  1303               	bcf	3,6	;RP1=0, select bank1
  3762  08C3  086B               	movf	_PWM_Frequency^(0+128),w
  3763  08C4  00C2               	movwf	??_PWM2_Set_Duty^(0+128)
  3764  08C5  086C               	movf	(_PWM_Frequency+1)^(0+128),w
  3765  08C6  00C3               	movwf	(??_PWM2_Set_Duty^(0+128)+1)
  3766  08C7  086D               	movf	(_PWM_Frequency+2)^(0+128),w
  3767  08C8  00C4               	movwf	(??_PWM2_Set_Duty^(0+128)+2)
  3768  08C9  086E               	movf	(_PWM_Frequency+3)^(0+128),w
  3769  08CA  00C5               	movwf	(??_PWM2_Set_Duty^(0+128)+3)
  3770  08CB  3002               	movlw	2
  3771  08CC                     u3365:
  3772  08CC  1003               	clrc
  3773  08CD  0DC2               	rlf	??_PWM2_Set_Duty^(0+128),f
  3774  08CE  0DC3               	rlf	(??_PWM2_Set_Duty^(0+128)+1),f
  3775  08CF  0DC4               	rlf	(??_PWM2_Set_Duty^(0+128)+2),f
  3776  08D0  0DC5               	rlf	(??_PWM2_Set_Duty^(0+128)+3),f
  3777  08D1                     u3360:
  3778  08D1  3EFF               	addlw	-1
  3779  08D2  1D03               	skipz
  3780  08D3  28CC               	goto	u3365
  3781  08D4  0845               	movf	(??_PWM2_Set_Duty+3)^(0+128),w
  3782  08D5  1283               	bcf	3,5	;RP0=0, select bank0
  3783  08D6  1303               	bcf	3,6	;RP1=0, select bank0
  3784  08D7  00A3               	movwf	___aldiv@divisor+3
  3785  08D8  1683               	bsf	3,5	;RP0=1, select bank1
  3786  08D9  1303               	bcf	3,6	;RP1=0, select bank1
  3787  08DA  0844               	movf	(??_PWM2_Set_Duty+2)^(0+128),w
  3788  08DB  1283               	bcf	3,5	;RP0=0, select bank0
  3789  08DC  1303               	bcf	3,6	;RP1=0, select bank0
  3790  08DD  00A2               	movwf	___aldiv@divisor+2
  3791  08DE  1683               	bsf	3,5	;RP0=1, select bank1
  3792  08DF  1303               	bcf	3,6	;RP1=0, select bank1
  3793  08E0  0843               	movf	(??_PWM2_Set_Duty+1)^(0+128),w
  3794  08E1  1283               	bcf	3,5	;RP0=0, select bank0
  3795  08E2  1303               	bcf	3,6	;RP1=0, select bank0
  3796  08E3  00A1               	movwf	___aldiv@divisor+1
  3797  08E4  1683               	bsf	3,5	;RP0=1, select bank1
  3798  08E5  1303               	bcf	3,6	;RP1=0, select bank1
  3799  08E6  0842               	movf	??_PWM2_Set_Duty^(0+128),w
  3800  08E7  1283               	bcf	3,5	;RP0=0, select bank0
  3801  08E8  1303               	bcf	3,6	;RP1=0, select bank0
  3802  08E9  00A0               	movwf	___aldiv@divisor
  3803  08EA  160A  118A  2489  120A  158A  	fcall	___aldiv
  3804  08EF  1283               	bcf	3,5	;RP0=0, select bank0
  3805  08F0  1303               	bcf	3,6	;RP1=0, select bank0
  3806  08F1  0823               	movf	?___aldiv+3,w
  3807  08F2  00B2               	movwf	___xxtofl@val+3
  3808  08F3  0822               	movf	?___aldiv+2,w
  3809  08F4  00B1               	movwf	___xxtofl@val+2
  3810  08F5  0821               	movf	?___aldiv+1,w
  3811  08F6  00B0               	movwf	___xxtofl@val+1
  3812  08F7  0820               	movf	?___aldiv,w
  3813  08F8  00AF               	movwf	___xxtofl@val
  3814  08F9  3001               	movlw	1
  3815  08FA  160A  118A  2672  120A  158A  	fcall	___xxtofl
  3816  08FF  1283               	bcf	3,5	;RP0=0, select bank0
  3817  0900  1303               	bcf	3,6	;RP1=0, select bank0
  3818  0901  0832               	movf	?___xxtofl+3,w
  3819  0902  00DA               	movwf	___flmul@b+3
  3820  0903  0831               	movf	?___xxtofl+2,w
  3821  0904  00D9               	movwf	___flmul@b+2
  3822  0905  0830               	movf	?___xxtofl+1,w
  3823  0906  00D8               	movwf	___flmul@b+1
  3824  0907  082F               	movf	?___xxtofl,w
  3825  0908  00D7               	movwf	___flmul@b
  3826  0909  120A  118A  2046  120A  158A  	fcall	___flmul
  3827  090E  1283               	bcf	3,5	;RP0=0, select bank0
  3828  090F  1303               	bcf	3,6	;RP1=0, select bank0
  3829  0910  085A               	movf	?___flmul+3,w
  3830  0911  1683               	bsf	3,5	;RP0=1, select bank1
  3831  0912  1303               	bcf	3,6	;RP1=0, select bank1
  3832  0913  00B8               	movwf	(___fltol@f1+3)^(0+128)
  3833  0914  1283               	bcf	3,5	;RP0=0, select bank0
  3834  0915  1303               	bcf	3,6	;RP1=0, select bank0
  3835  0916  0859               	movf	?___flmul+2,w
  3836  0917  1683               	bsf	3,5	;RP0=1, select bank1
  3837  0918  1303               	bcf	3,6	;RP1=0, select bank1
  3838  0919  00B7               	movwf	(___fltol@f1+2)^(0+128)
  3839  091A  1283               	bcf	3,5	;RP0=0, select bank0
  3840  091B  1303               	bcf	3,6	;RP1=0, select bank0
  3841  091C  0858               	movf	?___flmul+1,w
  3842  091D  1683               	bsf	3,5	;RP0=1, select bank1
  3843  091E  1303               	bcf	3,6	;RP1=0, select bank1
  3844  091F  00B6               	movwf	(___fltol@f1+1)^(0+128)
  3845  0920  1283               	bcf	3,5	;RP0=0, select bank0
  3846  0921  1303               	bcf	3,6	;RP1=0, select bank0
  3847  0922  0857               	movf	?___flmul,w
  3848  0923  1683               	bsf	3,5	;RP0=1, select bank1
  3849  0924  1303               	bcf	3,6	;RP1=0, select bank1
  3850  0925  00B5               	movwf	___fltol@f1^(0+128)
  3851  0926  120A  118A  2782  120A  158A  	fcall	___fltol
  3852  092B  1683               	bsf	3,5	;RP0=1, select bank1
  3853  092C  1303               	bcf	3,6	;RP1=0, select bank1
  3854  092D  0836               	movf	(?___fltol+1)^(0+128),w
  3855  092E  00C1               	movwf	(PWM2_Set_Duty@duty+1)^(0+128)
  3856  092F  0835               	movf	?___fltol^(0+128),w
  3857  0930  00C0               	movwf	PWM2_Set_Duty@duty^(0+128)
  3858  0931                     l2417:
  3859                           
  3860                           ;MPU6050.c: 100:         CCP2X = duty & 1;
  3861  0931  1840               	btfsc	PWM2_Set_Duty@duty^(0+128),0
  3862  0932  2934               	goto	u3371
  3863  0933  2938               	goto	u3370
  3864  0934                     u3371:
  3865  0934  1283               	bcf	3,5	;RP0=0, select bank0
  3866  0935  1303               	bcf	3,6	;RP1=0, select bank0
  3867  0936  169D               	bsf	29,5	;volatile
  3868  0937  293B               	goto	u3384
  3869  0938                     u3370:
  3870  0938  1283               	bcf	3,5	;RP0=0, select bank0
  3871  0939  1303               	bcf	3,6	;RP1=0, select bank0
  3872  093A  129D               	bcf	29,5	;volatile
  3873  093B                     u3384:
  3874  093B                     l2419:
  3875                           
  3876                           ;MPU6050.c: 101:         CCP2Y = duty & 2;
  3877  093B  121D               	bcf	29,4	;volatile
  3878  093C                     l2421:
  3879                           
  3880                           ;MPU6050.c: 102:         CCPR2L = duty >> 2;
  3881  093C  1683               	bsf	3,5	;RP0=1, select bank1
  3882  093D  1303               	bcf	3,6	;RP1=0, select bank1
  3883  093E  0841               	movf	(PWM2_Set_Duty@duty+1)^(0+128),w
  3884  093F  00C3               	movwf	(??_PWM2_Set_Duty^(0+128)+1)
  3885  0940  0840               	movf	PWM2_Set_Duty@duty^(0+128),w
  3886  0941  00C2               	movwf	??_PWM2_Set_Duty^(0+128)
  3887  0942  1003               	clrc
  3888  0943  0CC3               	rrf	(??_PWM2_Set_Duty^(0+128)+1),f
  3889  0944  0CC2               	rrf	??_PWM2_Set_Duty^(0+128),f
  3890  0945  1003               	clrc
  3891  0946  0CC3               	rrf	(??_PWM2_Set_Duty^(0+128)+1),f
  3892  0947  0CC2               	rrf	??_PWM2_Set_Duty^(0+128),f
  3893  0948  0842               	movf	??_PWM2_Set_Duty^(0+128),w
  3894  0949  1283               	bcf	3,5	;RP0=0, select bank0
  3895  094A  1303               	bcf	3,6	;RP1=0, select bank0
  3896  094B  009B               	movwf	27	;volatile
  3897  094C                     l299:
  3898  094C  0008               	return
  3899  094D                     __end_of_PWM2_Set_Duty:
  3900                           
  3901                           	psect	text6
  3902  12AE                     __ptext6:	
  3903 ;; *************** function _Speed_L *****************
  3904 ;; Defined at:
  3905 ;;		line 13 in file "main.c"
  3906 ;; Parameters:    Size  Location     Type
  3907 ;;  speed           2   38[BANK1 ] int 
  3908 ;; Auto vars:     Size  Location     Type
  3909 ;;		None
  3910 ;; Return value:  Size  Location     Type
  3911 ;;                  1    wreg      void 
  3912 ;; Registers used:
  3913 ;;		wreg, status,2, status,0, btemp+1, pclath, cstack
  3914 ;; Tracked objects:
  3915 ;;		On entry : 0/0
  3916 ;;		On exit  : 0/0
  3917 ;;		Unchanged: 0/0
  3918 ;; Data sizes:     COMMON   BANK0   BANK1   BANK3   BANK2
  3919 ;;      Params:         0       0       2       0       0
  3920 ;;      Locals:         0       0       0       0       0
  3921 ;;      Temps:          0       0       0       0       0
  3922 ;;      Totals:         0       0       2       0       0
  3923 ;;Total ram usage:        2 bytes
  3924 ;; Hardware stack levels used: 1
  3925 ;; Hardware stack levels required when called: 7
  3926 ;; This function calls:
  3927 ;;		_PWM1_Set_Duty
  3928 ;;		_abs
  3929 ;; This function is called by:
  3930 ;;		_main
  3931 ;; This function uses a non-reentrant model
  3932 ;;
  3933                           
  3934                           
  3935                           ;psect for function _Speed_L
  3936  12AE                     _Speed_L:
  3937  12AE                     l2513:	
  3938                           ;incstack = 0
  3939                           ; Regs used in _Speed_L: [wreg+status,2+status,0+btemp+1+pclath+cstack]
  3940                           
  3941                           
  3942                           ;main.c: 13: void Speed_L(int speed);main.c: 14: {;main.c: 15:     if(speed > 0)
  3943  12AE  1683               	bsf	3,5	;RP0=1, select bank1
  3944  12AF  1303               	bcf	3,6	;RP1=0, select bank1
  3945  12B0  0847               	movf	(Speed_L@speed+1)^(0+128),w
  3946  12B1  3A80               	xorlw	128
  3947  12B2  00FF               	movwf	btemp+1
  3948  12B3  3080               	movlw	128
  3949  12B4  027F               	subwf	btemp+1,w
  3950  12B5  1D03               	skipz
  3951  12B6  2AB9               	goto	u3575
  3952  12B7  3001               	movlw	1
  3953  12B8  0246               	subwf	Speed_L@speed^(0+128),w
  3954  12B9                     u3575:
  3955  12B9  1C03               	skipc
  3956  12BA  2ABC               	goto	u3571
  3957  12BB  2ABD               	goto	u3570
  3958  12BC                     u3571:
  3959  12BC  2AC2               	goto	l29
  3960  12BD                     u3570:
  3961  12BD                     l2515:
  3962                           
  3963                           ;main.c: 16:     {;main.c: 17:         PORTDbits.RD7 = 1;
  3964  12BD  1283               	bcf	3,5	;RP0=0, select bank0
  3965  12BE  1303               	bcf	3,6	;RP1=0, select bank0
  3966  12BF  1788               	bsf	8,7	;volatile
  3967                           
  3968                           ;main.c: 18:         PORTDbits.RD6 = 0;
  3969  12C0  1308               	bcf	8,6	;volatile
  3970                           
  3971                           ;main.c: 19:     }
  3972  12C1  2ACC               	goto	l2519
  3973  12C2                     l29:	
  3974                           ;main.c: 20:     else if(speed < 0)
  3975                           
  3976  12C2  1683               	bsf	3,5	;RP0=1, select bank1
  3977  12C3  1303               	bcf	3,6	;RP1=0, select bank1
  3978  12C4  1FC7               	btfss	(Speed_L@speed+1)^(0+128),7
  3979  12C5  2AC7               	goto	u3581
  3980  12C6  2AC8               	goto	u3580
  3981  12C7                     u3581:
  3982  12C7  2ACC               	goto	l2519
  3983  12C8                     u3580:
  3984  12C8                     l2517:
  3985                           
  3986                           ;main.c: 21:     {;main.c: 22:         PORTDbits.RD7 = 0;
  3987  12C8  1283               	bcf	3,5	;RP0=0, select bank0
  3988  12C9  1303               	bcf	3,6	;RP1=0, select bank0
  3989  12CA  1388               	bcf	8,7	;volatile
  3990                           
  3991                           ;main.c: 23:         PORTDbits.RD6 = 1;
  3992  12CB  1708               	bsf	8,6	;volatile
  3993  12CC                     l2519:
  3994                           
  3995                           ;main.c: 25:     PWM1_Set_Duty(abs(speed));
  3996  12CC  1683               	bsf	3,5	;RP0=1, select bank1
  3997  12CD  1303               	bcf	3,6	;RP1=0, select bank1
  3998  12CE  0847               	movf	(Speed_L@speed+1)^(0+128),w
  3999  12CF  1283               	bcf	3,5	;RP0=0, select bank0
  4000  12D0  1303               	bcf	3,6	;RP1=0, select bank0
  4001  12D1  00A1               	movwf	abs@a+1
  4002  12D2  1683               	bsf	3,5	;RP0=1, select bank1
  4003  12D3  1303               	bcf	3,6	;RP1=0, select bank1
  4004  12D4  0846               	movf	Speed_L@speed^(0+128),w
  4005  12D5  1283               	bcf	3,5	;RP0=0, select bank0
  4006  12D6  1303               	bcf	3,6	;RP1=0, select bank0
  4007  12D7  00A0               	movwf	abs@a
  4008  12D8  160A  118A  2125  160A  118A  	fcall	_abs
  4009  12DD  1283               	bcf	3,5	;RP0=0, select bank0
  4010  12DE  1303               	bcf	3,6	;RP1=0, select bank0
  4011  12DF  0821               	movf	?_abs+1,w
  4012  12E0  1683               	bsf	3,5	;RP0=1, select bank1
  4013  12E1  1303               	bcf	3,6	;RP1=0, select bank1
  4014  12E2  00C1               	movwf	(PWM1_Set_Duty@duty+1)^(0+128)
  4015  12E3  1283               	bcf	3,5	;RP0=0, select bank0
  4016  12E4  1303               	bcf	3,6	;RP1=0, select bank0
  4017  12E5  0820               	movf	?_abs,w
  4018  12E6  1683               	bsf	3,5	;RP0=1, select bank1
  4019  12E7  1303               	bcf	3,6	;RP1=0, select bank1
  4020  12E8  00C0               	movwf	PWM1_Set_Duty@duty^(0+128)
  4021  12E9  160A  118A  272E  160A  118A  	fcall	_PWM1_Set_Duty
  4022  12EE                     l32:
  4023  12EE  0008               	return
  4024  12EF                     __end_of_Speed_L:
  4025                           
  4026                           	psect	text7
  4027  1125                     __ptext7:	
  4028 ;; *************** function _abs *****************
  4029 ;; Defined at:
  4030 ;;		line 4 in file "D:\File Install MBLAB IDE\XC8\pic\sources\c90\common\abs.c"
  4031 ;; Parameters:    Size  Location     Type
  4032 ;;  a               2    0[BANK0 ] int 
  4033 ;; Auto vars:     Size  Location     Type
  4034 ;;		None
  4035 ;; Return value:  Size  Location     Type
  4036 ;;                  2    0[BANK0 ] int 
  4037 ;; Registers used:
  4038 ;;		wreg, status,2, status,0
  4039 ;; Tracked objects:
  4040 ;;		On entry : 0/0
  4041 ;;		On exit  : 0/0
  4042 ;;		Unchanged: 0/0
  4043 ;; Data sizes:     COMMON   BANK0   BANK1   BANK3   BANK2
  4044 ;;      Params:         0       2       0       0       0
  4045 ;;      Locals:         0       0       0       0       0
  4046 ;;      Temps:          0       2       0       0       0
  4047 ;;      Totals:         0       4       0       0       0
  4048 ;;Total ram usage:        4 bytes
  4049 ;; Hardware stack levels used: 1
  4050 ;; Hardware stack levels required when called: 4
  4051 ;; This function calls:
  4052 ;;		Nothing
  4053 ;; This function is called by:
  4054 ;;		_Speed_L
  4055 ;;		_Speed_R
  4056 ;; This function uses a non-reentrant model
  4057 ;;
  4058                           
  4059                           
  4060                           ;psect for function _abs
  4061  1125                     _abs:
  4062  1125                     l2397:	
  4063                           ;incstack = 0
  4064                           ; Regs used in _abs: [wreg+status,2+status,0]
  4065                           
  4066  1125  1283               	bcf	3,5	;RP0=0, select bank0
  4067  1126  1303               	bcf	3,6	;RP1=0, select bank0
  4068  1127  1FA1               	btfss	abs@a+1,7
  4069  1128  292A               	goto	u3301
  4070  1129  292B               	goto	u3300
  4071  112A                     u3301:
  4072  112A  2937               	goto	l848
  4073  112B                     u3300:
  4074  112B                     l2399:
  4075  112B  0920               	comf	abs@a,w
  4076  112C  00A2               	movwf	??_abs
  4077  112D  0921               	comf	abs@a+1,w
  4078  112E  00A3               	movwf	??_abs+1
  4079  112F  0AA2               	incf	??_abs,f
  4080  1130  1903               	skipnz
  4081  1131  0AA3               	incf	??_abs+1,f
  4082  1132  0822               	movf	??_abs,w
  4083  1133  00A0               	movwf	?_abs
  4084  1134  0823               	movf	??_abs+1,w
  4085  1135  00A1               	movwf	?_abs+1
  4086  1136  2937               	goto	l849
  4087  1137                     l848:
  4088  1137                     l849:
  4089  1137  0008               	return
  4090  1138                     __end_of_abs:
  4091                           
  4092                           	psect	text8
  4093  172E                     __ptext8:	
  4094 ;; *************** function _PWM1_Set_Duty *****************
  4095 ;; Defined at:
  4096 ;;		line 85 in file "MPU6050.c"
  4097 ;; Parameters:    Size  Location     Type
  4098 ;;  duty            2   32[BANK1 ] unsigned int 
  4099 ;; Auto vars:     Size  Location     Type
  4100 ;;		None
  4101 ;; Return value:  Size  Location     Type
  4102 ;;                  1    wreg      void 
  4103 ;; Registers used:
  4104 ;;		wreg, status,2, status,0, btemp+1, pclath, cstack
  4105 ;; Tracked objects:
  4106 ;;		On entry : 0/0
  4107 ;;		On exit  : 0/0
  4108 ;;		Unchanged: 0/0
  4109 ;; Data sizes:     COMMON   BANK0   BANK1   BANK3   BANK2
  4110 ;;      Params:         0       0       2       0       0
  4111 ;;      Locals:         0       0       0       0       0
  4112 ;;      Temps:          0       0       4       0       0
  4113 ;;      Totals:         0       0       6       0       0
  4114 ;;Total ram usage:        6 bytes
  4115 ;; Hardware stack levels used: 1
  4116 ;; Hardware stack levels required when called: 6
  4117 ;; This function calls:
  4118 ;;		___aldiv
  4119 ;;		___fldiv
  4120 ;;		___flmul
  4121 ;;		___fltol
  4122 ;;		___xxtofl
  4123 ;; This function is called by:
  4124 ;;		_Speed_L
  4125 ;; This function uses a non-reentrant model
  4126 ;;
  4127                           
  4128                           
  4129                           ;psect for function _PWM1_Set_Duty
  4130  172E                     _PWM1_Set_Duty:
  4131  172E                     l2403:	
  4132                           ;incstack = 0
  4133                           ; Regs used in _PWM1_Set_Duty: [wreg+status,2+status,0+btemp+1+pclath+cstack]
  4134                           
  4135                           
  4136                           ;MPU6050.c: 85: void PWM1_Set_Duty(unsigned int duty);MPU6050.c: 86: {;MPU6050.c: 87:   
      +                            if(duty < 1024)
  4137  172E  3004               	movlw	4
  4138  172F  1683               	bsf	3,5	;RP0=1, select bank1
  4139  1730  1303               	bcf	3,6	;RP1=0, select bank1
  4140  1731  0241               	subwf	(PWM1_Set_Duty@duty+1)^(0+128),w
  4141  1732  3000               	movlw	0
  4142  1733  1903               	skipnz
  4143  1734  0240               	subwf	PWM1_Set_Duty@duty^(0+128),w
  4144  1735  1803               	skipnc
  4145  1736  2F38               	goto	u3311
  4146  1737  2F39               	goto	u3310
  4147  1738                     u3311:
  4148  1738  2FFF               	goto	l295
  4149  1739                     u3310:
  4150  1739                     l2405:
  4151                           
  4152                           ;MPU6050.c: 88:     {;MPU6050.c: 89:         duty = ((float)duty/1023)*(20000000/(PWM_Fr
      +                          equency*4));
  4153  1739  0840               	movf	PWM1_Set_Duty@duty^(0+128),w
  4154  173A  1283               	bcf	3,5	;RP0=0, select bank0
  4155  173B  1303               	bcf	3,6	;RP1=0, select bank0
  4156  173C  00AF               	movwf	___xxtofl@val
  4157  173D  1683               	bsf	3,5	;RP0=1, select bank1
  4158  173E  1303               	bcf	3,6	;RP1=0, select bank1
  4159  173F  0841               	movf	(PWM1_Set_Duty@duty+1)^(0+128),w
  4160  1740  1283               	bcf	3,5	;RP0=0, select bank0
  4161  1741  1303               	bcf	3,6	;RP1=0, select bank0
  4162  1742  00B0               	movwf	___xxtofl@val+1
  4163  1743  01B1               	clrf	___xxtofl@val+2
  4164  1744  01B2               	clrf	___xxtofl@val+3
  4165  1745  3000               	movlw	0
  4166  1746  160A  118A  2672  160A  118A  	fcall	___xxtofl
  4167  174B  1283               	bcf	3,5	;RP0=0, select bank0
  4168  174C  1303               	bcf	3,6	;RP1=0, select bank0
  4169  174D  0832               	movf	?___xxtofl+3,w
  4170  174E  00C4               	movwf	___fldiv@b+3
  4171  174F  0831               	movf	?___xxtofl+2,w
  4172  1750  00C3               	movwf	___fldiv@b+2
  4173  1751  0830               	movf	?___xxtofl+1,w
  4174  1752  00C2               	movwf	___fldiv@b+1
  4175  1753  082F               	movf	?___xxtofl,w
  4176  1754  00C1               	movwf	___fldiv@b
  4177  1755  3044               	movlw	68
  4178  1756  00C0               	movwf	___fldiv@a+3
  4179  1757  307F               	movlw	127
  4180  1758  00BF               	movwf	___fldiv@a+2
  4181  1759  30C0               	movlw	192
  4182  175A  00BE               	movwf	___fldiv@a+1
  4183  175B  3000               	movlw	0
  4184  175C  00BD               	movwf	___fldiv@a
  4185  175D  120A  118A  25A5  160A  118A  	fcall	___fldiv
  4186  1762  1283               	bcf	3,5	;RP0=0, select bank0
  4187  1763  1303               	bcf	3,6	;RP1=0, select bank0
  4188  1764  0840               	movf	?___fldiv+3,w
  4189  1765  00DE               	movwf	___flmul@a+3
  4190  1766  083F               	movf	?___fldiv+2,w
  4191  1767  00DD               	movwf	___flmul@a+2
  4192  1768  083E               	movf	?___fldiv+1,w
  4193  1769  00DC               	movwf	___flmul@a+1
  4194  176A  083D               	movf	?___fldiv,w
  4195  176B  00DB               	movwf	___flmul@a
  4196  176C  3001               	movlw	1
  4197  176D  00A7               	movwf	___aldiv@dividend+3
  4198  176E  3031               	movlw	49
  4199  176F  00A6               	movwf	___aldiv@dividend+2
  4200  1770  302D               	movlw	45
  4201  1771  00A5               	movwf	___aldiv@dividend+1
  4202  1772  3000               	movlw	0
  4203  1773  00A4               	movwf	___aldiv@dividend
  4204  1774  1683               	bsf	3,5	;RP0=1, select bank1
  4205  1775  1303               	bcf	3,6	;RP1=0, select bank1
  4206  1776  086B               	movf	_PWM_Frequency^(0+128),w
  4207  1777  00C2               	movwf	??_PWM1_Set_Duty^(0+128)
  4208  1778  086C               	movf	(_PWM_Frequency+1)^(0+128),w
  4209  1779  00C3               	movwf	(??_PWM1_Set_Duty^(0+128)+1)
  4210  177A  086D               	movf	(_PWM_Frequency+2)^(0+128),w
  4211  177B  00C4               	movwf	(??_PWM1_Set_Duty^(0+128)+2)
  4212  177C  086E               	movf	(_PWM_Frequency+3)^(0+128),w
  4213  177D  00C5               	movwf	(??_PWM1_Set_Duty^(0+128)+3)
  4214  177E  3002               	movlw	2
  4215  177F                     u3325:
  4216  177F  1003               	clrc
  4217  1780  0DC2               	rlf	??_PWM1_Set_Duty^(0+128),f
  4218  1781  0DC3               	rlf	(??_PWM1_Set_Duty^(0+128)+1),f
  4219  1782  0DC4               	rlf	(??_PWM1_Set_Duty^(0+128)+2),f
  4220  1783  0DC5               	rlf	(??_PWM1_Set_Duty^(0+128)+3),f
  4221  1784                     u3320:
  4222  1784  3EFF               	addlw	-1
  4223  1785  1D03               	skipz
  4224  1786  2F7F               	goto	u3325
  4225  1787  0845               	movf	(??_PWM1_Set_Duty+3)^(0+128),w
  4226  1788  1283               	bcf	3,5	;RP0=0, select bank0
  4227  1789  1303               	bcf	3,6	;RP1=0, select bank0
  4228  178A  00A3               	movwf	___aldiv@divisor+3
  4229  178B  1683               	bsf	3,5	;RP0=1, select bank1
  4230  178C  1303               	bcf	3,6	;RP1=0, select bank1
  4231  178D  0844               	movf	(??_PWM1_Set_Duty+2)^(0+128),w
  4232  178E  1283               	bcf	3,5	;RP0=0, select bank0
  4233  178F  1303               	bcf	3,6	;RP1=0, select bank0
  4234  1790  00A2               	movwf	___aldiv@divisor+2
  4235  1791  1683               	bsf	3,5	;RP0=1, select bank1
  4236  1792  1303               	bcf	3,6	;RP1=0, select bank1
  4237  1793  0843               	movf	(??_PWM1_Set_Duty+1)^(0+128),w
  4238  1794  1283               	bcf	3,5	;RP0=0, select bank0
  4239  1795  1303               	bcf	3,6	;RP1=0, select bank0
  4240  1796  00A1               	movwf	___aldiv@divisor+1
  4241  1797  1683               	bsf	3,5	;RP0=1, select bank1
  4242  1798  1303               	bcf	3,6	;RP1=0, select bank1
  4243  1799  0842               	movf	??_PWM1_Set_Duty^(0+128),w
  4244  179A  1283               	bcf	3,5	;RP0=0, select bank0
  4245  179B  1303               	bcf	3,6	;RP1=0, select bank0
  4246  179C  00A0               	movwf	___aldiv@divisor
  4247  179D  160A  118A  2489  160A  118A  	fcall	___aldiv
  4248  17A2  1283               	bcf	3,5	;RP0=0, select bank0
  4249  17A3  1303               	bcf	3,6	;RP1=0, select bank0
  4250  17A4  0823               	movf	?___aldiv+3,w
  4251  17A5  00B2               	movwf	___xxtofl@val+3
  4252  17A6  0822               	movf	?___aldiv+2,w
  4253  17A7  00B1               	movwf	___xxtofl@val+2
  4254  17A8  0821               	movf	?___aldiv+1,w
  4255  17A9  00B0               	movwf	___xxtofl@val+1
  4256  17AA  0820               	movf	?___aldiv,w
  4257  17AB  00AF               	movwf	___xxtofl@val
  4258  17AC  3001               	movlw	1
  4259  17AD  160A  118A  2672  160A  118A  	fcall	___xxtofl
  4260  17B2  1283               	bcf	3,5	;RP0=0, select bank0
  4261  17B3  1303               	bcf	3,6	;RP1=0, select bank0
  4262  17B4  0832               	movf	?___xxtofl+3,w
  4263  17B5  00DA               	movwf	___flmul@b+3
  4264  17B6  0831               	movf	?___xxtofl+2,w
  4265  17B7  00D9               	movwf	___flmul@b+2
  4266  17B8  0830               	movf	?___xxtofl+1,w
  4267  17B9  00D8               	movwf	___flmul@b+1
  4268  17BA  082F               	movf	?___xxtofl,w
  4269  17BB  00D7               	movwf	___flmul@b
  4270  17BC  120A  118A  2046  160A  118A  	fcall	___flmul
  4271  17C1  1283               	bcf	3,5	;RP0=0, select bank0
  4272  17C2  1303               	bcf	3,6	;RP1=0, select bank0
  4273  17C3  085A               	movf	?___flmul+3,w
  4274  17C4  1683               	bsf	3,5	;RP0=1, select bank1
  4275  17C5  1303               	bcf	3,6	;RP1=0, select bank1
  4276  17C6  00B8               	movwf	(___fltol@f1+3)^(0+128)
  4277  17C7  1283               	bcf	3,5	;RP0=0, select bank0
  4278  17C8  1303               	bcf	3,6	;RP1=0, select bank0
  4279  17C9  0859               	movf	?___flmul+2,w
  4280  17CA  1683               	bsf	3,5	;RP0=1, select bank1
  4281  17CB  1303               	bcf	3,6	;RP1=0, select bank1
  4282  17CC  00B7               	movwf	(___fltol@f1+2)^(0+128)
  4283  17CD  1283               	bcf	3,5	;RP0=0, select bank0
  4284  17CE  1303               	bcf	3,6	;RP1=0, select bank0
  4285  17CF  0858               	movf	?___flmul+1,w
  4286  17D0  1683               	bsf	3,5	;RP0=1, select bank1
  4287  17D1  1303               	bcf	3,6	;RP1=0, select bank1
  4288  17D2  00B6               	movwf	(___fltol@f1+1)^(0+128)
  4289  17D3  1283               	bcf	3,5	;RP0=0, select bank0
  4290  17D4  1303               	bcf	3,6	;RP1=0, select bank0
  4291  17D5  0857               	movf	?___flmul,w
  4292  17D6  1683               	bsf	3,5	;RP0=1, select bank1
  4293  17D7  1303               	bcf	3,6	;RP1=0, select bank1
  4294  17D8  00B5               	movwf	___fltol@f1^(0+128)
  4295  17D9  120A  118A  2782  160A  118A  	fcall	___fltol
  4296  17DE  1683               	bsf	3,5	;RP0=1, select bank1
  4297  17DF  1303               	bcf	3,6	;RP1=0, select bank1
  4298  17E0  0836               	movf	(?___fltol+1)^(0+128),w
  4299  17E1  00C1               	movwf	(PWM1_Set_Duty@duty+1)^(0+128)
  4300  17E2  0835               	movf	?___fltol^(0+128),w
  4301  17E3  00C0               	movwf	PWM1_Set_Duty@duty^(0+128)
  4302  17E4                     l2407:
  4303                           
  4304                           ;MPU6050.c: 90:         CCP1X = duty & 1;
  4305  17E4  1840               	btfsc	PWM1_Set_Duty@duty^(0+128),0
  4306  17E5  2FE7               	goto	u3331
  4307  17E6  2FEB               	goto	u3330
  4308  17E7                     u3331:
  4309  17E7  1283               	bcf	3,5	;RP0=0, select bank0
  4310  17E8  1303               	bcf	3,6	;RP1=0, select bank0
  4311  17E9  1697               	bsf	23,5	;volatile
  4312  17EA  2FEE               	goto	u3344
  4313  17EB                     u3330:
  4314  17EB  1283               	bcf	3,5	;RP0=0, select bank0
  4315  17EC  1303               	bcf	3,6	;RP1=0, select bank0
  4316  17ED  1297               	bcf	23,5	;volatile
  4317  17EE                     u3344:
  4318  17EE                     l2409:
  4319                           
  4320                           ;MPU6050.c: 91:         CCP1Y = duty & 2;
  4321  17EE  1217               	bcf	23,4	;volatile
  4322  17EF                     l2411:
  4323                           
  4324                           ;MPU6050.c: 92:         CCPR1L = duty >> 2;
  4325  17EF  1683               	bsf	3,5	;RP0=1, select bank1
  4326  17F0  1303               	bcf	3,6	;RP1=0, select bank1
  4327  17F1  0841               	movf	(PWM1_Set_Duty@duty+1)^(0+128),w
  4328  17F2  00C3               	movwf	(??_PWM1_Set_Duty^(0+128)+1)
  4329  17F3  0840               	movf	PWM1_Set_Duty@duty^(0+128),w
  4330  17F4  00C2               	movwf	??_PWM1_Set_Duty^(0+128)
  4331  17F5  1003               	clrc
  4332  17F6  0CC3               	rrf	(??_PWM1_Set_Duty^(0+128)+1),f
  4333  17F7  0CC2               	rrf	??_PWM1_Set_Duty^(0+128),f
  4334  17F8  1003               	clrc
  4335  17F9  0CC3               	rrf	(??_PWM1_Set_Duty^(0+128)+1),f
  4336  17FA  0CC2               	rrf	??_PWM1_Set_Duty^(0+128),f
  4337  17FB  0842               	movf	??_PWM1_Set_Duty^(0+128),w
  4338  17FC  1283               	bcf	3,5	;RP0=0, select bank0
  4339  17FD  1303               	bcf	3,6	;RP1=0, select bank0
  4340  17FE  0095               	movwf	21	;volatile
  4341  17FF                     l295:
  4342  17FF  0008               	return
  4343  1800                     __end_of_PWM1_Set_Duty:
  4344                           
  4345                           	psect	text9
  4346  1672                     __ptext9:	
  4347 ;; *************** function ___xxtofl *****************
  4348 ;; Defined at:
  4349 ;;		line 10 in file "D:\File Install MBLAB IDE\XC8\pic\sources\c90\common\xxtofl.c"
  4350 ;; Parameters:    Size  Location     Type
  4351 ;;  sign            1    wreg     unsigned char 
  4352 ;;  val             4   15[BANK0 ] long 
  4353 ;; Auto vars:     Size  Location     Type
  4354 ;;  sign            1   23[BANK0 ] unsigned char 
  4355 ;;  arg             4   25[BANK0 ] unsigned long 
  4356 ;;  exp             1   24[BANK0 ] unsigned char 
  4357 ;; Return value:  Size  Location     Type
  4358 ;;                  4   15[BANK0 ] unsigned char 
  4359 ;; Registers used:
  4360 ;;		wreg, status,2, status,0
  4361 ;; Tracked objects:
  4362 ;;		On entry : 0/0
  4363 ;;		On exit  : 0/0
  4364 ;;		Unchanged: 0/0
  4365 ;; Data sizes:     COMMON   BANK0   BANK1   BANK3   BANK2
  4366 ;;      Params:         0       4       0       0       0
  4367 ;;      Locals:         0       6       0       0       0
  4368 ;;      Temps:          0       4       0       0       0
  4369 ;;      Totals:         0      14       0       0       0
  4370 ;;Total ram usage:       14 bytes
  4371 ;; Hardware stack levels used: 1
  4372 ;; Hardware stack levels required when called: 4
  4373 ;; This function calls:
  4374 ;;		Nothing
  4375 ;; This function is called by:
  4376 ;;		_main
  4377 ;;		_constrain
  4378 ;;		_PWM1_Set_Duty
  4379 ;;		_PWM2_Set_Duty
  4380 ;; This function uses a non-reentrant model
  4381 ;;
  4382                           
  4383                           
  4384                           ;psect for function ___xxtofl
  4385  1672                     ___xxtofl:
  4386                           
  4387                           ;incstack = 0
  4388                           ; Regs used in ___xxtofl: [wreg+status,2+status,0]
  4389                           ;___xxtofl@sign stored from wreg
  4390  1672  1283               	bcf	3,5	;RP0=0, select bank0
  4391  1673  1303               	bcf	3,6	;RP1=0, select bank0
  4392  1674  00B7               	movwf	___xxtofl@sign
  4393  1675                     l2353:
  4394  1675  0837               	movf	___xxtofl@sign,w
  4395  1676  1903               	btfsc	3,2
  4396  1677  2E79               	goto	u3161
  4397  1678  2E7A               	goto	u3160
  4398  1679                     u3161:
  4399  1679  2E8E               	goto	l2359
  4400  167A                     u3160:
  4401  167A                     l2355:
  4402  167A  1FB2               	btfss	___xxtofl@val+3,7
  4403  167B  2E7D               	goto	u3171
  4404  167C  2E7E               	goto	u3170
  4405  167D                     u3171:
  4406  167D  2E8E               	goto	l2359
  4407  167E                     u3170:
  4408  167E                     l2357:
  4409  167E  092F               	comf	___xxtofl@val,w
  4410  167F  00B9               	movwf	___xxtofl@arg
  4411  1680  0930               	comf	___xxtofl@val+1,w
  4412  1681  00BA               	movwf	___xxtofl@arg+1
  4413  1682  0931               	comf	___xxtofl@val+2,w
  4414  1683  00BB               	movwf	___xxtofl@arg+2
  4415  1684  0932               	comf	___xxtofl@val+3,w
  4416  1685  00BC               	movwf	___xxtofl@arg+3
  4417  1686  0AB9               	incf	___xxtofl@arg,f
  4418  1687  1903               	skipnz
  4419  1688  0ABA               	incf	___xxtofl@arg+1,f
  4420  1689  1903               	skipnz
  4421  168A  0ABB               	incf	___xxtofl@arg+2,f
  4422  168B  1903               	skipnz
  4423  168C  0ABC               	incf	___xxtofl@arg+3,f
  4424  168D  2E96               	goto	l830
  4425  168E                     l2359:
  4426  168E  0832               	movf	___xxtofl@val+3,w
  4427  168F  00BC               	movwf	___xxtofl@arg+3
  4428  1690  0831               	movf	___xxtofl@val+2,w
  4429  1691  00BB               	movwf	___xxtofl@arg+2
  4430  1692  0830               	movf	___xxtofl@val+1,w
  4431  1693  00BA               	movwf	___xxtofl@arg+1
  4432  1694  082F               	movf	___xxtofl@val,w
  4433  1695  00B9               	movwf	___xxtofl@arg
  4434  1696                     l830:
  4435  1696  0832               	movf	___xxtofl@val+3,w
  4436  1697  0431               	iorwf	___xxtofl@val+2,w
  4437  1698  0430               	iorwf	___xxtofl@val+1,w
  4438  1699  042F               	iorwf	___xxtofl@val,w
  4439  169A  1D03               	skipz
  4440  169B  2E9D               	goto	u3181
  4441  169C  2E9E               	goto	u3180
  4442  169D                     u3181:
  4443  169D  2EA7               	goto	l2365
  4444  169E                     u3180:
  4445  169E                     l2361:
  4446  169E  3000               	movlw	0
  4447  169F  00B2               	movwf	?___xxtofl+3
  4448  16A0  3000               	movlw	0
  4449  16A1  00B1               	movwf	?___xxtofl+2
  4450  16A2  3000               	movlw	0
  4451  16A3  00B0               	movwf	?___xxtofl+1
  4452  16A4  3000               	movlw	0
  4453  16A5  00AF               	movwf	?___xxtofl
  4454  16A6  2F2D               	goto	l832
  4455  16A7                     l2365:
  4456  16A7  3096               	movlw	150
  4457  16A8  00B3               	movwf	??___xxtofl
  4458  16A9  0833               	movf	??___xxtofl,w
  4459  16AA  00B8               	movwf	___xxtofl@exp
  4460  16AB  2EB9               	goto	l2369
  4461  16AC                     l2367:
  4462  16AC  3001               	movlw	1
  4463  16AD  00B3               	movwf	??___xxtofl
  4464  16AE  0833               	movf	??___xxtofl,w
  4465  16AF  07B8               	addwf	___xxtofl@exp,f
  4466  16B0  3001               	movlw	1
  4467  16B1                     u3195:
  4468  16B1  1003               	clrc
  4469  16B2  0CBC               	rrf	___xxtofl@arg+3,f
  4470  16B3  0CBB               	rrf	___xxtofl@arg+2,f
  4471  16B4  0CBA               	rrf	___xxtofl@arg+1,f
  4472  16B5  0CB9               	rrf	___xxtofl@arg,f
  4473  16B6  3EFF               	addlw	-1
  4474  16B7  1D03               	skipz
  4475  16B8  2EB1               	goto	u3195
  4476  16B9                     l2369:
  4477  16B9  30FE               	movlw	254
  4478  16BA  053C               	andwf	___xxtofl@arg+3,w
  4479  16BB  1D03               	btfss	3,2
  4480  16BC  2EBE               	goto	u3201
  4481  16BD  2EBF               	goto	u3200
  4482  16BE                     u3201:
  4483  16BE  2EAC               	goto	l2367
  4484  16BF                     u3200:
  4485  16BF  2EDB               	goto	l836
  4486  16C0                     l2371:
  4487  16C0  3001               	movlw	1
  4488  16C1  00B3               	movwf	??___xxtofl
  4489  16C2  0833               	movf	??___xxtofl,w
  4490  16C3  07B8               	addwf	___xxtofl@exp,f
  4491  16C4                     l2373:
  4492  16C4  3001               	movlw	1
  4493  16C5  07B9               	addwf	___xxtofl@arg,f
  4494  16C6  3000               	movlw	0
  4495  16C7  1803               	skipnc
  4496  16C8  3001               	movlw	1
  4497  16C9  07BA               	addwf	___xxtofl@arg+1,f
  4498  16CA  3000               	movlw	0
  4499  16CB  1803               	skipnc
  4500  16CC  3001               	movlw	1
  4501  16CD  07BB               	addwf	___xxtofl@arg+2,f
  4502  16CE  3000               	movlw	0
  4503  16CF  1803               	skipnc
  4504  16D0  3001               	movlw	1
  4505  16D1  07BC               	addwf	___xxtofl@arg+3,f
  4506  16D2                     l2375:
  4507  16D2  3001               	movlw	1
  4508  16D3                     u3215:
  4509  16D3  1003               	clrc
  4510  16D4  0CBC               	rrf	___xxtofl@arg+3,f
  4511  16D5  0CBB               	rrf	___xxtofl@arg+2,f
  4512  16D6  0CBA               	rrf	___xxtofl@arg+1,f
  4513  16D7  0CB9               	rrf	___xxtofl@arg,f
  4514  16D8  3EFF               	addlw	-1
  4515  16D9  1D03               	skipz
  4516  16DA  2ED3               	goto	u3215
  4517  16DB                     l836:
  4518  16DB  30FF               	movlw	255
  4519  16DC  053C               	andwf	___xxtofl@arg+3,w
  4520  16DD  1D03               	btfss	3,2
  4521  16DE  2EE0               	goto	u3221
  4522  16DF  2EE1               	goto	u3220
  4523  16E0                     u3221:
  4524  16E0  2EC0               	goto	l2371
  4525  16E1                     u3220:
  4526  16E1  2EED               	goto	l2379
  4527  16E2                     l2377:
  4528  16E2  3001               	movlw	1
  4529  16E3  02B8               	subwf	___xxtofl@exp,f
  4530  16E4  3001               	movlw	1
  4531  16E5  00B3               	movwf	??___xxtofl
  4532  16E6                     u3235:
  4533  16E6  1003               	clrc
  4534  16E7  0DB9               	rlf	___xxtofl@arg,f
  4535  16E8  0DBA               	rlf	___xxtofl@arg+1,f
  4536  16E9  0DBB               	rlf	___xxtofl@arg+2,f
  4537  16EA  0DBC               	rlf	___xxtofl@arg+3,f
  4538  16EB  0BB3               	decfsz	??___xxtofl,f
  4539  16EC  2EE6               	goto	u3235
  4540  16ED                     l2379:
  4541  16ED  1BBB               	btfsc	___xxtofl@arg+2,7
  4542  16EE  2EF0               	goto	u3241
  4543  16EF  2EF1               	goto	u3240
  4544  16F0                     u3241:
  4545  16F0  2EF7               	goto	l843
  4546  16F1                     u3240:
  4547  16F1                     l2381:
  4548  16F1  3002               	movlw	2
  4549  16F2  0238               	subwf	___xxtofl@exp,w
  4550  16F3  1803               	skipnc
  4551  16F4  2EF6               	goto	u3251
  4552  16F5  2EF7               	goto	u3250
  4553  16F6                     u3251:
  4554  16F6  2EE2               	goto	l2377
  4555  16F7                     u3250:
  4556  16F7                     l843:
  4557  16F7  1838               	btfsc	___xxtofl@exp,0
  4558  16F8  2EFA               	goto	u3261
  4559  16F9  2EFB               	goto	u3260
  4560  16FA                     u3261:
  4561  16FA  2F03               	goto	l844
  4562  16FB                     u3260:
  4563  16FB                     l2383:
  4564  16FB  30FF               	movlw	255
  4565  16FC  05B9               	andwf	___xxtofl@arg,f
  4566  16FD  30FF               	movlw	255
  4567  16FE  05BA               	andwf	___xxtofl@arg+1,f
  4568  16FF  307F               	movlw	127
  4569  1700  05BB               	andwf	___xxtofl@arg+2,f
  4570  1701  30FF               	movlw	255
  4571  1702  05BC               	andwf	___xxtofl@arg+3,f
  4572  1703                     l844:
  4573  1703  1003               	clrc
  4574  1704  0CB8               	rrf	___xxtofl@exp,f
  4575  1705                     l2385:
  4576  1705  0838               	movf	___xxtofl@exp,w
  4577  1706  00B3               	movwf	??___xxtofl
  4578  1707  01B4               	clrf	??___xxtofl+1
  4579  1708  01B5               	clrf	??___xxtofl+2
  4580  1709  01B6               	clrf	??___xxtofl+3
  4581  170A  3018               	movlw	24
  4582  170B                     u3275:
  4583  170B  1003               	clrc
  4584  170C  0DB3               	rlf	??___xxtofl,f
  4585  170D  0DB4               	rlf	??___xxtofl+1,f
  4586  170E  0DB5               	rlf	??___xxtofl+2,f
  4587  170F  0DB6               	rlf	??___xxtofl+3,f
  4588  1710                     u3270:
  4589  1710  3EFF               	addlw	-1
  4590  1711  1D03               	skipz
  4591  1712  2F0B               	goto	u3275
  4592  1713  0833               	movf	??___xxtofl,w
  4593  1714  04B9               	iorwf	___xxtofl@arg,f
  4594  1715  0834               	movf	??___xxtofl+1,w
  4595  1716  04BA               	iorwf	___xxtofl@arg+1,f
  4596  1717  0835               	movf	??___xxtofl+2,w
  4597  1718  04BB               	iorwf	___xxtofl@arg+2,f
  4598  1719  0836               	movf	??___xxtofl+3,w
  4599  171A  04BC               	iorwf	___xxtofl@arg+3,f
  4600  171B                     l2387:
  4601  171B  0837               	movf	___xxtofl@sign,w
  4602  171C  1903               	btfsc	3,2
  4603  171D  2F1F               	goto	u3281
  4604  171E  2F20               	goto	u3280
  4605  171F                     u3281:
  4606  171F  2F25               	goto	l2393
  4607  1720                     u3280:
  4608  1720                     l2389:
  4609  1720  1FB2               	btfss	___xxtofl@val+3,7
  4610  1721  2F23               	goto	u3291
  4611  1722  2F24               	goto	u3290
  4612  1723                     u3291:
  4613  1723  2F25               	goto	l2393
  4614  1724                     u3290:
  4615  1724                     l2391:
  4616  1724  17BC               	bsf	___xxtofl@arg+3,7
  4617  1725                     l2393:
  4618  1725  083C               	movf	___xxtofl@arg+3,w
  4619  1726  00B2               	movwf	?___xxtofl+3
  4620  1727  083B               	movf	___xxtofl@arg+2,w
  4621  1728  00B1               	movwf	?___xxtofl+2
  4622  1729  083A               	movf	___xxtofl@arg+1,w
  4623  172A  00B0               	movwf	?___xxtofl+1
  4624  172B  0839               	movf	___xxtofl@arg,w
  4625  172C  00AF               	movwf	?___xxtofl
  4626  172D                     l832:
  4627  172D  0008               	return
  4628  172E                     __end_of___xxtofl:
  4629                           
  4630                           	psect	text10
  4631  0782                     __ptext10:	
  4632 ;; *************** function ___fltol *****************
  4633 ;; Defined at:
  4634 ;;		line 43 in file "D:\File Install MBLAB IDE\XC8\pic\sources\c90\common\fltol.c"
  4635 ;; Parameters:    Size  Location     Type
  4636 ;;  f1              4   21[BANK1 ] unsigned char 
  4637 ;; Auto vars:     Size  Location     Type
  4638 ;;  exp1            1   31[BANK1 ] unsigned char 
  4639 ;;  sign1           1   30[BANK1 ] unsigned char 
  4640 ;; Return value:  Size  Location     Type
  4641 ;;                  4   21[BANK1 ] long 
  4642 ;; Registers used:
  4643 ;;		wreg, status,2, status,0
  4644 ;; Tracked objects:
  4645 ;;		On entry : 0/0
  4646 ;;		On exit  : 0/0
  4647 ;;		Unchanged: 0/0
  4648 ;; Data sizes:     COMMON   BANK0   BANK1   BANK3   BANK2
  4649 ;;      Params:         0       0       4       0       0
  4650 ;;      Locals:         0       0       2       0       0
  4651 ;;      Temps:          0       0       5       0       0
  4652 ;;      Totals:         0       0      11       0       0
  4653 ;;Total ram usage:       11 bytes
  4654 ;; Hardware stack levels used: 1
  4655 ;; Hardware stack levels required when called: 4
  4656 ;; This function calls:
  4657 ;;		Nothing
  4658 ;; This function is called by:
  4659 ;;		_main
  4660 ;;		_constrain
  4661 ;;		_PWM1_Set_Duty
  4662 ;;		_PWM2_Set_Duty
  4663 ;; This function uses a non-reentrant model
  4664 ;;
  4665                           
  4666                           
  4667                           ;psect for function ___fltol
  4668  0782                     ___fltol:
  4669  0782                     l2035:	
  4670                           ;incstack = 0
  4671                           ; Regs used in ___fltol: [wreg+status,2+status,0]
  4672                           
  4673  0782  1003               	clrc
  4674  0783  1683               	bsf	3,5	;RP0=1, select bank1
  4675  0784  1303               	bcf	3,6	;RP1=0, select bank1
  4676  0785  0D37               	rlf	(___fltol@f1+2)^(0+128),w
  4677  0786  0D38               	rlf	(___fltol@f1+3)^(0+128),w
  4678  0787  00B9               	movwf	??___fltol^(0+128)
  4679  0788  0839               	movf	??___fltol^(0+128),w
  4680  0789  00BF               	movwf	___fltol@exp1^(0+128)
  4681  078A  083F               	movf	___fltol@exp1^(0+128),w
  4682  078B  1D03               	btfss	3,2
  4683  078C  2F8E               	goto	u2401
  4684  078D  2F8F               	goto	u2400
  4685  078E                     u2401:
  4686  078E  2F98               	goto	l2041
  4687  078F                     u2400:
  4688  078F                     l2037:
  4689  078F  3000               	movlw	0
  4690  0790  00B8               	movwf	(?___fltol+3)^(0+128)
  4691  0791  3000               	movlw	0
  4692  0792  00B7               	movwf	(?___fltol+2)^(0+128)
  4693  0793  3000               	movlw	0
  4694  0794  00B6               	movwf	(?___fltol+1)^(0+128)
  4695  0795  3000               	movlw	0
  4696  0796  00B5               	movwf	?___fltol^(0+128)
  4697  0797  2FFD               	goto	l583
  4698  0798                     l2041:
  4699  0798  0835               	movf	___fltol@f1^(0+128),w
  4700  0799  00B9               	movwf	??___fltol^(0+128)
  4701  079A  0836               	movf	(___fltol@f1+1)^(0+128),w
  4702  079B  00BA               	movwf	(??___fltol^(0+128)+1)
  4703  079C  0837               	movf	(___fltol@f1+2)^(0+128),w
  4704  079D  00BB               	movwf	(??___fltol^(0+128)+2)
  4705  079E  0838               	movf	(___fltol@f1+3)^(0+128),w
  4706  079F  00BC               	movwf	(??___fltol^(0+128)+3)
  4707  07A0  301F               	movlw	31
  4708  07A1                     u2415:
  4709  07A1  1003               	clrc
  4710  07A2  0CBC               	rrf	(??___fltol^(0+128)+3),f
  4711  07A3  0CBB               	rrf	(??___fltol^(0+128)+2),f
  4712  07A4  0CBA               	rrf	(??___fltol^(0+128)+1),f
  4713  07A5  0CB9               	rrf	??___fltol^(0+128),f
  4714  07A6                     u2410:
  4715  07A6  3EFF               	addlw	-1
  4716  07A7  1D03               	skipz
  4717  07A8  2FA1               	goto	u2415
  4718  07A9  0839               	movf	??___fltol^(0+128),w
  4719  07AA  00BD               	movwf	(??___fltol+4)^(0+128)
  4720  07AB  083D               	movf	(??___fltol+4)^(0+128),w
  4721  07AC  00BE               	movwf	___fltol@sign1^(0+128)
  4722  07AD                     l2043:
  4723  07AD  17B7               	bsf	(___fltol@f1^(0+128)+2),7
  4724  07AE                     l2045:
  4725  07AE  30FF               	movlw	255
  4726  07AF  05B5               	andwf	___fltol@f1^(0+128),f
  4727  07B0  30FF               	movlw	255
  4728  07B1  05B6               	andwf	(___fltol@f1+1)^(0+128),f
  4729  07B2  30FF               	movlw	255
  4730  07B3  05B7               	andwf	(___fltol@f1+2)^(0+128),f
  4731  07B4  3000               	movlw	0
  4732  07B5  05B8               	andwf	(___fltol@f1+3)^(0+128),f
  4733  07B6                     l2047:
  4734  07B6  3096               	movlw	150
  4735  07B7  02BF               	subwf	___fltol@exp1^(0+128),f
  4736  07B8                     l2049:
  4737  07B8  1FBF               	btfss	___fltol@exp1^(0+128),7
  4738  07B9  2FBB               	goto	u2421
  4739  07BA  2FBC               	goto	u2420
  4740  07BB                     u2421:
  4741  07BB  2FD6               	goto	l2059
  4742  07BC                     u2420:
  4743  07BC                     l2051:
  4744  07BC  083F               	movf	___fltol@exp1^(0+128),w
  4745  07BD  3A80               	xorlw	128
  4746  07BE  3E97               	addlw	151
  4747  07BF  1803               	skipnc
  4748  07C0  2FC2               	goto	u2431
  4749  07C1  2FC3               	goto	u2430
  4750  07C2                     u2431:
  4751  07C2  2FC4               	goto	l2057
  4752  07C3                     u2430:
  4753  07C3  2F8F               	goto	l2037
  4754  07C4                     l2057:
  4755  07C4  3001               	movlw	1
  4756  07C5                     u2445:
  4757  07C5  1003               	clrc
  4758  07C6  0CB8               	rrf	(___fltol@f1+3)^(0+128),f
  4759  07C7  0CB7               	rrf	(___fltol@f1+2)^(0+128),f
  4760  07C8  0CB6               	rrf	(___fltol@f1+1)^(0+128),f
  4761  07C9  0CB5               	rrf	___fltol@f1^(0+128),f
  4762  07CA  3EFF               	addlw	-1
  4763  07CB  1D03               	skipz
  4764  07CC  2FC5               	goto	u2445
  4765  07CD  3001               	movlw	1
  4766  07CE  00B9               	movwf	??___fltol^(0+128)
  4767  07CF  0839               	movf	??___fltol^(0+128),w
  4768  07D0  07BF               	addwf	___fltol@exp1^(0+128),f
  4769  07D1  1D03               	btfss	3,2
  4770  07D2  2FD4               	goto	u2451
  4771  07D3  2FD5               	goto	u2450
  4772  07D4                     u2451:
  4773  07D4  2FC4               	goto	l2057
  4774  07D5                     u2450:
  4775  07D5  2FED               	goto	l2067
  4776  07D6                     l2059:
  4777  07D6  3020               	movlw	32
  4778  07D7  023F               	subwf	___fltol@exp1^(0+128),w
  4779  07D8  1C03               	skipc
  4780  07D9  2FDB               	goto	u2461
  4781  07DA  2FDC               	goto	u2460
  4782  07DB                     u2461:
  4783  07DB  2FE8               	goto	l590
  4784  07DC                     u2460:
  4785  07DC  2F8F               	goto	l2037
  4786  07DD                     l2065:
  4787  07DD  3001               	movlw	1
  4788  07DE  00B9               	movwf	??___fltol^(0+128)
  4789  07DF                     u2475:
  4790  07DF  1003               	clrc
  4791  07E0  0DB5               	rlf	___fltol@f1^(0+128),f
  4792  07E1  0DB6               	rlf	(___fltol@f1+1)^(0+128),f
  4793  07E2  0DB7               	rlf	(___fltol@f1+2)^(0+128),f
  4794  07E3  0DB8               	rlf	(___fltol@f1+3)^(0+128),f
  4795  07E4  0BB9               	decfsz	??___fltol^(0+128),f
  4796  07E5  2FDF               	goto	u2475
  4797  07E6  3001               	movlw	1
  4798  07E7  02BF               	subwf	___fltol@exp1^(0+128),f
  4799  07E8                     l590:
  4800  07E8  083F               	movf	___fltol@exp1^(0+128),w
  4801  07E9  1D03               	btfss	3,2
  4802  07EA  2FEC               	goto	u2481
  4803  07EB  2FED               	goto	u2480
  4804  07EC                     u2481:
  4805  07EC  2FDD               	goto	l2065
  4806  07ED                     u2480:
  4807  07ED                     l2067:
  4808  07ED  083E               	movf	___fltol@sign1^(0+128),w
  4809  07EE  1903               	btfsc	3,2
  4810  07EF  2FF1               	goto	u2491
  4811  07F0  2FF2               	goto	u2490
  4812  07F1                     u2491:
  4813  07F1  2FFD               	goto	l593
  4814  07F2                     u2490:
  4815  07F2                     l2069:
  4816  07F2  09B5               	comf	___fltol@f1^(0+128),f
  4817  07F3  09B6               	comf	(___fltol@f1+1)^(0+128),f
  4818  07F4  09B7               	comf	(___fltol@f1+2)^(0+128),f
  4819  07F5  09B8               	comf	(___fltol@f1+3)^(0+128),f
  4820  07F6  0AB5               	incf	___fltol@f1^(0+128),f
  4821  07F7  1903               	skipnz
  4822  07F8  0AB6               	incf	(___fltol@f1+1)^(0+128),f
  4823  07F9  1903               	skipnz
  4824  07FA  0AB7               	incf	(___fltol@f1+2)^(0+128),f
  4825  07FB  1903               	skipnz
  4826  07FC  0AB8               	incf	(___fltol@f1+3)^(0+128),f
  4827  07FD                     l593:
  4828  07FD                     l583:
  4829  07FD  0008               	return
  4830  07FE                     __end_of___fltol:
  4831                           
  4832                           	psect	text11
  4833  0046                     __ptext11:	
  4834 ;; *************** function ___flmul *****************
  4835 ;; Defined at:
  4836 ;;		line 8 in file "D:\File Install MBLAB IDE\XC8\pic\sources\c90\common\sprcmul.c"
  4837 ;; Parameters:    Size  Location     Type
  4838 ;;  b               4   55[BANK0 ] long 
  4839 ;;  a               4   59[BANK0 ] long 
  4840 ;; Auto vars:     Size  Location     Type
  4841 ;;  prod            4    7[BANK1 ] struct .
  4842 ;;  grs             4    1[BANK1 ] unsigned long 
  4843 ;;  temp            2   11[BANK1 ] struct .
  4844 ;;  bexp            1    6[BANK1 ] unsigned char 
  4845 ;;  aexp            1    5[BANK1 ] unsigned char 
  4846 ;;  sign            1    0[BANK1 ] unsigned char 
  4847 ;; Return value:  Size  Location     Type
  4848 ;;                  4   55[BANK0 ] unsigned char 
  4849 ;; Registers used:
  4850 ;;		wreg, status,2, status,0, btemp+1, pclath, cstack
  4851 ;; Tracked objects:
  4852 ;;		On entry : 0/0
  4853 ;;		On exit  : 0/0
  4854 ;;		Unchanged: 0/0
  4855 ;; Data sizes:     COMMON   BANK0   BANK1   BANK3   BANK2
  4856 ;;      Params:         0       8       0       0       0
  4857 ;;      Locals:         0       0      13       0       0
  4858 ;;      Temps:          0       5       0       0       0
  4859 ;;      Totals:         0      13      13       0       0
  4860 ;;Total ram usage:       26 bytes
  4861 ;; Hardware stack levels used: 1
  4862 ;; Hardware stack levels required when called: 5
  4863 ;; This function calls:
  4864 ;;		__Umul8_16
  4865 ;; This function is called by:
  4866 ;;		_main
  4867 ;;		_PWM1_Set_Duty
  4868 ;;		_PWM2_Set_Duty
  4869 ;; This function uses a non-reentrant model
  4870 ;;
  4871                           
  4872                           
  4873                           ;psect for function ___flmul
  4874  0046                     ___flmul:
  4875  0046                     l2213:	
  4876                           ;incstack = 0
  4877                           ; Regs used in ___flmul: [wreg+status,2+status,0+btemp+1+pclath+cstack]
  4878                           
  4879  0046  1283               	bcf	3,5	;RP0=0, select bank0
  4880  0047  1303               	bcf	3,6	;RP1=0, select bank0
  4881  0048  085A               	movf	___flmul@b+3,w
  4882  0049  3980               	andlw	128
  4883  004A  00DF               	movwf	??___flmul
  4884  004B  085F               	movf	??___flmul,w
  4885  004C  1683               	bsf	3,5	;RP0=1, select bank1
  4886  004D  1303               	bcf	3,6	;RP1=0, select bank1
  4887  004E  00A0               	movwf	___flmul@sign^(0+128)
  4888  004F                     l2215:
  4889  004F  1283               	bcf	3,5	;RP0=0, select bank0
  4890  0050  1303               	bcf	3,6	;RP1=0, select bank0
  4891  0051  085A               	movf	___flmul@b+3,w
  4892  0052  00DF               	movwf	??___flmul
  4893  0053  075F               	addwf	??___flmul,w
  4894  0054  00E0               	movwf	??___flmul+1
  4895  0055  0860               	movf	??___flmul+1,w
  4896  0056  1683               	bsf	3,5	;RP0=1, select bank1
  4897  0057  1303               	bcf	3,6	;RP1=0, select bank1
  4898  0058  00A6               	movwf	___flmul@bexp^(0+128)
  4899  0059                     l2217:
  4900  0059  1283               	bcf	3,5	;RP0=0, select bank0
  4901  005A  1303               	bcf	3,6	;RP1=0, select bank0
  4902  005B  1FD9               	btfss	___flmul@b+2,7
  4903  005C  285E               	goto	u2791
  4904  005D  285F               	goto	u2790
  4905  005E                     u2791:
  4906  005E  2862               	goto	l2221
  4907  005F                     u2790:
  4908  005F                     l2219:
  4909  005F  1683               	bsf	3,5	;RP0=1, select bank1
  4910  0060  1303               	bcf	3,6	;RP1=0, select bank1
  4911  0061  1426               	bsf	___flmul@bexp^(0+128),0
  4912  0062                     l2221:
  4913  0062  1683               	bsf	3,5	;RP0=1, select bank1
  4914  0063  1303               	bcf	3,6	;RP1=0, select bank1
  4915  0064  0826               	movf	___flmul@bexp^(0+128),w
  4916  0065  1903               	btfsc	3,2
  4917  0066  2868               	goto	u2801
  4918  0067  2869               	goto	u2800
  4919  0068                     u2801:
  4920  0068  287B               	goto	l2229
  4921  0069                     u2800:
  4922  0069                     l2223:
  4923  0069  0A26               	incf	___flmul@bexp^(0+128),w
  4924  006A  1D03               	btfss	3,2
  4925  006B  286D               	goto	u2811
  4926  006C  286E               	goto	u2810
  4927  006D                     u2811:
  4928  006D  2878               	goto	l2227
  4929  006E                     u2810:
  4930  006E                     l2225:
  4931  006E  3000               	movlw	0
  4932  006F  1283               	bcf	3,5	;RP0=0, select bank0
  4933  0070  1303               	bcf	3,6	;RP1=0, select bank0
  4934  0071  00DA               	movwf	___flmul@b+3
  4935  0072  3000               	movlw	0
  4936  0073  00D9               	movwf	___flmul@b+2
  4937  0074  3000               	movlw	0
  4938  0075  00D8               	movwf	___flmul@b+1
  4939  0076  3000               	movlw	0
  4940  0077  00D7               	movwf	___flmul@b
  4941  0078                     l2227:
  4942  0078  1283               	bcf	3,5	;RP0=0, select bank0
  4943  0079  17D9               	bsf	___flmul@b+2,7
  4944  007A  2885               	goto	l2231
  4945  007B                     l2229:
  4946  007B  3000               	movlw	0
  4947  007C  1283               	bcf	3,5	;RP0=0, select bank0
  4948  007D  1303               	bcf	3,6	;RP1=0, select bank0
  4949  007E  00DA               	movwf	___flmul@b+3
  4950  007F  3000               	movlw	0
  4951  0080  00D9               	movwf	___flmul@b+2
  4952  0081  3000               	movlw	0
  4953  0082  00D8               	movwf	___flmul@b+1
  4954  0083  3000               	movlw	0
  4955  0084  00D7               	movwf	___flmul@b
  4956  0085                     l2231:
  4957  0085  085E               	movf	___flmul@a+3,w
  4958  0086  3980               	andlw	128
  4959  0087  00DF               	movwf	??___flmul
  4960  0088  085F               	movf	??___flmul,w
  4961  0089  1683               	bsf	3,5	;RP0=1, select bank1
  4962  008A  1303               	bcf	3,6	;RP1=0, select bank1
  4963  008B  06A0               	xorwf	___flmul@sign^(0+128),f
  4964  008C                     l2233:
  4965  008C  1283               	bcf	3,5	;RP0=0, select bank0
  4966  008D  1303               	bcf	3,6	;RP1=0, select bank0
  4967  008E  085E               	movf	___flmul@a+3,w
  4968  008F  00DF               	movwf	??___flmul
  4969  0090  075F               	addwf	??___flmul,w
  4970  0091  00E0               	movwf	??___flmul+1
  4971  0092  0860               	movf	??___flmul+1,w
  4972  0093  1683               	bsf	3,5	;RP0=1, select bank1
  4973  0094  1303               	bcf	3,6	;RP1=0, select bank1
  4974  0095  00A5               	movwf	___flmul@aexp^(0+128)
  4975  0096                     l2235:
  4976  0096  1283               	bcf	3,5	;RP0=0, select bank0
  4977  0097  1303               	bcf	3,6	;RP1=0, select bank0
  4978  0098  1FDD               	btfss	___flmul@a+2,7
  4979  0099  289B               	goto	u2821
  4980  009A  289C               	goto	u2820
  4981  009B                     u2821:
  4982  009B  289F               	goto	l2239
  4983  009C                     u2820:
  4984  009C                     l2237:
  4985  009C  1683               	bsf	3,5	;RP0=1, select bank1
  4986  009D  1303               	bcf	3,6	;RP1=0, select bank1
  4987  009E  1425               	bsf	___flmul@aexp^(0+128),0
  4988  009F                     l2239:
  4989  009F  1683               	bsf	3,5	;RP0=1, select bank1
  4990  00A0  1303               	bcf	3,6	;RP1=0, select bank1
  4991  00A1  0825               	movf	___flmul@aexp^(0+128),w
  4992  00A2  1903               	btfsc	3,2
  4993  00A3  28A5               	goto	u2831
  4994  00A4  28A6               	goto	u2830
  4995  00A5                     u2831:
  4996  00A5  28B8               	goto	l2247
  4997  00A6                     u2830:
  4998  00A6                     l2241:
  4999  00A6  0A25               	incf	___flmul@aexp^(0+128),w
  5000  00A7  1D03               	btfss	3,2
  5001  00A8  28AA               	goto	u2841
  5002  00A9  28AB               	goto	u2840
  5003  00AA                     u2841:
  5004  00AA  28B5               	goto	l2245
  5005  00AB                     u2840:
  5006  00AB                     l2243:
  5007  00AB  3000               	movlw	0
  5008  00AC  1283               	bcf	3,5	;RP0=0, select bank0
  5009  00AD  1303               	bcf	3,6	;RP1=0, select bank0
  5010  00AE  00DE               	movwf	___flmul@a+3
  5011  00AF  3000               	movlw	0
  5012  00B0  00DD               	movwf	___flmul@a+2
  5013  00B1  3000               	movlw	0
  5014  00B2  00DC               	movwf	___flmul@a+1
  5015  00B3  3000               	movlw	0
  5016  00B4  00DB               	movwf	___flmul@a
  5017  00B5                     l2245:
  5018  00B5  1283               	bcf	3,5	;RP0=0, select bank0
  5019  00B6  17DD               	bsf	___flmul@a+2,7
  5020  00B7  28C2               	goto	l2249
  5021  00B8                     l2247:
  5022  00B8  3000               	movlw	0
  5023  00B9  1283               	bcf	3,5	;RP0=0, select bank0
  5024  00BA  1303               	bcf	3,6	;RP1=0, select bank0
  5025  00BB  00DE               	movwf	___flmul@a+3
  5026  00BC  3000               	movlw	0
  5027  00BD  00DD               	movwf	___flmul@a+2
  5028  00BE  3000               	movlw	0
  5029  00BF  00DC               	movwf	___flmul@a+1
  5030  00C0  3000               	movlw	0
  5031  00C1  00DB               	movwf	___flmul@a
  5032  00C2                     l2249:
  5033  00C2  1683               	bsf	3,5	;RP0=1, select bank1
  5034  00C3  1303               	bcf	3,6	;RP1=0, select bank1
  5035  00C4  0825               	movf	___flmul@aexp^(0+128),w
  5036  00C5  1903               	btfsc	3,2
  5037  00C6  28C8               	goto	u2851
  5038  00C7  28C9               	goto	u2850
  5039  00C8                     u2851:
  5040  00C8  28CE               	goto	l2253
  5041  00C9                     u2850:
  5042  00C9                     l2251:
  5043  00C9  0826               	movf	___flmul@bexp^(0+128),w
  5044  00CA  1D03               	btfss	3,2
  5045  00CB  28CD               	goto	u2861
  5046  00CC  28CE               	goto	u2860
  5047  00CD                     u2861:
  5048  00CD  28D9               	goto	l2257
  5049  00CE                     u2860:
  5050  00CE                     l2253:
  5051  00CE  3000               	movlw	0
  5052  00CF  1283               	bcf	3,5	;RP0=0, select bank0
  5053  00D0  1303               	bcf	3,6	;RP1=0, select bank0
  5054  00D1  00DA               	movwf	?___flmul+3
  5055  00D2  3000               	movlw	0
  5056  00D3  00D9               	movwf	?___flmul+2
  5057  00D4  3000               	movlw	0
  5058  00D5  00D8               	movwf	?___flmul+1
  5059  00D6  3000               	movlw	0
  5060  00D7  00D7               	movwf	?___flmul
  5061  00D8  2DA4               	goto	l786
  5062  00D9                     l2257:
  5063  00D9  1283               	bcf	3,5	;RP0=0, select bank0
  5064  00DA  1303               	bcf	3,6	;RP1=0, select bank0
  5065  00DB  0857               	movf	___flmul@b,w
  5066  00DC  00DF               	movwf	??___flmul
  5067  00DD  085F               	movf	??___flmul,w
  5068  00DE  00A0               	movwf	__Umul8_16@multiplicand
  5069  00DF  085D               	movf	___flmul@a+2,w
  5070  00E0  160A  118A  21A9  120A  118A  	fcall	__Umul8_16
  5071  00E5  1283               	bcf	3,5	;RP0=0, select bank0
  5072  00E6  1303               	bcf	3,6	;RP1=0, select bank0
  5073  00E7  0821               	movf	?__Umul8_16+1,w
  5074  00E8  1683               	bsf	3,5	;RP0=1, select bank1
  5075  00E9  1303               	bcf	3,6	;RP1=0, select bank1
  5076  00EA  00AC               	movwf	(___flmul@temp+1)^(0+128)
  5077  00EB  1283               	bcf	3,5	;RP0=0, select bank0
  5078  00EC  1303               	bcf	3,6	;RP1=0, select bank0
  5079  00ED  0820               	movf	?__Umul8_16,w
  5080  00EE  1683               	bsf	3,5	;RP0=1, select bank1
  5081  00EF  1303               	bcf	3,6	;RP1=0, select bank1
  5082  00F0  00AB               	movwf	___flmul@temp^(0+128)
  5083  00F1                     l2259:
  5084  00F1  082B               	movf	___flmul@temp^(0+128),w
  5085  00F2  1283               	bcf	3,5	;RP0=0, select bank0
  5086  00F3  1303               	bcf	3,6	;RP1=0, select bank0
  5087  00F4  00DF               	movwf	??___flmul
  5088  00F5  01E0               	clrf	??___flmul+1
  5089  00F6  01E1               	clrf	??___flmul+2
  5090  00F7  01E2               	clrf	??___flmul+3
  5091  00F8  0862               	movf	??___flmul+3,w
  5092  00F9  1683               	bsf	3,5	;RP0=1, select bank1
  5093  00FA  1303               	bcf	3,6	;RP1=0, select bank1
  5094  00FB  00A4               	movwf	(___flmul@grs+3)^(0+128)
  5095  00FC  1283               	bcf	3,5	;RP0=0, select bank0
  5096  00FD  1303               	bcf	3,6	;RP1=0, select bank0
  5097  00FE  0861               	movf	??___flmul+2,w
  5098  00FF  1683               	bsf	3,5	;RP0=1, select bank1
  5099  0100  1303               	bcf	3,6	;RP1=0, select bank1
  5100  0101  00A3               	movwf	(___flmul@grs+2)^(0+128)
  5101  0102  1283               	bcf	3,5	;RP0=0, select bank0
  5102  0103  1303               	bcf	3,6	;RP1=0, select bank0
  5103  0104  0860               	movf	??___flmul+1,w
  5104  0105  1683               	bsf	3,5	;RP0=1, select bank1
  5105  0106  1303               	bcf	3,6	;RP1=0, select bank1
  5106  0107  00A2               	movwf	(___flmul@grs+1)^(0+128)
  5107  0108  1283               	bcf	3,5	;RP0=0, select bank0
  5108  0109  1303               	bcf	3,6	;RP1=0, select bank0
  5109  010A  085F               	movf	??___flmul,w
  5110  010B  1683               	bsf	3,5	;RP0=1, select bank1
  5111  010C  1303               	bcf	3,6	;RP1=0, select bank1
  5112  010D  00A1               	movwf	___flmul@grs^(0+128)
  5113  010E                     l2261:
  5114  010E  082C               	movf	(___flmul@temp^(0+128)+1),w
  5115  010F  1283               	bcf	3,5	;RP0=0, select bank0
  5116  0110  1303               	bcf	3,6	;RP1=0, select bank0
  5117  0111  00DF               	movwf	??___flmul
  5118  0112  01E0               	clrf	??___flmul+1
  5119  0113  01E1               	clrf	??___flmul+2
  5120  0114  01E2               	clrf	??___flmul+3
  5121  0115  0862               	movf	??___flmul+3,w
  5122  0116  1683               	bsf	3,5	;RP0=1, select bank1
  5123  0117  1303               	bcf	3,6	;RP1=0, select bank1
  5124  0118  00AA               	movwf	(___flmul@prod+3)^(0+128)
  5125  0119  1283               	bcf	3,5	;RP0=0, select bank0
  5126  011A  1303               	bcf	3,6	;RP1=0, select bank0
  5127  011B  0861               	movf	??___flmul+2,w
  5128  011C  1683               	bsf	3,5	;RP0=1, select bank1
  5129  011D  1303               	bcf	3,6	;RP1=0, select bank1
  5130  011E  00A9               	movwf	(___flmul@prod+2)^(0+128)
  5131  011F  1283               	bcf	3,5	;RP0=0, select bank0
  5132  0120  1303               	bcf	3,6	;RP1=0, select bank0
  5133  0121  0860               	movf	??___flmul+1,w
  5134  0122  1683               	bsf	3,5	;RP0=1, select bank1
  5135  0123  1303               	bcf	3,6	;RP1=0, select bank1
  5136  0124  00A8               	movwf	(___flmul@prod+1)^(0+128)
  5137  0125  1283               	bcf	3,5	;RP0=0, select bank0
  5138  0126  1303               	bcf	3,6	;RP1=0, select bank0
  5139  0127  085F               	movf	??___flmul,w
  5140  0128  1683               	bsf	3,5	;RP0=1, select bank1
  5141  0129  1303               	bcf	3,6	;RP1=0, select bank1
  5142  012A  00A7               	movwf	___flmul@prod^(0+128)
  5143  012B  1283               	bcf	3,5	;RP0=0, select bank0
  5144  012C  1303               	bcf	3,6	;RP1=0, select bank0
  5145  012D  0858               	movf	___flmul@b+1,w
  5146  012E  00DF               	movwf	??___flmul
  5147  012F  085F               	movf	??___flmul,w
  5148  0130  00A0               	movwf	__Umul8_16@multiplicand
  5149  0131  085C               	movf	___flmul@a+1,w
  5150  0132  160A  118A  21A9  120A  118A  	fcall	__Umul8_16
  5151  0137  1283               	bcf	3,5	;RP0=0, select bank0
  5152  0138  1303               	bcf	3,6	;RP1=0, select bank0
  5153  0139  0821               	movf	?__Umul8_16+1,w
  5154  013A  1683               	bsf	3,5	;RP0=1, select bank1
  5155  013B  1303               	bcf	3,6	;RP1=0, select bank1
  5156  013C  00AC               	movwf	(___flmul@temp+1)^(0+128)
  5157  013D  1283               	bcf	3,5	;RP0=0, select bank0
  5158  013E  1303               	bcf	3,6	;RP1=0, select bank0
  5159  013F  0820               	movf	?__Umul8_16,w
  5160  0140  1683               	bsf	3,5	;RP0=1, select bank1
  5161  0141  1303               	bcf	3,6	;RP1=0, select bank1
  5162  0142  00AB               	movwf	___flmul@temp^(0+128)
  5163  0143                     l2263:
  5164  0143  082B               	movf	___flmul@temp^(0+128),w
  5165  0144  1283               	bcf	3,5	;RP0=0, select bank0
  5166  0145  1303               	bcf	3,6	;RP1=0, select bank0
  5167  0146  00DF               	movwf	??___flmul
  5168  0147  01E0               	clrf	??___flmul+1
  5169  0148  01E1               	clrf	??___flmul+2
  5170  0149  01E2               	clrf	??___flmul+3
  5171  014A  085F               	movf	??___flmul,w
  5172  014B  1683               	bsf	3,5	;RP0=1, select bank1
  5173  014C  1303               	bcf	3,6	;RP1=0, select bank1
  5174  014D  07A1               	addwf	___flmul@grs^(0+128),f
  5175  014E  1283               	bcf	3,5	;RP0=0, select bank0
  5176  014F  1303               	bcf	3,6	;RP1=0, select bank0
  5177  0150  0860               	movf	??___flmul+1,w
  5178  0151  1103               	clrz
  5179  0152  1803               	skipnc
  5180  0153  3E01               	addlw	1
  5181  0154  1903               	skipnz
  5182  0155  2959               	goto	u2871
  5183  0156  1683               	bsf	3,5	;RP0=1, select bank1
  5184  0157  1303               	bcf	3,6	;RP1=0, select bank1
  5185  0158  07A2               	addwf	(___flmul@grs+1)^(0+128),f
  5186  0159                     u2871:
  5187  0159  1283               	bcf	3,5	;RP0=0, select bank0
  5188  015A  1303               	bcf	3,6	;RP1=0, select bank0
  5189  015B  0861               	movf	??___flmul+2,w
  5190  015C  1103               	clrz
  5191  015D  1803               	skipnc
  5192  015E  3E01               	addlw	1
  5193  015F  1903               	skipnz
  5194  0160  2964               	goto	u2872
  5195  0161  1683               	bsf	3,5	;RP0=1, select bank1
  5196  0162  1303               	bcf	3,6	;RP1=0, select bank1
  5197  0163  07A3               	addwf	(___flmul@grs+2)^(0+128),f
  5198  0164                     u2872:
  5199  0164  1283               	bcf	3,5	;RP0=0, select bank0
  5200  0165  1303               	bcf	3,6	;RP1=0, select bank0
  5201  0166  0862               	movf	??___flmul+3,w
  5202  0167  1103               	clrz
  5203  0168  1803               	skipnc
  5204  0169  3E01               	addlw	1
  5205  016A  1903               	skipnz
  5206  016B  296F               	goto	u2873
  5207  016C  1683               	bsf	3,5	;RP0=1, select bank1
  5208  016D  1303               	bcf	3,6	;RP1=0, select bank1
  5209  016E  07A4               	addwf	(___flmul@grs+3)^(0+128),f
  5210  016F                     u2873:
  5211  016F  1283               	bcf	3,5	;RP0=0, select bank0
  5212  0170  1303               	bcf	3,6	;RP1=0, select bank0
  5213  0171  1683               	bsf	3,5	;RP0=1, select bank1
  5214  0172  1303               	bcf	3,6	;RP1=0, select bank1
  5215  0173                     l2265:
  5216  0173  082C               	movf	(___flmul@temp^(0+128)+1),w
  5217  0174  1283               	bcf	3,5	;RP0=0, select bank0
  5218  0175  1303               	bcf	3,6	;RP1=0, select bank0
  5219  0176  00DF               	movwf	??___flmul
  5220  0177  01E0               	clrf	??___flmul+1
  5221  0178  01E1               	clrf	??___flmul+2
  5222  0179  01E2               	clrf	??___flmul+3
  5223  017A  085F               	movf	??___flmul,w
  5224  017B  1683               	bsf	3,5	;RP0=1, select bank1
  5225  017C  1303               	bcf	3,6	;RP1=0, select bank1
  5226  017D  07A7               	addwf	___flmul@prod^(0+128),f
  5227  017E  1283               	bcf	3,5	;RP0=0, select bank0
  5228  017F  1303               	bcf	3,6	;RP1=0, select bank0
  5229  0180  0860               	movf	??___flmul+1,w
  5230  0181  1103               	clrz
  5231  0182  1803               	skipnc
  5232  0183  3E01               	addlw	1
  5233  0184  1903               	skipnz
  5234  0185  2989               	goto	u2881
  5235  0186  1683               	bsf	3,5	;RP0=1, select bank1
  5236  0187  1303               	bcf	3,6	;RP1=0, select bank1
  5237  0188  07A8               	addwf	(___flmul@prod+1)^(0+128),f
  5238  0189                     u2881:
  5239  0189  1283               	bcf	3,5	;RP0=0, select bank0
  5240  018A  1303               	bcf	3,6	;RP1=0, select bank0
  5241  018B  0861               	movf	??___flmul+2,w
  5242  018C  1103               	clrz
  5243  018D  1803               	skipnc
  5244  018E  3E01               	addlw	1
  5245  018F  1903               	skipnz
  5246  0190  2994               	goto	u2882
  5247  0191  1683               	bsf	3,5	;RP0=1, select bank1
  5248  0192  1303               	bcf	3,6	;RP1=0, select bank1
  5249  0193  07A9               	addwf	(___flmul@prod+2)^(0+128),f
  5250  0194                     u2882:
  5251  0194  1283               	bcf	3,5	;RP0=0, select bank0
  5252  0195  1303               	bcf	3,6	;RP1=0, select bank0
  5253  0196  0862               	movf	??___flmul+3,w
  5254  0197  1103               	clrz
  5255  0198  1803               	skipnc
  5256  0199  3E01               	addlw	1
  5257  019A  1903               	skipnz
  5258  019B  299F               	goto	u2883
  5259  019C  1683               	bsf	3,5	;RP0=1, select bank1
  5260  019D  1303               	bcf	3,6	;RP1=0, select bank1
  5261  019E  07AA               	addwf	(___flmul@prod+3)^(0+128),f
  5262  019F                     u2883:
  5263  019F  1283               	bcf	3,5	;RP0=0, select bank0
  5264  01A0  1303               	bcf	3,6	;RP1=0, select bank0
  5265  01A1  1683               	bsf	3,5	;RP0=1, select bank1
  5266  01A2  1303               	bcf	3,6	;RP1=0, select bank1
  5267  01A3  1283               	bcf	3,5	;RP0=0, select bank0
  5268  01A4  1303               	bcf	3,6	;RP1=0, select bank0
  5269  01A5  0859               	movf	___flmul@b+2,w
  5270  01A6  00DF               	movwf	??___flmul
  5271  01A7  085F               	movf	??___flmul,w
  5272  01A8  00A0               	movwf	__Umul8_16@multiplicand
  5273  01A9  085B               	movf	___flmul@a,w
  5274  01AA  160A  118A  21A9  120A  118A  	fcall	__Umul8_16
  5275  01AF  1283               	bcf	3,5	;RP0=0, select bank0
  5276  01B0  1303               	bcf	3,6	;RP1=0, select bank0
  5277  01B1  0821               	movf	?__Umul8_16+1,w
  5278  01B2  1683               	bsf	3,5	;RP0=1, select bank1
  5279  01B3  1303               	bcf	3,6	;RP1=0, select bank1
  5280  01B4  00AC               	movwf	(___flmul@temp+1)^(0+128)
  5281  01B5  1283               	bcf	3,5	;RP0=0, select bank0
  5282  01B6  1303               	bcf	3,6	;RP1=0, select bank0
  5283  01B7  0820               	movf	?__Umul8_16,w
  5284  01B8  1683               	bsf	3,5	;RP0=1, select bank1
  5285  01B9  1303               	bcf	3,6	;RP1=0, select bank1
  5286  01BA  00AB               	movwf	___flmul@temp^(0+128)
  5287  01BB                     l2267:
  5288  01BB  082B               	movf	___flmul@temp^(0+128),w
  5289  01BC  1283               	bcf	3,5	;RP0=0, select bank0
  5290  01BD  1303               	bcf	3,6	;RP1=0, select bank0
  5291  01BE  00DF               	movwf	??___flmul
  5292  01BF  01E0               	clrf	??___flmul+1
  5293  01C0  01E1               	clrf	??___flmul+2
  5294  01C1  01E2               	clrf	??___flmul+3
  5295  01C2  085F               	movf	??___flmul,w
  5296  01C3  1683               	bsf	3,5	;RP0=1, select bank1
  5297  01C4  1303               	bcf	3,6	;RP1=0, select bank1
  5298  01C5  07A1               	addwf	___flmul@grs^(0+128),f
  5299  01C6  1283               	bcf	3,5	;RP0=0, select bank0
  5300  01C7  1303               	bcf	3,6	;RP1=0, select bank0
  5301  01C8  0860               	movf	??___flmul+1,w
  5302  01C9  1103               	clrz
  5303  01CA  1803               	skipnc
  5304  01CB  3E01               	addlw	1
  5305  01CC  1903               	skipnz
  5306  01CD  29D1               	goto	u2891
  5307  01CE  1683               	bsf	3,5	;RP0=1, select bank1
  5308  01CF  1303               	bcf	3,6	;RP1=0, select bank1
  5309  01D0  07A2               	addwf	(___flmul@grs+1)^(0+128),f
  5310  01D1                     u2891:
  5311  01D1  1283               	bcf	3,5	;RP0=0, select bank0
  5312  01D2  1303               	bcf	3,6	;RP1=0, select bank0
  5313  01D3  0861               	movf	??___flmul+2,w
  5314  01D4  1103               	clrz
  5315  01D5  1803               	skipnc
  5316  01D6  3E01               	addlw	1
  5317  01D7  1903               	skipnz
  5318  01D8  29DC               	goto	u2892
  5319  01D9  1683               	bsf	3,5	;RP0=1, select bank1
  5320  01DA  1303               	bcf	3,6	;RP1=0, select bank1
  5321  01DB  07A3               	addwf	(___flmul@grs+2)^(0+128),f
  5322  01DC                     u2892:
  5323  01DC  1283               	bcf	3,5	;RP0=0, select bank0
  5324  01DD  1303               	bcf	3,6	;RP1=0, select bank0
  5325  01DE  0862               	movf	??___flmul+3,w
  5326  01DF  1103               	clrz
  5327  01E0  1803               	skipnc
  5328  01E1  3E01               	addlw	1
  5329  01E2  1903               	skipnz
  5330  01E3  29E7               	goto	u2893
  5331  01E4  1683               	bsf	3,5	;RP0=1, select bank1
  5332  01E5  1303               	bcf	3,6	;RP1=0, select bank1
  5333  01E6  07A4               	addwf	(___flmul@grs+3)^(0+128),f
  5334  01E7                     u2893:
  5335  01E7  1283               	bcf	3,5	;RP0=0, select bank0
  5336  01E8  1303               	bcf	3,6	;RP1=0, select bank0
  5337  01E9  1683               	bsf	3,5	;RP0=1, select bank1
  5338  01EA  1303               	bcf	3,6	;RP1=0, select bank1
  5339  01EB                     l2269:
  5340  01EB  082C               	movf	(___flmul@temp^(0+128)+1),w
  5341  01EC  1283               	bcf	3,5	;RP0=0, select bank0
  5342  01ED  1303               	bcf	3,6	;RP1=0, select bank0
  5343  01EE  00DF               	movwf	??___flmul
  5344  01EF  01E0               	clrf	??___flmul+1
  5345  01F0  01E1               	clrf	??___flmul+2
  5346  01F1  01E2               	clrf	??___flmul+3
  5347  01F2  085F               	movf	??___flmul,w
  5348  01F3  1683               	bsf	3,5	;RP0=1, select bank1
  5349  01F4  1303               	bcf	3,6	;RP1=0, select bank1
  5350  01F5  07A7               	addwf	___flmul@prod^(0+128),f
  5351  01F6  1283               	bcf	3,5	;RP0=0, select bank0
  5352  01F7  1303               	bcf	3,6	;RP1=0, select bank0
  5353  01F8  0860               	movf	??___flmul+1,w
  5354  01F9  1103               	clrz
  5355  01FA  1803               	skipnc
  5356  01FB  3E01               	addlw	1
  5357  01FC  1903               	skipnz
  5358  01FD  2A01               	goto	u2901
  5359  01FE  1683               	bsf	3,5	;RP0=1, select bank1
  5360  01FF  1303               	bcf	3,6	;RP1=0, select bank1
  5361  0200  07A8               	addwf	(___flmul@prod+1)^(0+128),f
  5362  0201                     u2901:
  5363  0201  1283               	bcf	3,5	;RP0=0, select bank0
  5364  0202  1303               	bcf	3,6	;RP1=0, select bank0
  5365  0203  0861               	movf	??___flmul+2,w
  5366  0204  1103               	clrz
  5367  0205  1803               	skipnc
  5368  0206  3E01               	addlw	1
  5369  0207  1903               	skipnz
  5370  0208  2A0C               	goto	u2902
  5371  0209  1683               	bsf	3,5	;RP0=1, select bank1
  5372  020A  1303               	bcf	3,6	;RP1=0, select bank1
  5373  020B  07A9               	addwf	(___flmul@prod+2)^(0+128),f
  5374  020C                     u2902:
  5375  020C  1283               	bcf	3,5	;RP0=0, select bank0
  5376  020D  1303               	bcf	3,6	;RP1=0, select bank0
  5377  020E  0862               	movf	??___flmul+3,w
  5378  020F  1103               	clrz
  5379  0210  1803               	skipnc
  5380  0211  3E01               	addlw	1
  5381  0212  1903               	skipnz
  5382  0213  2A17               	goto	u2903
  5383  0214  1683               	bsf	3,5	;RP0=1, select bank1
  5384  0215  1303               	bcf	3,6	;RP1=0, select bank1
  5385  0216  07AA               	addwf	(___flmul@prod+3)^(0+128),f
  5386  0217                     u2903:
  5387  0217  1283               	bcf	3,5	;RP0=0, select bank0
  5388  0218  1303               	bcf	3,6	;RP1=0, select bank0
  5389  0219  1683               	bsf	3,5	;RP0=1, select bank1
  5390  021A  1303               	bcf	3,6	;RP1=0, select bank1
  5391  021B                     l2271:
  5392  021B  3008               	movlw	8
  5393  021C  1283               	bcf	3,5	;RP0=0, select bank0
  5394  021D  1303               	bcf	3,6	;RP1=0, select bank0
  5395  021E  00DF               	movwf	??___flmul
  5396  021F                     u2915:
  5397  021F  1003               	clrc
  5398  0220  1683               	bsf	3,5	;RP0=1, select bank1
  5399  0221  1303               	bcf	3,6	;RP1=0, select bank1
  5400  0222  0DA1               	rlf	___flmul@grs^(0+128),f
  5401  0223  0DA2               	rlf	(___flmul@grs+1)^(0+128),f
  5402  0224  0DA3               	rlf	(___flmul@grs+2)^(0+128),f
  5403  0225  0DA4               	rlf	(___flmul@grs+3)^(0+128),f
  5404  0226  1283               	bcf	3,5	;RP0=0, select bank0
  5405  0227  1303               	bcf	3,6	;RP1=0, select bank0
  5406  0228  0BDF               	decfsz	??___flmul,f
  5407  0229  2A1F               	goto	u2915
  5408  022A                     l2273:
  5409  022A  0858               	movf	___flmul@b+1,w
  5410  022B  00DF               	movwf	??___flmul
  5411  022C  085F               	movf	??___flmul,w
  5412  022D  00A0               	movwf	__Umul8_16@multiplicand
  5413  022E  085B               	movf	___flmul@a,w
  5414  022F  160A  118A  21A9  120A  118A  	fcall	__Umul8_16
  5415  0234  1283               	bcf	3,5	;RP0=0, select bank0
  5416  0235  1303               	bcf	3,6	;RP1=0, select bank0
  5417  0236  0821               	movf	?__Umul8_16+1,w
  5418  0237  1683               	bsf	3,5	;RP0=1, select bank1
  5419  0238  1303               	bcf	3,6	;RP1=0, select bank1
  5420  0239  00AC               	movwf	(___flmul@temp+1)^(0+128)
  5421  023A  1283               	bcf	3,5	;RP0=0, select bank0
  5422  023B  1303               	bcf	3,6	;RP1=0, select bank0
  5423  023C  0820               	movf	?__Umul8_16,w
  5424  023D  1683               	bsf	3,5	;RP0=1, select bank1
  5425  023E  1303               	bcf	3,6	;RP1=0, select bank1
  5426  023F  00AB               	movwf	___flmul@temp^(0+128)
  5427  0240                     l2275:
  5428  0240  082B               	movf	___flmul@temp^(0+128),w
  5429  0241  1283               	bcf	3,5	;RP0=0, select bank0
  5430  0242  1303               	bcf	3,6	;RP1=0, select bank0
  5431  0243  00DF               	movwf	??___flmul
  5432  0244  1683               	bsf	3,5	;RP0=1, select bank1
  5433  0245  1303               	bcf	3,6	;RP1=0, select bank1
  5434  0246  082C               	movf	(___flmul@temp+1)^(0+128),w
  5435  0247  1283               	bcf	3,5	;RP0=0, select bank0
  5436  0248  1303               	bcf	3,6	;RP1=0, select bank0
  5437  0249  00E0               	movwf	??___flmul+1
  5438  024A  01E1               	clrf	??___flmul+2
  5439  024B  01E2               	clrf	??___flmul+3
  5440  024C  085F               	movf	??___flmul,w
  5441  024D  1683               	bsf	3,5	;RP0=1, select bank1
  5442  024E  1303               	bcf	3,6	;RP1=0, select bank1
  5443  024F  07A1               	addwf	___flmul@grs^(0+128),f
  5444  0250  1283               	bcf	3,5	;RP0=0, select bank0
  5445  0251  1303               	bcf	3,6	;RP1=0, select bank0
  5446  0252  0860               	movf	??___flmul+1,w
  5447  0253  1103               	clrz
  5448  0254  1803               	skipnc
  5449  0255  3E01               	addlw	1
  5450  0256  1903               	skipnz
  5451  0257  2A5B               	goto	u2921
  5452  0258  1683               	bsf	3,5	;RP0=1, select bank1
  5453  0259  1303               	bcf	3,6	;RP1=0, select bank1
  5454  025A  07A2               	addwf	(___flmul@grs+1)^(0+128),f
  5455  025B                     u2921:
  5456  025B  1283               	bcf	3,5	;RP0=0, select bank0
  5457  025C  1303               	bcf	3,6	;RP1=0, select bank0
  5458  025D  0861               	movf	??___flmul+2,w
  5459  025E  1103               	clrz
  5460  025F  1803               	skipnc
  5461  0260  3E01               	addlw	1
  5462  0261  1903               	skipnz
  5463  0262  2A66               	goto	u2922
  5464  0263  1683               	bsf	3,5	;RP0=1, select bank1
  5465  0264  1303               	bcf	3,6	;RP1=0, select bank1
  5466  0265  07A3               	addwf	(___flmul@grs+2)^(0+128),f
  5467  0266                     u2922:
  5468  0266  1283               	bcf	3,5	;RP0=0, select bank0
  5469  0267  1303               	bcf	3,6	;RP1=0, select bank0
  5470  0268  0862               	movf	??___flmul+3,w
  5471  0269  1103               	clrz
  5472  026A  1803               	skipnc
  5473  026B  3E01               	addlw	1
  5474  026C  1903               	skipnz
  5475  026D  2A71               	goto	u2923
  5476  026E  1683               	bsf	3,5	;RP0=1, select bank1
  5477  026F  1303               	bcf	3,6	;RP1=0, select bank1
  5478  0270  07A4               	addwf	(___flmul@grs+3)^(0+128),f
  5479  0271                     u2923:
  5480  0271  1283               	bcf	3,5	;RP0=0, select bank0
  5481  0272  1303               	bcf	3,6	;RP1=0, select bank0
  5482  0273  1683               	bsf	3,5	;RP0=1, select bank1
  5483  0274  1303               	bcf	3,6	;RP1=0, select bank1
  5484  0275                     l2277:
  5485  0275  1283               	bcf	3,5	;RP0=0, select bank0
  5486  0276  1303               	bcf	3,6	;RP1=0, select bank0
  5487  0277  0857               	movf	___flmul@b,w
  5488  0278  00DF               	movwf	??___flmul
  5489  0279  085F               	movf	??___flmul,w
  5490  027A  00A0               	movwf	__Umul8_16@multiplicand
  5491  027B  085C               	movf	___flmul@a+1,w
  5492  027C  160A  118A  21A9  120A  118A  	fcall	__Umul8_16
  5493  0281  1283               	bcf	3,5	;RP0=0, select bank0
  5494  0282  1303               	bcf	3,6	;RP1=0, select bank0
  5495  0283  0821               	movf	?__Umul8_16+1,w
  5496  0284  1683               	bsf	3,5	;RP0=1, select bank1
  5497  0285  1303               	bcf	3,6	;RP1=0, select bank1
  5498  0286  00AC               	movwf	(___flmul@temp+1)^(0+128)
  5499  0287  1283               	bcf	3,5	;RP0=0, select bank0
  5500  0288  1303               	bcf	3,6	;RP1=0, select bank0
  5501  0289  0820               	movf	?__Umul8_16,w
  5502  028A  1683               	bsf	3,5	;RP0=1, select bank1
  5503  028B  1303               	bcf	3,6	;RP1=0, select bank1
  5504  028C  00AB               	movwf	___flmul@temp^(0+128)
  5505  028D                     l2279:
  5506  028D  082B               	movf	___flmul@temp^(0+128),w
  5507  028E  1283               	bcf	3,5	;RP0=0, select bank0
  5508  028F  1303               	bcf	3,6	;RP1=0, select bank0
  5509  0290  00DF               	movwf	??___flmul
  5510  0291  1683               	bsf	3,5	;RP0=1, select bank1
  5511  0292  1303               	bcf	3,6	;RP1=0, select bank1
  5512  0293  082C               	movf	(___flmul@temp+1)^(0+128),w
  5513  0294  1283               	bcf	3,5	;RP0=0, select bank0
  5514  0295  1303               	bcf	3,6	;RP1=0, select bank0
  5515  0296  00E0               	movwf	??___flmul+1
  5516  0297  01E1               	clrf	??___flmul+2
  5517  0298  01E2               	clrf	??___flmul+3
  5518  0299  085F               	movf	??___flmul,w
  5519  029A  1683               	bsf	3,5	;RP0=1, select bank1
  5520  029B  1303               	bcf	3,6	;RP1=0, select bank1
  5521  029C  07A1               	addwf	___flmul@grs^(0+128),f
  5522  029D  1283               	bcf	3,5	;RP0=0, select bank0
  5523  029E  1303               	bcf	3,6	;RP1=0, select bank0
  5524  029F  0860               	movf	??___flmul+1,w
  5525  02A0  1103               	clrz
  5526  02A1  1803               	skipnc
  5527  02A2  3E01               	addlw	1
  5528  02A3  1903               	skipnz
  5529  02A4  2AA8               	goto	u2931
  5530  02A5  1683               	bsf	3,5	;RP0=1, select bank1
  5531  02A6  1303               	bcf	3,6	;RP1=0, select bank1
  5532  02A7  07A2               	addwf	(___flmul@grs+1)^(0+128),f
  5533  02A8                     u2931:
  5534  02A8  1283               	bcf	3,5	;RP0=0, select bank0
  5535  02A9  1303               	bcf	3,6	;RP1=0, select bank0
  5536  02AA  0861               	movf	??___flmul+2,w
  5537  02AB  1103               	clrz
  5538  02AC  1803               	skipnc
  5539  02AD  3E01               	addlw	1
  5540  02AE  1903               	skipnz
  5541  02AF  2AB3               	goto	u2932
  5542  02B0  1683               	bsf	3,5	;RP0=1, select bank1
  5543  02B1  1303               	bcf	3,6	;RP1=0, select bank1
  5544  02B2  07A3               	addwf	(___flmul@grs+2)^(0+128),f
  5545  02B3                     u2932:
  5546  02B3  1283               	bcf	3,5	;RP0=0, select bank0
  5547  02B4  1303               	bcf	3,6	;RP1=0, select bank0
  5548  02B5  0862               	movf	??___flmul+3,w
  5549  02B6  1103               	clrz
  5550  02B7  1803               	skipnc
  5551  02B8  3E01               	addlw	1
  5552  02B9  1903               	skipnz
  5553  02BA  2ABE               	goto	u2933
  5554  02BB  1683               	bsf	3,5	;RP0=1, select bank1
  5555  02BC  1303               	bcf	3,6	;RP1=0, select bank1
  5556  02BD  07A4               	addwf	(___flmul@grs+3)^(0+128),f
  5557  02BE                     u2933:
  5558  02BE  1283               	bcf	3,5	;RP0=0, select bank0
  5559  02BF  1303               	bcf	3,6	;RP1=0, select bank0
  5560  02C0  1683               	bsf	3,5	;RP0=1, select bank1
  5561  02C1  1303               	bcf	3,6	;RP1=0, select bank1
  5562  02C2                     l2281:
  5563  02C2  3008               	movlw	8
  5564  02C3  1283               	bcf	3,5	;RP0=0, select bank0
  5565  02C4  1303               	bcf	3,6	;RP1=0, select bank0
  5566  02C5  00DF               	movwf	??___flmul
  5567  02C6                     u2945:
  5568  02C6  1003               	clrc
  5569  02C7  1683               	bsf	3,5	;RP0=1, select bank1
  5570  02C8  1303               	bcf	3,6	;RP1=0, select bank1
  5571  02C9  0DA1               	rlf	___flmul@grs^(0+128),f
  5572  02CA  0DA2               	rlf	(___flmul@grs+1)^(0+128),f
  5573  02CB  0DA3               	rlf	(___flmul@grs+2)^(0+128),f
  5574  02CC  0DA4               	rlf	(___flmul@grs+3)^(0+128),f
  5575  02CD  1283               	bcf	3,5	;RP0=0, select bank0
  5576  02CE  1303               	bcf	3,6	;RP1=0, select bank0
  5577  02CF  0BDF               	decfsz	??___flmul,f
  5578  02D0  2AC6               	goto	u2945
  5579  02D1  0857               	movf	___flmul@b,w
  5580  02D2  00DF               	movwf	??___flmul
  5581  02D3  085F               	movf	??___flmul,w
  5582  02D4  00A0               	movwf	__Umul8_16@multiplicand
  5583  02D5  085B               	movf	___flmul@a,w
  5584  02D6  160A  118A  21A9  120A  118A  	fcall	__Umul8_16
  5585  02DB  1283               	bcf	3,5	;RP0=0, select bank0
  5586  02DC  1303               	bcf	3,6	;RP1=0, select bank0
  5587  02DD  0821               	movf	?__Umul8_16+1,w
  5588  02DE  1683               	bsf	3,5	;RP0=1, select bank1
  5589  02DF  1303               	bcf	3,6	;RP1=0, select bank1
  5590  02E0  00AC               	movwf	(___flmul@temp+1)^(0+128)
  5591  02E1  1283               	bcf	3,5	;RP0=0, select bank0
  5592  02E2  1303               	bcf	3,6	;RP1=0, select bank0
  5593  02E3  0820               	movf	?__Umul8_16,w
  5594  02E4  1683               	bsf	3,5	;RP0=1, select bank1
  5595  02E5  1303               	bcf	3,6	;RP1=0, select bank1
  5596  02E6  00AB               	movwf	___flmul@temp^(0+128)
  5597  02E7                     l2283:
  5598  02E7  082B               	movf	___flmul@temp^(0+128),w
  5599  02E8  1283               	bcf	3,5	;RP0=0, select bank0
  5600  02E9  1303               	bcf	3,6	;RP1=0, select bank0
  5601  02EA  00DF               	movwf	??___flmul
  5602  02EB  1683               	bsf	3,5	;RP0=1, select bank1
  5603  02EC  1303               	bcf	3,6	;RP1=0, select bank1
  5604  02ED  082C               	movf	(___flmul@temp+1)^(0+128),w
  5605  02EE  1283               	bcf	3,5	;RP0=0, select bank0
  5606  02EF  1303               	bcf	3,6	;RP1=0, select bank0
  5607  02F0  00E0               	movwf	??___flmul+1
  5608  02F1  01E1               	clrf	??___flmul+2
  5609  02F2  01E2               	clrf	??___flmul+3
  5610  02F3  085F               	movf	??___flmul,w
  5611  02F4  1683               	bsf	3,5	;RP0=1, select bank1
  5612  02F5  1303               	bcf	3,6	;RP1=0, select bank1
  5613  02F6  07A1               	addwf	___flmul@grs^(0+128),f
  5614  02F7  1283               	bcf	3,5	;RP0=0, select bank0
  5615  02F8  1303               	bcf	3,6	;RP1=0, select bank0
  5616  02F9  0860               	movf	??___flmul+1,w
  5617  02FA  1103               	clrz
  5618  02FB  1803               	skipnc
  5619  02FC  3E01               	addlw	1
  5620  02FD  1903               	skipnz
  5621  02FE  2B02               	goto	u2951
  5622  02FF  1683               	bsf	3,5	;RP0=1, select bank1
  5623  0300  1303               	bcf	3,6	;RP1=0, select bank1
  5624  0301  07A2               	addwf	(___flmul@grs+1)^(0+128),f
  5625  0302                     u2951:
  5626  0302  1283               	bcf	3,5	;RP0=0, select bank0
  5627  0303  1303               	bcf	3,6	;RP1=0, select bank0
  5628  0304  0861               	movf	??___flmul+2,w
  5629  0305  1103               	clrz
  5630  0306  1803               	skipnc
  5631  0307  3E01               	addlw	1
  5632  0308  1903               	skipnz
  5633  0309  2B0D               	goto	u2952
  5634  030A  1683               	bsf	3,5	;RP0=1, select bank1
  5635  030B  1303               	bcf	3,6	;RP1=0, select bank1
  5636  030C  07A3               	addwf	(___flmul@grs+2)^(0+128),f
  5637  030D                     u2952:
  5638  030D  1283               	bcf	3,5	;RP0=0, select bank0
  5639  030E  1303               	bcf	3,6	;RP1=0, select bank0
  5640  030F  0862               	movf	??___flmul+3,w
  5641  0310  1103               	clrz
  5642  0311  1803               	skipnc
  5643  0312  3E01               	addlw	1
  5644  0313  1903               	skipnz
  5645  0314  2B18               	goto	u2953
  5646  0315  1683               	bsf	3,5	;RP0=1, select bank1
  5647  0316  1303               	bcf	3,6	;RP1=0, select bank1
  5648  0317  07A4               	addwf	(___flmul@grs+3)^(0+128),f
  5649  0318                     u2953:
  5650  0318  1283               	bcf	3,5	;RP0=0, select bank0
  5651  0319  1303               	bcf	3,6	;RP1=0, select bank0
  5652  031A  1683               	bsf	3,5	;RP0=1, select bank1
  5653  031B  1303               	bcf	3,6	;RP1=0, select bank1
  5654  031C                     l2285:
  5655  031C  1283               	bcf	3,5	;RP0=0, select bank0
  5656  031D  1303               	bcf	3,6	;RP1=0, select bank0
  5657  031E  0858               	movf	___flmul@b+1,w
  5658  031F  00DF               	movwf	??___flmul
  5659  0320  085F               	movf	??___flmul,w
  5660  0321  00A0               	movwf	__Umul8_16@multiplicand
  5661  0322  085D               	movf	___flmul@a+2,w
  5662  0323  160A  118A  21A9  120A  118A  	fcall	__Umul8_16
  5663  0328  1283               	bcf	3,5	;RP0=0, select bank0
  5664  0329  1303               	bcf	3,6	;RP1=0, select bank0
  5665  032A  0821               	movf	?__Umul8_16+1,w
  5666  032B  1683               	bsf	3,5	;RP0=1, select bank1
  5667  032C  1303               	bcf	3,6	;RP1=0, select bank1
  5668  032D  00AC               	movwf	(___flmul@temp+1)^(0+128)
  5669  032E  1283               	bcf	3,5	;RP0=0, select bank0
  5670  032F  1303               	bcf	3,6	;RP1=0, select bank0
  5671  0330  0820               	movf	?__Umul8_16,w
  5672  0331  1683               	bsf	3,5	;RP0=1, select bank1
  5673  0332  1303               	bcf	3,6	;RP1=0, select bank1
  5674  0333  00AB               	movwf	___flmul@temp^(0+128)
  5675  0334  082B               	movf	___flmul@temp^(0+128),w
  5676  0335  1283               	bcf	3,5	;RP0=0, select bank0
  5677  0336  1303               	bcf	3,6	;RP1=0, select bank0
  5678  0337  00DF               	movwf	??___flmul
  5679  0338  1683               	bsf	3,5	;RP0=1, select bank1
  5680  0339  1303               	bcf	3,6	;RP1=0, select bank1
  5681  033A  082C               	movf	(___flmul@temp+1)^(0+128),w
  5682  033B  1283               	bcf	3,5	;RP0=0, select bank0
  5683  033C  1303               	bcf	3,6	;RP1=0, select bank0
  5684  033D  00E0               	movwf	??___flmul+1
  5685  033E  01E1               	clrf	??___flmul+2
  5686  033F  01E2               	clrf	??___flmul+3
  5687  0340  085F               	movf	??___flmul,w
  5688  0341  1683               	bsf	3,5	;RP0=1, select bank1
  5689  0342  1303               	bcf	3,6	;RP1=0, select bank1
  5690  0343  07A7               	addwf	___flmul@prod^(0+128),f
  5691  0344  1283               	bcf	3,5	;RP0=0, select bank0
  5692  0345  1303               	bcf	3,6	;RP1=0, select bank0
  5693  0346  0860               	movf	??___flmul+1,w
  5694  0347  1103               	clrz
  5695  0348  1803               	skipnc
  5696  0349  3E01               	addlw	1
  5697  034A  1903               	skipnz
  5698  034B  2B4F               	goto	u2961
  5699  034C  1683               	bsf	3,5	;RP0=1, select bank1
  5700  034D  1303               	bcf	3,6	;RP1=0, select bank1
  5701  034E  07A8               	addwf	(___flmul@prod+1)^(0+128),f
  5702  034F                     u2961:
  5703  034F  1283               	bcf	3,5	;RP0=0, select bank0
  5704  0350  1303               	bcf	3,6	;RP1=0, select bank0
  5705  0351  0861               	movf	??___flmul+2,w
  5706  0352  1103               	clrz
  5707  0353  1803               	skipnc
  5708  0354  3E01               	addlw	1
  5709  0355  1903               	skipnz
  5710  0356  2B5A               	goto	u2962
  5711  0357  1683               	bsf	3,5	;RP0=1, select bank1
  5712  0358  1303               	bcf	3,6	;RP1=0, select bank1
  5713  0359  07A9               	addwf	(___flmul@prod+2)^(0+128),f
  5714  035A                     u2962:
  5715  035A  1283               	bcf	3,5	;RP0=0, select bank0
  5716  035B  1303               	bcf	3,6	;RP1=0, select bank0
  5717  035C  0862               	movf	??___flmul+3,w
  5718  035D  1103               	clrz
  5719  035E  1803               	skipnc
  5720  035F  3E01               	addlw	1
  5721  0360  1903               	skipnz
  5722  0361  2B65               	goto	u2963
  5723  0362  1683               	bsf	3,5	;RP0=1, select bank1
  5724  0363  1303               	bcf	3,6	;RP1=0, select bank1
  5725  0364  07AA               	addwf	(___flmul@prod+3)^(0+128),f
  5726  0365                     u2963:
  5727  0365  1283               	bcf	3,5	;RP0=0, select bank0
  5728  0366  1303               	bcf	3,6	;RP1=0, select bank0
  5729  0367  1683               	bsf	3,5	;RP0=1, select bank1
  5730  0368  1303               	bcf	3,6	;RP1=0, select bank1
  5731  0369                     l2287:
  5732  0369  1283               	bcf	3,5	;RP0=0, select bank0
  5733  036A  1303               	bcf	3,6	;RP1=0, select bank0
  5734  036B  0859               	movf	___flmul@b+2,w
  5735  036C  00DF               	movwf	??___flmul
  5736  036D  085F               	movf	??___flmul,w
  5737  036E  00A0               	movwf	__Umul8_16@multiplicand
  5738  036F  085C               	movf	___flmul@a+1,w
  5739  0370  160A  118A  21A9  120A  118A  	fcall	__Umul8_16
  5740  0375  1283               	bcf	3,5	;RP0=0, select bank0
  5741  0376  1303               	bcf	3,6	;RP1=0, select bank0
  5742  0377  0821               	movf	?__Umul8_16+1,w
  5743  0378  1683               	bsf	3,5	;RP0=1, select bank1
  5744  0379  1303               	bcf	3,6	;RP1=0, select bank1
  5745  037A  00AC               	movwf	(___flmul@temp+1)^(0+128)
  5746  037B  1283               	bcf	3,5	;RP0=0, select bank0
  5747  037C  1303               	bcf	3,6	;RP1=0, select bank0
  5748  037D  0820               	movf	?__Umul8_16,w
  5749  037E  1683               	bsf	3,5	;RP0=1, select bank1
  5750  037F  1303               	bcf	3,6	;RP1=0, select bank1
  5751  0380  00AB               	movwf	___flmul@temp^(0+128)
  5752  0381                     l2289:
  5753  0381  082B               	movf	___flmul@temp^(0+128),w
  5754  0382  1283               	bcf	3,5	;RP0=0, select bank0
  5755  0383  1303               	bcf	3,6	;RP1=0, select bank0
  5756  0384  00DF               	movwf	??___flmul
  5757  0385  1683               	bsf	3,5	;RP0=1, select bank1
  5758  0386  1303               	bcf	3,6	;RP1=0, select bank1
  5759  0387  082C               	movf	(___flmul@temp+1)^(0+128),w
  5760  0388  1283               	bcf	3,5	;RP0=0, select bank0
  5761  0389  1303               	bcf	3,6	;RP1=0, select bank0
  5762  038A  00E0               	movwf	??___flmul+1
  5763  038B  01E1               	clrf	??___flmul+2
  5764  038C  01E2               	clrf	??___flmul+3
  5765  038D  085F               	movf	??___flmul,w
  5766  038E  1683               	bsf	3,5	;RP0=1, select bank1
  5767  038F  1303               	bcf	3,6	;RP1=0, select bank1
  5768  0390  07A7               	addwf	___flmul@prod^(0+128),f
  5769  0391  1283               	bcf	3,5	;RP0=0, select bank0
  5770  0392  1303               	bcf	3,6	;RP1=0, select bank0
  5771  0393  0860               	movf	??___flmul+1,w
  5772  0394  1103               	clrz
  5773  0395  1803               	skipnc
  5774  0396  3E01               	addlw	1
  5775  0397  1903               	skipnz
  5776  0398  2B9C               	goto	u2971
  5777  0399  1683               	bsf	3,5	;RP0=1, select bank1
  5778  039A  1303               	bcf	3,6	;RP1=0, select bank1
  5779  039B  07A8               	addwf	(___flmul@prod+1)^(0+128),f
  5780  039C                     u2971:
  5781  039C  1283               	bcf	3,5	;RP0=0, select bank0
  5782  039D  1303               	bcf	3,6	;RP1=0, select bank0
  5783  039E  0861               	movf	??___flmul+2,w
  5784  039F  1103               	clrz
  5785  03A0  1803               	skipnc
  5786  03A1  3E01               	addlw	1
  5787  03A2  1903               	skipnz
  5788  03A3  2BA7               	goto	u2972
  5789  03A4  1683               	bsf	3,5	;RP0=1, select bank1
  5790  03A5  1303               	bcf	3,6	;RP1=0, select bank1
  5791  03A6  07A9               	addwf	(___flmul@prod+2)^(0+128),f
  5792  03A7                     u2972:
  5793  03A7  1283               	bcf	3,5	;RP0=0, select bank0
  5794  03A8  1303               	bcf	3,6	;RP1=0, select bank0
  5795  03A9  0862               	movf	??___flmul+3,w
  5796  03AA  1103               	clrz
  5797  03AB  1803               	skipnc
  5798  03AC  3E01               	addlw	1
  5799  03AD  1903               	skipnz
  5800  03AE  2BB2               	goto	u2973
  5801  03AF  1683               	bsf	3,5	;RP0=1, select bank1
  5802  03B0  1303               	bcf	3,6	;RP1=0, select bank1
  5803  03B1  07AA               	addwf	(___flmul@prod+3)^(0+128),f
  5804  03B2                     u2973:
  5805  03B2  1283               	bcf	3,5	;RP0=0, select bank0
  5806  03B3  1303               	bcf	3,6	;RP1=0, select bank0
  5807  03B4  1683               	bsf	3,5	;RP0=1, select bank1
  5808  03B5  1303               	bcf	3,6	;RP1=0, select bank1
  5809  03B6  1283               	bcf	3,5	;RP0=0, select bank0
  5810  03B7  1303               	bcf	3,6	;RP1=0, select bank0
  5811  03B8  0859               	movf	___flmul@b+2,w
  5812  03B9  00DF               	movwf	??___flmul
  5813  03BA  085F               	movf	??___flmul,w
  5814  03BB  00A0               	movwf	__Umul8_16@multiplicand
  5815  03BC  085D               	movf	___flmul@a+2,w
  5816  03BD  160A  118A  21A9  120A  118A  	fcall	__Umul8_16
  5817  03C2  1283               	bcf	3,5	;RP0=0, select bank0
  5818  03C3  1303               	bcf	3,6	;RP1=0, select bank0
  5819  03C4  0821               	movf	?__Umul8_16+1,w
  5820  03C5  1683               	bsf	3,5	;RP0=1, select bank1
  5821  03C6  1303               	bcf	3,6	;RP1=0, select bank1
  5822  03C7  00AC               	movwf	(___flmul@temp+1)^(0+128)
  5823  03C8  1283               	bcf	3,5	;RP0=0, select bank0
  5824  03C9  1303               	bcf	3,6	;RP1=0, select bank0
  5825  03CA  0820               	movf	?__Umul8_16,w
  5826  03CB  1683               	bsf	3,5	;RP0=1, select bank1
  5827  03CC  1303               	bcf	3,6	;RP1=0, select bank1
  5828  03CD  00AB               	movwf	___flmul@temp^(0+128)
  5829  03CE                     l2291:
  5830  03CE  082B               	movf	___flmul@temp^(0+128),w
  5831  03CF  1283               	bcf	3,5	;RP0=0, select bank0
  5832  03D0  1303               	bcf	3,6	;RP1=0, select bank0
  5833  03D1  00DF               	movwf	??___flmul
  5834  03D2  1683               	bsf	3,5	;RP0=1, select bank1
  5835  03D3  1303               	bcf	3,6	;RP1=0, select bank1
  5836  03D4  082C               	movf	(___flmul@temp+1)^(0+128),w
  5837  03D5  1283               	bcf	3,5	;RP0=0, select bank0
  5838  03D6  1303               	bcf	3,6	;RP1=0, select bank0
  5839  03D7  00E0               	movwf	??___flmul+1
  5840  03D8  01E1               	clrf	??___flmul+2
  5841  03D9  01E2               	clrf	??___flmul+3
  5842  03DA  3008               	movlw	8
  5843  03DB                     u2985:
  5844  03DB  1003               	clrc
  5845  03DC  0DDF               	rlf	??___flmul,f
  5846  03DD  0DE0               	rlf	??___flmul+1,f
  5847  03DE  0DE1               	rlf	??___flmul+2,f
  5848  03DF  0DE2               	rlf	??___flmul+3,f
  5849  03E0                     u2980:
  5850  03E0  3EFF               	addlw	-1
  5851  03E1  1D03               	skipz
  5852  03E2  2BDB               	goto	u2985
  5853  03E3  085F               	movf	??___flmul,w
  5854  03E4  1683               	bsf	3,5	;RP0=1, select bank1
  5855  03E5  1303               	bcf	3,6	;RP1=0, select bank1
  5856  03E6  07A7               	addwf	___flmul@prod^(0+128),f
  5857  03E7  1283               	bcf	3,5	;RP0=0, select bank0
  5858  03E8  1303               	bcf	3,6	;RP1=0, select bank0
  5859  03E9  0860               	movf	??___flmul+1,w
  5860  03EA  1103               	clrz
  5861  03EB  1803               	skipnc
  5862  03EC  3E01               	addlw	1
  5863  03ED  1903               	skipnz
  5864  03EE  2BF2               	goto	u2991
  5865  03EF  1683               	bsf	3,5	;RP0=1, select bank1
  5866  03F0  1303               	bcf	3,6	;RP1=0, select bank1
  5867  03F1  07A8               	addwf	(___flmul@prod+1)^(0+128),f
  5868  03F2                     u2991:
  5869  03F2  1283               	bcf	3,5	;RP0=0, select bank0
  5870  03F3  1303               	bcf	3,6	;RP1=0, select bank0
  5871  03F4  0861               	movf	??___flmul+2,w
  5872  03F5  1103               	clrz
  5873  03F6  1803               	skipnc
  5874  03F7  3E01               	addlw	1
  5875  03F8  1903               	skipnz
  5876  03F9  2BFD               	goto	u2992
  5877  03FA  1683               	bsf	3,5	;RP0=1, select bank1
  5878  03FB  1303               	bcf	3,6	;RP1=0, select bank1
  5879  03FC  07A9               	addwf	(___flmul@prod+2)^(0+128),f
  5880  03FD                     u2992:
  5881  03FD  1283               	bcf	3,5	;RP0=0, select bank0
  5882  03FE  1303               	bcf	3,6	;RP1=0, select bank0
  5883  03FF  0862               	movf	??___flmul+3,w
  5884  0400  1103               	clrz
  5885  0401  1803               	skipnc
  5886  0402  3E01               	addlw	1
  5887  0403  1903               	skipnz
  5888  0404  2C08               	goto	u2993
  5889  0405  1683               	bsf	3,5	;RP0=1, select bank1
  5890  0406  1303               	bcf	3,6	;RP1=0, select bank1
  5891  0407  07AA               	addwf	(___flmul@prod+3)^(0+128),f
  5892  0408                     u2993:
  5893  0408  1283               	bcf	3,5	;RP0=0, select bank0
  5894  0409  1303               	bcf	3,6	;RP1=0, select bank0
  5895  040A  1683               	bsf	3,5	;RP0=1, select bank1
  5896  040B  1303               	bcf	3,6	;RP1=0, select bank1
  5897  040C                     l2293:
  5898  040C  0821               	movf	___flmul@grs^(0+128),w
  5899  040D  1283               	bcf	3,5	;RP0=0, select bank0
  5900  040E  1303               	bcf	3,6	;RP1=0, select bank0
  5901  040F  00DF               	movwf	??___flmul
  5902  0410  1683               	bsf	3,5	;RP0=1, select bank1
  5903  0411  1303               	bcf	3,6	;RP1=0, select bank1
  5904  0412  0822               	movf	(___flmul@grs+1)^(0+128),w
  5905  0413  1283               	bcf	3,5	;RP0=0, select bank0
  5906  0414  1303               	bcf	3,6	;RP1=0, select bank0
  5907  0415  00E0               	movwf	??___flmul+1
  5908  0416  1683               	bsf	3,5	;RP0=1, select bank1
  5909  0417  1303               	bcf	3,6	;RP1=0, select bank1
  5910  0418  0823               	movf	(___flmul@grs+2)^(0+128),w
  5911  0419  1283               	bcf	3,5	;RP0=0, select bank0
  5912  041A  1303               	bcf	3,6	;RP1=0, select bank0
  5913  041B  00E1               	movwf	??___flmul+2
  5914  041C  1683               	bsf	3,5	;RP0=1, select bank1
  5915  041D  1303               	bcf	3,6	;RP1=0, select bank1
  5916  041E  0824               	movf	(___flmul@grs+3)^(0+128),w
  5917  041F  1283               	bcf	3,5	;RP0=0, select bank0
  5918  0420  1303               	bcf	3,6	;RP1=0, select bank0
  5919  0421  00E2               	movwf	??___flmul+3
  5920  0422  3018               	movlw	24
  5921  0423                     u3005:
  5922  0423  1003               	clrc
  5923  0424  0CE2               	rrf	??___flmul+3,f
  5924  0425  0CE1               	rrf	??___flmul+2,f
  5925  0426  0CE0               	rrf	??___flmul+1,f
  5926  0427  0CDF               	rrf	??___flmul,f
  5927  0428                     u3000:
  5928  0428  3EFF               	addlw	-1
  5929  0429  1D03               	skipz
  5930  042A  2C23               	goto	u3005
  5931  042B  085F               	movf	??___flmul,w
  5932  042C  1683               	bsf	3,5	;RP0=1, select bank1
  5933  042D  1303               	bcf	3,6	;RP1=0, select bank1
  5934  042E  07A7               	addwf	___flmul@prod^(0+128),f
  5935  042F  1283               	bcf	3,5	;RP0=0, select bank0
  5936  0430  1303               	bcf	3,6	;RP1=0, select bank0
  5937  0431  0860               	movf	??___flmul+1,w
  5938  0432  1103               	clrz
  5939  0433  1803               	skipnc
  5940  0434  3E01               	addlw	1
  5941  0435  1903               	skipnz
  5942  0436  2C3A               	goto	u3011
  5943  0437  1683               	bsf	3,5	;RP0=1, select bank1
  5944  0438  1303               	bcf	3,6	;RP1=0, select bank1
  5945  0439  07A8               	addwf	(___flmul@prod+1)^(0+128),f
  5946  043A                     u3011:
  5947  043A  1283               	bcf	3,5	;RP0=0, select bank0
  5948  043B  1303               	bcf	3,6	;RP1=0, select bank0
  5949  043C  0861               	movf	??___flmul+2,w
  5950  043D  1103               	clrz
  5951  043E  1803               	skipnc
  5952  043F  3E01               	addlw	1
  5953  0440  1903               	skipnz
  5954  0441  2C45               	goto	u3012
  5955  0442  1683               	bsf	3,5	;RP0=1, select bank1
  5956  0443  1303               	bcf	3,6	;RP1=0, select bank1
  5957  0444  07A9               	addwf	(___flmul@prod+2)^(0+128),f
  5958  0445                     u3012:
  5959  0445  1283               	bcf	3,5	;RP0=0, select bank0
  5960  0446  1303               	bcf	3,6	;RP1=0, select bank0
  5961  0447  0862               	movf	??___flmul+3,w
  5962  0448  1103               	clrz
  5963  0449  1803               	skipnc
  5964  044A  3E01               	addlw	1
  5965  044B  1903               	skipnz
  5966  044C  2C50               	goto	u3013
  5967  044D  1683               	bsf	3,5	;RP0=1, select bank1
  5968  044E  1303               	bcf	3,6	;RP1=0, select bank1
  5969  044F  07AA               	addwf	(___flmul@prod+3)^(0+128),f
  5970  0450                     u3013:
  5971  0450  1283               	bcf	3,5	;RP0=0, select bank0
  5972  0451  1303               	bcf	3,6	;RP1=0, select bank0
  5973  0452  1683               	bsf	3,5	;RP0=1, select bank1
  5974  0453  1303               	bcf	3,6	;RP1=0, select bank1
  5975  0454                     l2295:
  5976  0454  3008               	movlw	8
  5977  0455  1283               	bcf	3,5	;RP0=0, select bank0
  5978  0456  1303               	bcf	3,6	;RP1=0, select bank0
  5979  0457  00DF               	movwf	??___flmul
  5980  0458                     u3025:
  5981  0458  1003               	clrc
  5982  0459  1683               	bsf	3,5	;RP0=1, select bank1
  5983  045A  1303               	bcf	3,6	;RP1=0, select bank1
  5984  045B  0DA1               	rlf	___flmul@grs^(0+128),f
  5985  045C  0DA2               	rlf	(___flmul@grs+1)^(0+128),f
  5986  045D  0DA3               	rlf	(___flmul@grs+2)^(0+128),f
  5987  045E  0DA4               	rlf	(___flmul@grs+3)^(0+128),f
  5988  045F  1283               	bcf	3,5	;RP0=0, select bank0
  5989  0460  1303               	bcf	3,6	;RP1=0, select bank0
  5990  0461  0BDF               	decfsz	??___flmul,f
  5991  0462  2C58               	goto	u3025
  5992  0463                     l2297:
  5993  0463  1683               	bsf	3,5	;RP0=1, select bank1
  5994  0464  1303               	bcf	3,6	;RP1=0, select bank1
  5995  0465  0826               	movf	___flmul@bexp^(0+128),w
  5996  0466  0725               	addwf	___flmul@aexp^(0+128),w
  5997  0467  1283               	bcf	3,5	;RP0=0, select bank0
  5998  0468  1303               	bcf	3,6	;RP1=0, select bank0
  5999  0469  00DF               	movwf	??___flmul
  6000  046A  01E0               	clrf	??___flmul+1
  6001  046B  0DE0               	rlf	??___flmul+1,f
  6002  046C  085F               	movf	??___flmul,w
  6003  046D  3E82               	addlw	130
  6004  046E  1683               	bsf	3,5	;RP0=1, select bank1
  6005  046F  1303               	bcf	3,6	;RP1=0, select bank1
  6006  0470  00AB               	movwf	___flmul@temp^(0+128)
  6007  0471  1283               	bcf	3,5	;RP0=0, select bank0
  6008  0472  1303               	bcf	3,6	;RP1=0, select bank0
  6009  0473  0860               	movf	??___flmul+1,w
  6010  0474  1803               	skipnc
  6011  0475  3E01               	addlw	1
  6012  0476  3EFF               	addlw	255
  6013  0477  1683               	bsf	3,5	;RP0=1, select bank1
  6014  0478  1303               	bcf	3,6	;RP1=0, select bank1
  6015  0479  00AC               	movwf	(___flmul@temp+1)^(0+128)
  6016  047A  2CA8               	goto	l2309
  6017  047B                     l2299:
  6018  047B  3001               	movlw	1
  6019  047C  1283               	bcf	3,5	;RP0=0, select bank0
  6020  047D  1303               	bcf	3,6	;RP1=0, select bank0
  6021  047E  00DF               	movwf	??___flmul
  6022  047F                     u3035:
  6023  047F  1003               	clrc
  6024  0480  1683               	bsf	3,5	;RP0=1, select bank1
  6025  0481  1303               	bcf	3,6	;RP1=0, select bank1
  6026  0482  0DA7               	rlf	___flmul@prod^(0+128),f
  6027  0483  0DA8               	rlf	(___flmul@prod+1)^(0+128),f
  6028  0484  0DA9               	rlf	(___flmul@prod+2)^(0+128),f
  6029  0485  0DAA               	rlf	(___flmul@prod+3)^(0+128),f
  6030  0486  1283               	bcf	3,5	;RP0=0, select bank0
  6031  0487  1303               	bcf	3,6	;RP1=0, select bank0
  6032  0488  0BDF               	decfsz	??___flmul,f
  6033  0489  2C7F               	goto	u3035
  6034  048A                     l2301:
  6035  048A  1683               	bsf	3,5	;RP0=1, select bank1
  6036  048B  1303               	bcf	3,6	;RP1=0, select bank1
  6037  048C  1FA4               	btfss	(___flmul@grs+3)^(0+128),7
  6038  048D  2C8F               	goto	u3041
  6039  048E  2C90               	goto	u3040
  6040  048F                     u3041:
  6041  048F  2C91               	goto	l2305
  6042  0490                     u3040:
  6043  0490                     l2303:
  6044  0490  1427               	bsf	___flmul@prod^(0+128),0
  6045  0491                     l2305:
  6046  0491  3001               	movlw	1
  6047  0492  1283               	bcf	3,5	;RP0=0, select bank0
  6048  0493  1303               	bcf	3,6	;RP1=0, select bank0
  6049  0494  00DF               	movwf	??___flmul
  6050  0495                     u3055:
  6051  0495  1003               	clrc
  6052  0496  1683               	bsf	3,5	;RP0=1, select bank1
  6053  0497  1303               	bcf	3,6	;RP1=0, select bank1
  6054  0498  0DA1               	rlf	___flmul@grs^(0+128),f
  6055  0499  0DA2               	rlf	(___flmul@grs+1)^(0+128),f
  6056  049A  0DA3               	rlf	(___flmul@grs+2)^(0+128),f
  6057  049B  0DA4               	rlf	(___flmul@grs+3)^(0+128),f
  6058  049C  1283               	bcf	3,5	;RP0=0, select bank0
  6059  049D  1303               	bcf	3,6	;RP1=0, select bank0
  6060  049E  0BDF               	decfsz	??___flmul,f
  6061  049F  2C95               	goto	u3055
  6062  04A0                     l2307:
  6063  04A0  30FF               	movlw	255
  6064  04A1  1683               	bsf	3,5	;RP0=1, select bank1
  6065  04A2  1303               	bcf	3,6	;RP1=0, select bank1
  6066  04A3  07AB               	addwf	___flmul@temp^(0+128),f
  6067  04A4  1803               	skipnc
  6068  04A5  0AAC               	incf	(___flmul@temp+1)^(0+128),f
  6069  04A6  30FF               	movlw	255
  6070  04A7  07AC               	addwf	(___flmul@temp+1)^(0+128),f
  6071  04A8                     l2309:
  6072  04A8  1FA9               	btfss	(___flmul@prod+2)^(0+128),7
  6073  04A9  2CAB               	goto	u3061
  6074  04AA  2CAC               	goto	u3060
  6075  04AB                     u3061:
  6076  04AB  2C7B               	goto	l2299
  6077  04AC                     u3060:
  6078  04AC                     l2311:
  6079  04AC  01A5               	clrf	___flmul@aexp^(0+128)
  6080  04AD                     l2313:
  6081  04AD  1FA4               	btfss	(___flmul@grs+3)^(0+128),7
  6082  04AE  2CB0               	goto	u3071
  6083  04AF  2CB1               	goto	u3070
  6084  04B0                     u3071:
  6085  04B0  2CDF               	goto	l2321
  6086  04B1                     u3070:
  6087  04B1                     l2315:
  6088  04B1  30FF               	movlw	255
  6089  04B2  0521               	andwf	___flmul@grs^(0+128),w
  6090  04B3  1283               	bcf	3,5	;RP0=0, select bank0
  6091  04B4  1303               	bcf	3,6	;RP1=0, select bank0
  6092  04B5  00DF               	movwf	??___flmul
  6093  04B6  30FF               	movlw	255
  6094  04B7  1683               	bsf	3,5	;RP0=1, select bank1
  6095  04B8  1303               	bcf	3,6	;RP1=0, select bank1
  6096  04B9  0522               	andwf	(___flmul@grs+1)^(0+128),w
  6097  04BA  1283               	bcf	3,5	;RP0=0, select bank0
  6098  04BB  1303               	bcf	3,6	;RP1=0, select bank0
  6099  04BC  00E0               	movwf	??___flmul+1
  6100  04BD  30FF               	movlw	255
  6101  04BE  1683               	bsf	3,5	;RP0=1, select bank1
  6102  04BF  1303               	bcf	3,6	;RP1=0, select bank1
  6103  04C0  0523               	andwf	(___flmul@grs+2)^(0+128),w
  6104  04C1  1283               	bcf	3,5	;RP0=0, select bank0
  6105  04C2  1303               	bcf	3,6	;RP1=0, select bank0
  6106  04C3  00E1               	movwf	??___flmul+2
  6107  04C4  307F               	movlw	127
  6108  04C5  1683               	bsf	3,5	;RP0=1, select bank1
  6109  04C6  1303               	bcf	3,6	;RP1=0, select bank1
  6110  04C7  0524               	andwf	(___flmul@grs+3)^(0+128),w
  6111  04C8  1283               	bcf	3,5	;RP0=0, select bank0
  6112  04C9  1303               	bcf	3,6	;RP1=0, select bank0
  6113  04CA  00E2               	movwf	??___flmul+3
  6114  04CB  0862               	movf	??___flmul+3,w
  6115  04CC  0461               	iorwf	??___flmul+2,w
  6116  04CD  0460               	iorwf	??___flmul+1,w
  6117  04CE  045F               	iorwf	??___flmul,w
  6118  04CF  1903               	skipnz
  6119  04D0  2CD2               	goto	u3081
  6120  04D1  2CD3               	goto	u3080
  6121  04D2                     u3081:
  6122  04D2  2CD8               	goto	l792
  6123  04D3                     u3080:
  6124  04D3                     l2317:
  6125  04D3  1683               	bsf	3,5	;RP0=1, select bank1
  6126  04D4  1303               	bcf	3,6	;RP1=0, select bank1
  6127  04D5  01A5               	clrf	___flmul@aexp^(0+128)
  6128  04D6  0AA5               	incf	___flmul@aexp^(0+128),f
  6129  04D7  2CDF               	goto	l2321
  6130  04D8                     l792:
  6131  04D8  1683               	bsf	3,5	;RP0=1, select bank1
  6132  04D9  1303               	bcf	3,6	;RP1=0, select bank1
  6133  04DA  1C27               	btfss	___flmul@prod^(0+128),0
  6134  04DB  2CDD               	goto	u3091
  6135  04DC  2CDE               	goto	u3090
  6136  04DD                     u3091:
  6137  04DD  2CDF               	goto	l2321
  6138  04DE                     u3090:
  6139  04DE  2CD3               	goto	l2317
  6140  04DF                     l2321:
  6141  04DF  0825               	movf	___flmul@aexp^(0+128),w
  6142  04E0  1903               	btfsc	3,2
  6143  04E1  2CE3               	goto	u3101
  6144  04E2  2CE4               	goto	u3100
  6145  04E3                     u3101:
  6146  04E3  2D31               	goto	l2331
  6147  04E4                     u3100:
  6148  04E4                     l2323:
  6149  04E4  3001               	movlw	1
  6150  04E5  07A7               	addwf	___flmul@prod^(0+128),f
  6151  04E6  3000               	movlw	0
  6152  04E7  1803               	skipnc
  6153  04E8  3001               	movlw	1
  6154  04E9  07A8               	addwf	(___flmul@prod+1)^(0+128),f
  6155  04EA  3000               	movlw	0
  6156  04EB  1803               	skipnc
  6157  04EC  3001               	movlw	1
  6158  04ED  07A9               	addwf	(___flmul@prod+2)^(0+128),f
  6159  04EE  3000               	movlw	0
  6160  04EF  1803               	skipnc
  6161  04F0  3001               	movlw	1
  6162  04F1  07AA               	addwf	(___flmul@prod+3)^(0+128),f
  6163  04F2                     l2325:
  6164  04F2  1C2A               	btfss	(___flmul@prod+3)^(0+128),0
  6165  04F3  2CF5               	goto	u3111
  6166  04F4  2CF6               	goto	u3110
  6167  04F5                     u3111:
  6168  04F5  2D31               	goto	l2331
  6169  04F6                     u3110:
  6170  04F6                     l2327:
  6171  04F6  0827               	movf	___flmul@prod^(0+128),w
  6172  04F7  1283               	bcf	3,5	;RP0=0, select bank0
  6173  04F8  1303               	bcf	3,6	;RP1=0, select bank0
  6174  04F9  00DF               	movwf	??___flmul
  6175  04FA  1683               	bsf	3,5	;RP0=1, select bank1
  6176  04FB  1303               	bcf	3,6	;RP1=0, select bank1
  6177  04FC  0828               	movf	(___flmul@prod+1)^(0+128),w
  6178  04FD  1283               	bcf	3,5	;RP0=0, select bank0
  6179  04FE  1303               	bcf	3,6	;RP1=0, select bank0
  6180  04FF  00E0               	movwf	??___flmul+1
  6181  0500  1683               	bsf	3,5	;RP0=1, select bank1
  6182  0501  1303               	bcf	3,6	;RP1=0, select bank1
  6183  0502  0829               	movf	(___flmul@prod+2)^(0+128),w
  6184  0503  1283               	bcf	3,5	;RP0=0, select bank0
  6185  0504  1303               	bcf	3,6	;RP1=0, select bank0
  6186  0505  00E1               	movwf	??___flmul+2
  6187  0506  1683               	bsf	3,5	;RP0=1, select bank1
  6188  0507  1303               	bcf	3,6	;RP1=0, select bank1
  6189  0508  082A               	movf	(___flmul@prod+3)^(0+128),w
  6190  0509  1283               	bcf	3,5	;RP0=0, select bank0
  6191  050A  1303               	bcf	3,6	;RP1=0, select bank0
  6192  050B  00E2               	movwf	??___flmul+3
  6193  050C  3001               	movlw	1
  6194  050D  00E3               	movwf	??___flmul+4
  6195  050E                     u3125:
  6196  050E  0D62               	rlf	??___flmul+3,w
  6197  050F  0CE2               	rrf	??___flmul+3,f
  6198  0510  0CE1               	rrf	??___flmul+2,f
  6199  0511  0CE0               	rrf	??___flmul+1,f
  6200  0512  0CDF               	rrf	??___flmul,f
  6201  0513                     u3120:
  6202  0513  0BE3               	decfsz	??___flmul+4,f
  6203  0514  2D0E               	goto	u3125
  6204  0515  0862               	movf	??___flmul+3,w
  6205  0516  1683               	bsf	3,5	;RP0=1, select bank1
  6206  0517  1303               	bcf	3,6	;RP1=0, select bank1
  6207  0518  00AA               	movwf	(___flmul@prod+3)^(0+128)
  6208  0519  1283               	bcf	3,5	;RP0=0, select bank0
  6209  051A  1303               	bcf	3,6	;RP1=0, select bank0
  6210  051B  0861               	movf	??___flmul+2,w
  6211  051C  1683               	bsf	3,5	;RP0=1, select bank1
  6212  051D  1303               	bcf	3,6	;RP1=0, select bank1
  6213  051E  00A9               	movwf	(___flmul@prod+2)^(0+128)
  6214  051F  1283               	bcf	3,5	;RP0=0, select bank0
  6215  0520  1303               	bcf	3,6	;RP1=0, select bank0
  6216  0521  0860               	movf	??___flmul+1,w
  6217  0522  1683               	bsf	3,5	;RP0=1, select bank1
  6218  0523  1303               	bcf	3,6	;RP1=0, select bank1
  6219  0524  00A8               	movwf	(___flmul@prod+1)^(0+128)
  6220  0525  1283               	bcf	3,5	;RP0=0, select bank0
  6221  0526  1303               	bcf	3,6	;RP1=0, select bank0
  6222  0527  085F               	movf	??___flmul,w
  6223  0528  1683               	bsf	3,5	;RP0=1, select bank1
  6224  0529  1303               	bcf	3,6	;RP1=0, select bank1
  6225  052A  00A7               	movwf	___flmul@prod^(0+128)
  6226  052B                     l2329:
  6227  052B  3001               	movlw	1
  6228  052C  07AB               	addwf	___flmul@temp^(0+128),f
  6229  052D  1803               	skipnc
  6230  052E  0AAC               	incf	(___flmul@temp+1)^(0+128),f
  6231  052F  3000               	movlw	0
  6232  0530  07AC               	addwf	(___flmul@temp+1)^(0+128),f
  6233  0531                     l2331:
  6234  0531  082C               	movf	(___flmul@temp+1)^(0+128),w
  6235  0532  3A80               	xorlw	128
  6236  0533  00FF               	movwf	btemp+1
  6237  0534  3080               	movlw	128
  6238  0535  027F               	subwf	btemp+1,w
  6239  0536  1D03               	skipz
  6240  0537  2D3A               	goto	u3135
  6241  0538  30FF               	movlw	255
  6242  0539  022B               	subwf	___flmul@temp^(0+128),w
  6243  053A                     u3135:
  6244  053A  1C03               	skipc
  6245  053B  2D3D               	goto	u3131
  6246  053C  2D3E               	goto	u3130
  6247  053D                     u3131:
  6248  053D  2D49               	goto	l2335
  6249  053E                     u3130:
  6250  053E                     l2333:
  6251  053E  307F               	movlw	127
  6252  053F  1683               	bsf	3,5	;RP0=1, select bank1
  6253  0540  1303               	bcf	3,6	;RP1=0, select bank1
  6254  0541  00AA               	movwf	(___flmul@prod+3)^(0+128)
  6255  0542  3080               	movlw	128
  6256  0543  00A9               	movwf	(___flmul@prod+2)^(0+128)
  6257  0544  3000               	movlw	0
  6258  0545  00A8               	movwf	(___flmul@prod+1)^(0+128)
  6259  0546  3000               	movlw	0
  6260  0547  00A7               	movwf	___flmul@prod^(0+128)
  6261  0548  2D86               	goto	l798
  6262  0549                     l2335:
  6263  0549  1683               	bsf	3,5	;RP0=1, select bank1
  6264  054A  1303               	bcf	3,6	;RP1=0, select bank1
  6265  054B  082C               	movf	(___flmul@temp+1)^(0+128),w
  6266  054C  3A80               	xorlw	128
  6267  054D  00FF               	movwf	btemp+1
  6268  054E  3080               	movlw	128
  6269  054F  027F               	subwf	btemp+1,w
  6270  0550  1D03               	skipz
  6271  0551  2D54               	goto	u3145
  6272  0552  3001               	movlw	1
  6273  0553  022B               	subwf	___flmul@temp^(0+128),w
  6274  0554                     u3145:
  6275  0554  1803               	skipnc
  6276  0555  2D57               	goto	u3141
  6277  0556  2D58               	goto	u3140
  6278  0557                     u3141:
  6279  0557  2D64               	goto	l2341
  6280  0558                     u3140:
  6281  0558                     l2337:
  6282  0558  3000               	movlw	0
  6283  0559  1683               	bsf	3,5	;RP0=1, select bank1
  6284  055A  1303               	bcf	3,6	;RP1=0, select bank1
  6285  055B  00AA               	movwf	(___flmul@prod+3)^(0+128)
  6286  055C  3000               	movlw	0
  6287  055D  00A9               	movwf	(___flmul@prod+2)^(0+128)
  6288  055E  3000               	movlw	0
  6289  055F  00A8               	movwf	(___flmul@prod+1)^(0+128)
  6290  0560  3000               	movlw	0
  6291  0561  00A7               	movwf	___flmul@prod^(0+128)
  6292  0562                     l2339:
  6293  0562  01A0               	clrf	___flmul@sign^(0+128)
  6294  0563  2D86               	goto	l798
  6295  0564                     l2341:
  6296  0564  1683               	bsf	3,5	;RP0=1, select bank1
  6297  0565  1303               	bcf	3,6	;RP1=0, select bank1
  6298  0566  082B               	movf	___flmul@temp^(0+128),w
  6299  0567  1283               	bcf	3,5	;RP0=0, select bank0
  6300  0568  1303               	bcf	3,6	;RP1=0, select bank0
  6301  0569  00DF               	movwf	??___flmul
  6302  056A  085F               	movf	??___flmul,w
  6303  056B  1683               	bsf	3,5	;RP0=1, select bank1
  6304  056C  1303               	bcf	3,6	;RP1=0, select bank1
  6305  056D  00A6               	movwf	___flmul@bexp^(0+128)
  6306  056E  30FF               	movlw	255
  6307  056F  05A7               	andwf	___flmul@prod^(0+128),f
  6308  0570  30FF               	movlw	255
  6309  0571  05A8               	andwf	(___flmul@prod+1)^(0+128),f
  6310  0572  307F               	movlw	127
  6311  0573  05A9               	andwf	(___flmul@prod+2)^(0+128),f
  6312  0574  3000               	movlw	0
  6313  0575  05AA               	andwf	(___flmul@prod+3)^(0+128),f
  6314  0576                     l2343:
  6315  0576  1C26               	btfss	___flmul@bexp^(0+128),0
  6316  0577  2D79               	goto	u3151
  6317  0578  2D7A               	goto	u3150
  6318  0579                     u3151:
  6319  0579  2D7B               	goto	l2347
  6320  057A                     u3150:
  6321  057A                     l2345:
  6322  057A  17A9               	bsf	(___flmul@prod^(0+128)+2),7
  6323  057B                     l2347:
  6324  057B  0826               	movf	___flmul@bexp^(0+128),w
  6325  057C  1283               	bcf	3,5	;RP0=0, select bank0
  6326  057D  1303               	bcf	3,6	;RP1=0, select bank0
  6327  057E  00DF               	movwf	??___flmul
  6328  057F  1003               	clrc
  6329  0580  0C5F               	rrf	??___flmul,w
  6330  0581  00E0               	movwf	??___flmul+1
  6331  0582  0860               	movf	??___flmul+1,w
  6332  0583  1683               	bsf	3,5	;RP0=1, select bank1
  6333  0584  1303               	bcf	3,6	;RP1=0, select bank1
  6334  0585  00AA               	movwf	(___flmul@prod^(0+128)+3)
  6335  0586                     l798:
  6336  0586  0820               	movf	___flmul@sign^(0+128),w
  6337  0587  1283               	bcf	3,5	;RP0=0, select bank0
  6338  0588  1303               	bcf	3,6	;RP1=0, select bank0
  6339  0589  00DF               	movwf	??___flmul
  6340  058A  085F               	movf	??___flmul,w
  6341  058B  1683               	bsf	3,5	;RP0=1, select bank1
  6342  058C  1303               	bcf	3,6	;RP1=0, select bank1
  6343  058D  04AA               	iorwf	(___flmul@prod^(0+128)+3),f
  6344  058E                     l2349:
  6345  058E  082A               	movf	(___flmul@prod+3)^(0+128),w
  6346  058F  1283               	bcf	3,5	;RP0=0, select bank0
  6347  0590  1303               	bcf	3,6	;RP1=0, select bank0
  6348  0591  00DA               	movwf	?___flmul+3
  6349  0592  1683               	bsf	3,5	;RP0=1, select bank1
  6350  0593  1303               	bcf	3,6	;RP1=0, select bank1
  6351  0594  0829               	movf	(___flmul@prod+2)^(0+128),w
  6352  0595  1283               	bcf	3,5	;RP0=0, select bank0
  6353  0596  1303               	bcf	3,6	;RP1=0, select bank0
  6354  0597  00D9               	movwf	?___flmul+2
  6355  0598  1683               	bsf	3,5	;RP0=1, select bank1
  6356  0599  1303               	bcf	3,6	;RP1=0, select bank1
  6357  059A  0828               	movf	(___flmul@prod+1)^(0+128),w
  6358  059B  1283               	bcf	3,5	;RP0=0, select bank0
  6359  059C  1303               	bcf	3,6	;RP1=0, select bank0
  6360  059D  00D8               	movwf	?___flmul+1
  6361  059E  1683               	bsf	3,5	;RP0=1, select bank1
  6362  059F  1303               	bcf	3,6	;RP1=0, select bank1
  6363  05A0  0827               	movf	___flmul@prod^(0+128),w
  6364  05A1  1283               	bcf	3,5	;RP0=0, select bank0
  6365  05A2  1303               	bcf	3,6	;RP1=0, select bank0
  6366  05A3  00D7               	movwf	?___flmul
  6367  05A4                     l786:
  6368  05A4  0008               	return
  6369  05A5                     __end_of___flmul:
  6370                           
  6371                           	psect	text12
  6372  11A9                     __ptext12:	
  6373 ;; *************** function __Umul8_16 *****************
  6374 ;; Defined at:
  6375 ;;		line 4 in file "D:\File Install MBLAB IDE\XC8\pic\sources\c90\common\Umul8_16.c"
  6376 ;; Parameters:    Size  Location     Type
  6377 ;;  multiplier      1    wreg     unsigned char 
  6378 ;;  multiplicand    1    0[BANK0 ] unsigned char 
  6379 ;; Auto vars:     Size  Location     Type
  6380 ;;  multiplier      1    8[BANK0 ] unsigned char 
  6381 ;;  word_mpld       2    6[BANK0 ] unsigned int 
  6382 ;;  product         2    4[BANK0 ] unsigned int 
  6383 ;; Return value:  Size  Location     Type
  6384 ;;                  2    0[BANK0 ] unsigned int 
  6385 ;; Registers used:
  6386 ;;		wreg, status,2, status,0
  6387 ;; Tracked objects:
  6388 ;;		On entry : 0/0
  6389 ;;		On exit  : 0/0
  6390 ;;		Unchanged: 0/0
  6391 ;; Data sizes:     COMMON   BANK0   BANK1   BANK3   BANK2
  6392 ;;      Params:         0       2       0       0       0
  6393 ;;      Locals:         0       5       0       0       0
  6394 ;;      Temps:          0       2       0       0       0
  6395 ;;      Totals:         0       9       0       0       0
  6396 ;;Total ram usage:        9 bytes
  6397 ;; Hardware stack levels used: 1
  6398 ;; Hardware stack levels required when called: 4
  6399 ;; This function calls:
  6400 ;;		Nothing
  6401 ;; This function is called by:
  6402 ;;		___flmul
  6403 ;; This function uses a non-reentrant model
  6404 ;;
  6405                           
  6406                           
  6407                           ;psect for function __Umul8_16
  6408  11A9                     __Umul8_16:
  6409                           
  6410                           ;incstack = 0
  6411                           ; Regs used in __Umul8_16: [wreg+status,2+status,0]
  6412                           ;__Umul8_16@multiplier stored from wreg
  6413  11A9  1283               	bcf	3,5	;RP0=0, select bank0
  6414  11AA  1303               	bcf	3,6	;RP1=0, select bank0
  6415  11AB  00A8               	movwf	__Umul8_16@multiplier
  6416  11AC                     l1935:
  6417  11AC  01A4               	clrf	__Umul8_16@product
  6418  11AD  01A5               	clrf	__Umul8_16@product+1
  6419  11AE                     l1937:
  6420  11AE  0820               	movf	__Umul8_16@multiplicand,w
  6421  11AF  00A2               	movwf	??__Umul8_16
  6422  11B0  01A3               	clrf	??__Umul8_16+1
  6423  11B1  0822               	movf	??__Umul8_16,w
  6424  11B2  00A6               	movwf	__Umul8_16@word_mpld
  6425  11B3  0823               	movf	??__Umul8_16+1,w
  6426  11B4  00A7               	movwf	__Umul8_16@word_mpld+1
  6427  11B5                     l1939:
  6428  11B5  1C28               	btfss	__Umul8_16@multiplier,0
  6429  11B6  29B8               	goto	u2191
  6430  11B7  29B9               	goto	u2190
  6431  11B8                     u2191:
  6432  11B8  29BF               	goto	l805
  6433  11B9                     u2190:
  6434  11B9                     l1941:
  6435  11B9  0826               	movf	__Umul8_16@word_mpld,w
  6436  11BA  07A4               	addwf	__Umul8_16@product,f
  6437  11BB  1803               	skipnc
  6438  11BC  0AA5               	incf	__Umul8_16@product+1,f
  6439  11BD  0827               	movf	__Umul8_16@word_mpld+1,w
  6440  11BE  07A5               	addwf	__Umul8_16@product+1,f
  6441  11BF                     l805:
  6442  11BF  3001               	movlw	1
  6443  11C0                     u2205:
  6444  11C0  1003               	clrc
  6445  11C1  0DA6               	rlf	__Umul8_16@word_mpld,f
  6446  11C2  0DA7               	rlf	__Umul8_16@word_mpld+1,f
  6447  11C3  3EFF               	addlw	-1
  6448  11C4  1D03               	skipz
  6449  11C5  29C0               	goto	u2205
  6450  11C6  1003               	clrc
  6451  11C7  0CA8               	rrf	__Umul8_16@multiplier,f
  6452  11C8                     l1943:
  6453  11C8  0828               	movf	__Umul8_16@multiplier,w
  6454  11C9  1D03               	btfss	3,2
  6455  11CA  29CC               	goto	u2211
  6456  11CB  29CD               	goto	u2210
  6457  11CC                     u2211:
  6458  11CC  29B5               	goto	l1939
  6459  11CD                     u2210:
  6460  11CD                     l1945:
  6461  11CD  0825               	movf	__Umul8_16@product+1,w
  6462  11CE  00A1               	movwf	?__Umul8_16+1
  6463  11CF  0824               	movf	__Umul8_16@product,w
  6464  11D0  00A0               	movwf	?__Umul8_16
  6465  11D1                     l807:
  6466  11D1  0008               	return
  6467  11D2                     __end_of__Umul8_16:
  6468                           
  6469                           	psect	text13
  6470  05A5                     __ptext13:	
  6471 ;; *************** function ___fldiv *****************
  6472 ;; Defined at:
  6473 ;;		line 8 in file "D:\File Install MBLAB IDE\XC8\pic\sources\c90\common\sprcdiv.c"
  6474 ;; Parameters:    Size  Location     Type
  6475 ;;  a               4   29[BANK0 ] unsigned int 
  6476 ;;  b               4   33[BANK0 ] unsigned int 
  6477 ;; Auto vars:     Size  Location     Type
  6478 ;;  grs             4   49[BANK0 ] unsigned long 
  6479 ;;  rem             4   42[BANK0 ] unsigned long 
  6480 ;;  new_exp         2   47[BANK0 ] int 
  6481 ;;  aexp            1   54[BANK0 ] unsigned char 
  6482 ;;  bexp            1   53[BANK0 ] unsigned char 
  6483 ;;  sign            1   46[BANK0 ] unsigned char 
  6484 ;; Return value:  Size  Location     Type
  6485 ;;                  4   29[BANK0 ] unsigned char 
  6486 ;; Registers used:
  6487 ;;		wreg, status,2, status,0, btemp+1
  6488 ;; Tracked objects:
  6489 ;;		On entry : 0/0
  6490 ;;		On exit  : 0/0
  6491 ;;		Unchanged: 0/0
  6492 ;; Data sizes:     COMMON   BANK0   BANK1   BANK3   BANK2
  6493 ;;      Params:         0       8       0       0       0
  6494 ;;      Locals:         0      13       0       0       0
  6495 ;;      Temps:          0       5       0       0       0
  6496 ;;      Totals:         0      26       0       0       0
  6497 ;;Total ram usage:       26 bytes
  6498 ;; Hardware stack levels used: 1
  6499 ;; Hardware stack levels required when called: 4
  6500 ;; This function calls:
  6501 ;;		Nothing
  6502 ;; This function is called by:
  6503 ;;		_PWM1_Set_Duty
  6504 ;;		_PWM2_Set_Duty
  6505 ;; This function uses a non-reentrant model
  6506 ;;
  6507                           
  6508                           
  6509                           ;psect for function ___fldiv
  6510  05A5                     ___fldiv:
  6511  05A5                     l2071:	
  6512                           ;incstack = 0
  6513                           ; Regs used in ___fldiv: [wreg+status,2+status,0+btemp+1]
  6514                           
  6515  05A5  1283               	bcf	3,5	;RP0=0, select bank0
  6516  05A6  1303               	bcf	3,6	;RP1=0, select bank0
  6517  05A7  0844               	movf	___fldiv@b+3,w
  6518  05A8  3980               	andlw	128
  6519  05A9  00C5               	movwf	??___fldiv
  6520  05AA  0845               	movf	??___fldiv,w
  6521  05AB  00CE               	movwf	___fldiv@sign
  6522  05AC                     l2073:
  6523  05AC  0844               	movf	___fldiv@b+3,w
  6524  05AD  00C5               	movwf	??___fldiv
  6525  05AE  0745               	addwf	??___fldiv,w
  6526  05AF  00C6               	movwf	??___fldiv+1
  6527  05B0  0846               	movf	??___fldiv+1,w
  6528  05B1  00D5               	movwf	___fldiv@bexp
  6529  05B2                     l2075:
  6530  05B2  1FC3               	btfss	___fldiv@b+2,7
  6531  05B3  2DB5               	goto	u2501
  6532  05B4  2DB6               	goto	u2500
  6533  05B5                     u2501:
  6534  05B5  2DB7               	goto	l2079
  6535  05B6                     u2500:
  6536  05B6                     l2077:
  6537  05B6  1455               	bsf	___fldiv@bexp,0
  6538  05B7                     l2079:
  6539  05B7  0855               	movf	___fldiv@bexp,w
  6540  05B8  1903               	btfsc	3,2
  6541  05B9  2DBB               	goto	u2511
  6542  05BA  2DBC               	goto	u2510
  6543  05BB                     u2511:
  6544  05BB  2DCC               	goto	l2089
  6545  05BC                     u2510:
  6546  05BC                     l2081:
  6547  05BC  0A55               	incf	___fldiv@bexp,w
  6548  05BD  1D03               	btfss	3,2
  6549  05BE  2DC0               	goto	u2521
  6550  05BF  2DC1               	goto	u2520
  6551  05C0                     u2521:
  6552  05C0  2DC9               	goto	l2085
  6553  05C1                     u2520:
  6554  05C1                     l2083:
  6555  05C1  3000               	movlw	0
  6556  05C2  00C4               	movwf	___fldiv@b+3
  6557  05C3  3000               	movlw	0
  6558  05C4  00C3               	movwf	___fldiv@b+2
  6559  05C5  3000               	movlw	0
  6560  05C6  00C2               	movwf	___fldiv@b+1
  6561  05C7  3000               	movlw	0
  6562  05C8  00C1               	movwf	___fldiv@b
  6563  05C9                     l2085:
  6564  05C9  17C3               	bsf	___fldiv@b+2,7
  6565  05CA                     l2087:
  6566  05CA  01C4               	clrf	___fldiv@b+3
  6567  05CB  2DD4               	goto	l2091
  6568  05CC                     l2089:
  6569  05CC  3000               	movlw	0
  6570  05CD  00C4               	movwf	___fldiv@b+3
  6571  05CE  3000               	movlw	0
  6572  05CF  00C3               	movwf	___fldiv@b+2
  6573  05D0  3000               	movlw	0
  6574  05D1  00C2               	movwf	___fldiv@b+1
  6575  05D2  3000               	movlw	0
  6576  05D3  00C1               	movwf	___fldiv@b
  6577  05D4                     l2091:
  6578  05D4  0840               	movf	___fldiv@a+3,w
  6579  05D5  3980               	andlw	128
  6580  05D6  00C5               	movwf	??___fldiv
  6581  05D7  0845               	movf	??___fldiv,w
  6582  05D8  06CE               	xorwf	___fldiv@sign,f
  6583  05D9                     l2093:
  6584  05D9  0840               	movf	___fldiv@a+3,w
  6585  05DA  00C5               	movwf	??___fldiv
  6586  05DB  0745               	addwf	??___fldiv,w
  6587  05DC  00C6               	movwf	??___fldiv+1
  6588  05DD  0846               	movf	??___fldiv+1,w
  6589  05DE  00D6               	movwf	___fldiv@aexp
  6590  05DF                     l2095:
  6591  05DF  1FBF               	btfss	___fldiv@a+2,7
  6592  05E0  2DE2               	goto	u2531
  6593  05E1  2DE3               	goto	u2530
  6594  05E2                     u2531:
  6595  05E2  2DE4               	goto	l2099
  6596  05E3                     u2530:
  6597  05E3                     l2097:
  6598  05E3  1456               	bsf	___fldiv@aexp,0
  6599  05E4                     l2099:
  6600  05E4  0856               	movf	___fldiv@aexp,w
  6601  05E5  1903               	btfsc	3,2
  6602  05E6  2DE8               	goto	u2541
  6603  05E7  2DE9               	goto	u2540
  6604  05E8                     u2541:
  6605  05E8  2DF9               	goto	l2109
  6606  05E9                     u2540:
  6607  05E9                     l2101:
  6608  05E9  0A56               	incf	___fldiv@aexp,w
  6609  05EA  1D03               	btfss	3,2
  6610  05EB  2DED               	goto	u2551
  6611  05EC  2DEE               	goto	u2550
  6612  05ED                     u2551:
  6613  05ED  2DF6               	goto	l2105
  6614  05EE                     u2550:
  6615  05EE                     l2103:
  6616  05EE  3000               	movlw	0
  6617  05EF  00C0               	movwf	___fldiv@a+3
  6618  05F0  3000               	movlw	0
  6619  05F1  00BF               	movwf	___fldiv@a+2
  6620  05F2  3000               	movlw	0
  6621  05F3  00BE               	movwf	___fldiv@a+1
  6622  05F4  3000               	movlw	0
  6623  05F5  00BD               	movwf	___fldiv@a
  6624  05F6                     l2105:
  6625  05F6  17BF               	bsf	___fldiv@a+2,7
  6626  05F7                     l2107:
  6627  05F7  01C0               	clrf	___fldiv@a+3
  6628  05F8  2E01               	goto	l746
  6629  05F9                     l2109:
  6630  05F9  3000               	movlw	0
  6631  05FA  00C0               	movwf	___fldiv@a+3
  6632  05FB  3000               	movlw	0
  6633  05FC  00BF               	movwf	___fldiv@a+2
  6634  05FD  3000               	movlw	0
  6635  05FE  00BE               	movwf	___fldiv@a+1
  6636  05FF  3000               	movlw	0
  6637  0600  00BD               	movwf	___fldiv@a
  6638  0601                     l746:
  6639  0601  0840               	movf	___fldiv@a+3,w
  6640  0602  043F               	iorwf	___fldiv@a+2,w
  6641  0603  043E               	iorwf	___fldiv@a+1,w
  6642  0604  043D               	iorwf	___fldiv@a,w
  6643  0605  1D03               	skipz
  6644  0606  2E08               	goto	u2561
  6645  0607  2E09               	goto	u2560
  6646  0608                     u2561:
  6647  0608  2E22               	goto	l2119
  6648  0609                     u2560:
  6649  0609                     l2111:
  6650  0609  3000               	movlw	0
  6651  060A  00C4               	movwf	___fldiv@b+3
  6652  060B  3000               	movlw	0
  6653  060C  00C3               	movwf	___fldiv@b+2
  6654  060D  3000               	movlw	0
  6655  060E  00C2               	movwf	___fldiv@b+1
  6656  060F  3000               	movlw	0
  6657  0610  00C1               	movwf	___fldiv@b
  6658  0611  3080               	movlw	128
  6659  0612  04C3               	iorwf	___fldiv@b+2,f
  6660  0613  307F               	movlw	127
  6661  0614  04C4               	iorwf	___fldiv@b+3,f
  6662  0615                     l2113:
  6663  0615  084E               	movf	___fldiv@sign,w
  6664  0616  00C5               	movwf	??___fldiv
  6665  0617  0845               	movf	??___fldiv,w
  6666  0618  04C4               	iorwf	___fldiv@b+3,f
  6667  0619                     l2115:
  6668  0619  0844               	movf	___fldiv@b+3,w
  6669  061A  00C0               	movwf	?___fldiv+3
  6670  061B  0843               	movf	___fldiv@b+2,w
  6671  061C  00BF               	movwf	?___fldiv+2
  6672  061D  0842               	movf	___fldiv@b+1,w
  6673  061E  00BE               	movwf	?___fldiv+1
  6674  061F  0841               	movf	___fldiv@b,w
  6675  0620  00BD               	movwf	?___fldiv
  6676  0621  2F81               	goto	l748
  6677  0622                     l2119:
  6678  0622  0855               	movf	___fldiv@bexp,w
  6679  0623  1D03               	btfss	3,2
  6680  0624  2E26               	goto	u2571
  6681  0625  2E27               	goto	u2570
  6682  0626                     u2571:
  6683  0626  2E30               	goto	l2125
  6684  0627                     u2570:
  6685  0627                     l2121:
  6686  0627  3000               	movlw	0
  6687  0628  00C0               	movwf	?___fldiv+3
  6688  0629  3000               	movlw	0
  6689  062A  00BF               	movwf	?___fldiv+2
  6690  062B  3000               	movlw	0
  6691  062C  00BE               	movwf	?___fldiv+1
  6692  062D  3000               	movlw	0
  6693  062E  00BD               	movwf	?___fldiv
  6694  062F  2F81               	goto	l748
  6695  0630                     l2125:
  6696  0630  0855               	movf	___fldiv@bexp,w
  6697  0631  00C5               	movwf	??___fldiv
  6698  0632  01C6               	clrf	??___fldiv+1
  6699  0633  0846               	movf	??___fldiv+1,w
  6700  0634  00C8               	movwf	??___fldiv+3
  6701  0635  0856               	movf	___fldiv@aexp,w
  6702  0636  0245               	subwf	??___fldiv,w
  6703  0637  00C7               	movwf	??___fldiv+2
  6704  0638  1C03               	skipc
  6705  0639  03C8               	decf	??___fldiv+3,f
  6706  063A  0847               	movf	??___fldiv+2,w
  6707  063B  3E7F               	addlw	127
  6708  063C  00CF               	movwf	___fldiv@new_exp
  6709  063D  0848               	movf	??___fldiv+3,w
  6710  063E  1803               	skipnc
  6711  063F  3E01               	addlw	1
  6712  0640  3E00               	addlw	0
  6713  0641  00D0               	movwf	___fldiv@new_exp+1
  6714  0642                     l2127:
  6715  0642  0844               	movf	___fldiv@b+3,w
  6716  0643  00CD               	movwf	___fldiv@rem+3
  6717  0644  0843               	movf	___fldiv@b+2,w
  6718  0645  00CC               	movwf	___fldiv@rem+2
  6719  0646  0842               	movf	___fldiv@b+1,w
  6720  0647  00CB               	movwf	___fldiv@rem+1
  6721  0648  0841               	movf	___fldiv@b,w
  6722  0649  00CA               	movwf	___fldiv@rem
  6723  064A                     l2129:
  6724  064A  3000               	movlw	0
  6725  064B  00C4               	movwf	___fldiv@b+3
  6726  064C  3000               	movlw	0
  6727  064D  00C3               	movwf	___fldiv@b+2
  6728  064E  3000               	movlw	0
  6729  064F  00C2               	movwf	___fldiv@b+1
  6730  0650  3000               	movlw	0
  6731  0651  00C1               	movwf	___fldiv@b
  6732  0652                     l2131:
  6733  0652  3000               	movlw	0
  6734  0653  00D4               	movwf	___fldiv@grs+3
  6735  0654  3000               	movlw	0
  6736  0655  00D3               	movwf	___fldiv@grs+2
  6737  0656  3000               	movlw	0
  6738  0657  00D2               	movwf	___fldiv@grs+1
  6739  0658  3000               	movlw	0
  6740  0659  00D1               	movwf	___fldiv@grs
  6741  065A                     l2133:
  6742  065A  01D6               	clrf	___fldiv@aexp
  6743  065B  2EA6               	goto	l2153
  6744  065C                     l2135:
  6745  065C  0856               	movf	___fldiv@aexp,w
  6746  065D  1903               	btfsc	3,2
  6747  065E  2E60               	goto	u2581
  6748  065F  2E61               	goto	u2580
  6749  0660                     u2581:
  6750  0660  2E81               	goto	l2145
  6751  0661                     u2580:
  6752  0661                     l2137:
  6753  0661  3001               	movlw	1
  6754  0662  00C5               	movwf	??___fldiv
  6755  0663                     u2595:
  6756  0663  1003               	clrc
  6757  0664  0DCA               	rlf	___fldiv@rem,f
  6758  0665  0DCB               	rlf	___fldiv@rem+1,f
  6759  0666  0DCC               	rlf	___fldiv@rem+2,f
  6760  0667  0DCD               	rlf	___fldiv@rem+3,f
  6761  0668  0BC5               	decfsz	??___fldiv,f
  6762  0669  2E63               	goto	u2595
  6763  066A  3001               	movlw	1
  6764  066B  00C5               	movwf	??___fldiv
  6765  066C                     u2605:
  6766  066C  1003               	clrc
  6767  066D  0DC1               	rlf	___fldiv@b,f
  6768  066E  0DC2               	rlf	___fldiv@b+1,f
  6769  066F  0DC3               	rlf	___fldiv@b+2,f
  6770  0670  0DC4               	rlf	___fldiv@b+3,f
  6771  0671  0BC5               	decfsz	??___fldiv,f
  6772  0672  2E6C               	goto	u2605
  6773  0673                     l2139:
  6774  0673  1FD4               	btfss	___fldiv@grs+3,7
  6775  0674  2E76               	goto	u2611
  6776  0675  2E77               	goto	u2610
  6777  0676                     u2611:
  6778  0676  2E78               	goto	l2143
  6779  0677                     u2610:
  6780  0677                     l2141:
  6781  0677  1441               	bsf	___fldiv@b,0
  6782  0678                     l2143:
  6783  0678  3001               	movlw	1
  6784  0679  00C5               	movwf	??___fldiv
  6785  067A                     u2625:
  6786  067A  1003               	clrc
  6787  067B  0DD1               	rlf	___fldiv@grs,f
  6788  067C  0DD2               	rlf	___fldiv@grs+1,f
  6789  067D  0DD3               	rlf	___fldiv@grs+2,f
  6790  067E  0DD4               	rlf	___fldiv@grs+3,f
  6791  067F  0BC5               	decfsz	??___fldiv,f
  6792  0680  2E7A               	goto	u2625
  6793  0681                     l2145:
  6794  0681  0840               	movf	___fldiv@a+3,w
  6795  0682  024D               	subwf	___fldiv@rem+3,w
  6796  0683  1D03               	skipz
  6797  0684  2E8F               	goto	u2635
  6798  0685  083F               	movf	___fldiv@a+2,w
  6799  0686  024C               	subwf	___fldiv@rem+2,w
  6800  0687  1D03               	skipz
  6801  0688  2E8F               	goto	u2635
  6802  0689  083E               	movf	___fldiv@a+1,w
  6803  068A  024B               	subwf	___fldiv@rem+1,w
  6804  068B  1D03               	skipz
  6805  068C  2E8F               	goto	u2635
  6806  068D  083D               	movf	___fldiv@a,w
  6807  068E  024A               	subwf	___fldiv@rem,w
  6808  068F                     u2635:
  6809  068F  1C03               	skipc
  6810  0690  2E92               	goto	u2631
  6811  0691  2E93               	goto	u2630
  6812  0692                     u2631:
  6813  0692  2EA2               	goto	l2151
  6814  0693                     u2630:
  6815  0693                     l2147:
  6816  0693  1754               	bsf	___fldiv@grs+3,6
  6817  0694                     l2149:
  6818  0694  083D               	movf	___fldiv@a,w
  6819  0695  02CA               	subwf	___fldiv@rem,f
  6820  0696  083E               	movf	___fldiv@a+1,w
  6821  0697  1C03               	skipc
  6822  0698  0F3E               	incfsz	___fldiv@a+1,w
  6823  0699  02CB               	subwf	___fldiv@rem+1,f
  6824  069A  083F               	movf	___fldiv@a+2,w
  6825  069B  1C03               	skipc
  6826  069C  0F3F               	incfsz	___fldiv@a+2,w
  6827  069D  02CC               	subwf	___fldiv@rem+2,f
  6828  069E  0840               	movf	___fldiv@a+3,w
  6829  069F  1C03               	skipc
  6830  06A0  0F40               	incfsz	___fldiv@a+3,w
  6831  06A1  02CD               	subwf	___fldiv@rem+3,f
  6832  06A2                     l2151:
  6833  06A2  3001               	movlw	1
  6834  06A3  00C5               	movwf	??___fldiv
  6835  06A4  0845               	movf	??___fldiv,w
  6836  06A5  07D6               	addwf	___fldiv@aexp,f
  6837  06A6                     l2153:
  6838  06A6  301A               	movlw	26
  6839  06A7  0256               	subwf	___fldiv@aexp,w
  6840  06A8  1C03               	skipc
  6841  06A9  2EAB               	goto	u2641
  6842  06AA  2EAC               	goto	u2640
  6843  06AB                     u2641:
  6844  06AB  2E5C               	goto	l2135
  6845  06AC                     u2640:
  6846  06AC                     l2155:
  6847  06AC  084D               	movf	___fldiv@rem+3,w
  6848  06AD  044C               	iorwf	___fldiv@rem+2,w
  6849  06AE  044B               	iorwf	___fldiv@rem+1,w
  6850  06AF  044A               	iorwf	___fldiv@rem,w
  6851  06B0  1903               	skipnz
  6852  06B1  2EB3               	goto	u2651
  6853  06B2  2EB4               	goto	u2650
  6854  06B3                     u2651:
  6855  06B3  2ED3               	goto	l2169
  6856  06B4                     u2650:
  6857  06B4                     l2157:
  6858  06B4  1451               	bsf	___fldiv@grs,0
  6859  06B5  2ED3               	goto	l2169
  6860  06B6                     l2159:
  6861  06B6  3001               	movlw	1
  6862  06B7  00C5               	movwf	??___fldiv
  6863  06B8                     u2665:
  6864  06B8  1003               	clrc
  6865  06B9  0DC1               	rlf	___fldiv@b,f
  6866  06BA  0DC2               	rlf	___fldiv@b+1,f
  6867  06BB  0DC3               	rlf	___fldiv@b+2,f
  6868  06BC  0DC4               	rlf	___fldiv@b+3,f
  6869  06BD  0BC5               	decfsz	??___fldiv,f
  6870  06BE  2EB8               	goto	u2665
  6871  06BF                     l2161:
  6872  06BF  1FD4               	btfss	___fldiv@grs+3,7
  6873  06C0  2EC2               	goto	u2671
  6874  06C1  2EC3               	goto	u2670
  6875  06C2                     u2671:
  6876  06C2  2EC4               	goto	l2165
  6877  06C3                     u2670:
  6878  06C3                     l2163:
  6879  06C3  1441               	bsf	___fldiv@b,0
  6880  06C4                     l2165:
  6881  06C4  3001               	movlw	1
  6882  06C5  00C5               	movwf	??___fldiv
  6883  06C6                     u2685:
  6884  06C6  1003               	clrc
  6885  06C7  0DD1               	rlf	___fldiv@grs,f
  6886  06C8  0DD2               	rlf	___fldiv@grs+1,f
  6887  06C9  0DD3               	rlf	___fldiv@grs+2,f
  6888  06CA  0DD4               	rlf	___fldiv@grs+3,f
  6889  06CB  0BC5               	decfsz	??___fldiv,f
  6890  06CC  2EC6               	goto	u2685
  6891  06CD                     l2167:
  6892  06CD  30FF               	movlw	255
  6893  06CE  07CF               	addwf	___fldiv@new_exp,f
  6894  06CF  1803               	skipnc
  6895  06D0  0AD0               	incf	___fldiv@new_exp+1,f
  6896  06D1  30FF               	movlw	255
  6897  06D2  07D0               	addwf	___fldiv@new_exp+1,f
  6898  06D3                     l2169:
  6899  06D3  1FC3               	btfss	___fldiv@b+2,7
  6900  06D4  2ED6               	goto	u2691
  6901  06D5  2ED7               	goto	u2690
  6902  06D6                     u2691:
  6903  06D6  2EB6               	goto	l2159
  6904  06D7                     u2690:
  6905  06D7                     l2171:
  6906  06D7  01D6               	clrf	___fldiv@aexp
  6907  06D8                     l2173:
  6908  06D8  1FD4               	btfss	___fldiv@grs+3,7
  6909  06D9  2EDB               	goto	u2701
  6910  06DA  2EDC               	goto	u2700
  6911  06DB                     u2701:
  6912  06DB  2EF8               	goto	l2181
  6913  06DC                     u2700:
  6914  06DC                     l2175:
  6915  06DC  30FF               	movlw	255
  6916  06DD  0551               	andwf	___fldiv@grs,w
  6917  06DE  00C5               	movwf	??___fldiv
  6918  06DF  30FF               	movlw	255
  6919  06E0  0552               	andwf	___fldiv@grs+1,w
  6920  06E1  00C6               	movwf	??___fldiv+1
  6921  06E2  30FF               	movlw	255
  6922  06E3  0553               	andwf	___fldiv@grs+2,w
  6923  06E4  00C7               	movwf	??___fldiv+2
  6924  06E5  307F               	movlw	127
  6925  06E6  0554               	andwf	___fldiv@grs+3,w
  6926  06E7  00C8               	movwf	??___fldiv+3
  6927  06E8  0848               	movf	??___fldiv+3,w
  6928  06E9  0447               	iorwf	??___fldiv+2,w
  6929  06EA  0446               	iorwf	??___fldiv+1,w
  6930  06EB  0445               	iorwf	??___fldiv,w
  6931  06EC  1903               	skipnz
  6932  06ED  2EEF               	goto	u2711
  6933  06EE  2EF0               	goto	u2710
  6934  06EF                     u2711:
  6935  06EF  2EF3               	goto	l762
  6936  06F0                     u2710:
  6937  06F0                     l2177:
  6938  06F0  01D6               	clrf	___fldiv@aexp
  6939  06F1  0AD6               	incf	___fldiv@aexp,f
  6940  06F2  2EF8               	goto	l2181
  6941  06F3                     l762:
  6942  06F3  1C41               	btfss	___fldiv@b,0
  6943  06F4  2EF6               	goto	u2721
  6944  06F5  2EF7               	goto	u2720
  6945  06F6                     u2721:
  6946  06F6  2EF8               	goto	l2181
  6947  06F7                     u2720:
  6948  06F7  2EF0               	goto	l2177
  6949  06F8                     l2181:
  6950  06F8  0856               	movf	___fldiv@aexp,w
  6951  06F9  1903               	btfsc	3,2
  6952  06FA  2EFC               	goto	u2731
  6953  06FB  2EFD               	goto	u2730
  6954  06FC                     u2731:
  6955  06FC  2F2E               	goto	l2191
  6956  06FD                     u2730:
  6957  06FD                     l2183:
  6958  06FD  3001               	movlw	1
  6959  06FE  07C1               	addwf	___fldiv@b,f
  6960  06FF  3000               	movlw	0
  6961  0700  1803               	skipnc
  6962  0701  3001               	movlw	1
  6963  0702  07C2               	addwf	___fldiv@b+1,f
  6964  0703  3000               	movlw	0
  6965  0704  1803               	skipnc
  6966  0705  3001               	movlw	1
  6967  0706  07C3               	addwf	___fldiv@b+2,f
  6968  0707  3000               	movlw	0
  6969  0708  1803               	skipnc
  6970  0709  3001               	movlw	1
  6971  070A  07C4               	addwf	___fldiv@b+3,f
  6972  070B                     l2185:
  6973  070B  1C44               	btfss	___fldiv@b+3,0
  6974  070C  2F0E               	goto	u2741
  6975  070D  2F0F               	goto	u2740
  6976  070E                     u2741:
  6977  070E  2F2E               	goto	l2191
  6978  070F                     u2740:
  6979  070F                     l2187:
  6980  070F  0841               	movf	___fldiv@b,w
  6981  0710  00C5               	movwf	??___fldiv
  6982  0711  0842               	movf	___fldiv@b+1,w
  6983  0712  00C6               	movwf	??___fldiv+1
  6984  0713  0843               	movf	___fldiv@b+2,w
  6985  0714  00C7               	movwf	??___fldiv+2
  6986  0715  0844               	movf	___fldiv@b+3,w
  6987  0716  00C8               	movwf	??___fldiv+3
  6988  0717  3001               	movlw	1
  6989  0718  00C9               	movwf	??___fldiv+4
  6990  0719                     u2755:
  6991  0719  0D48               	rlf	??___fldiv+3,w
  6992  071A  0CC8               	rrf	??___fldiv+3,f
  6993  071B  0CC7               	rrf	??___fldiv+2,f
  6994  071C  0CC6               	rrf	??___fldiv+1,f
  6995  071D  0CC5               	rrf	??___fldiv,f
  6996  071E                     u2750:
  6997  071E  0BC9               	decfsz	??___fldiv+4,f
  6998  071F  2F19               	goto	u2755
  6999  0720  0848               	movf	??___fldiv+3,w
  7000  0721  00C4               	movwf	___fldiv@b+3
  7001  0722  0847               	movf	??___fldiv+2,w
  7002  0723  00C3               	movwf	___fldiv@b+2
  7003  0724  0846               	movf	??___fldiv+1,w
  7004  0725  00C2               	movwf	___fldiv@b+1
  7005  0726  0845               	movf	??___fldiv,w
  7006  0727  00C1               	movwf	___fldiv@b
  7007  0728                     l2189:
  7008  0728  3001               	movlw	1
  7009  0729  07CF               	addwf	___fldiv@new_exp,f
  7010  072A  1803               	skipnc
  7011  072B  0AD0               	incf	___fldiv@new_exp+1,f
  7012  072C  3000               	movlw	0
  7013  072D  07D0               	addwf	___fldiv@new_exp+1,f
  7014  072E                     l2191:
  7015  072E  0850               	movf	___fldiv@new_exp+1,w
  7016  072F  3A80               	xorlw	128
  7017  0730  00FF               	movwf	btemp+1
  7018  0731  3080               	movlw	128
  7019  0732  027F               	subwf	btemp+1,w
  7020  0733  1D03               	skipz
  7021  0734  2F37               	goto	u2765
  7022  0735  30FF               	movlw	255
  7023  0736  024F               	subwf	___fldiv@new_exp,w
  7024  0737                     u2765:
  7025  0737  1C03               	skipc
  7026  0738  2F3A               	goto	u2761
  7027  0739  2F3B               	goto	u2760
  7028  073A                     u2761:
  7029  073A  2F49               	goto	l2195
  7030  073B                     u2760:
  7031  073B                     l2193:
  7032  073B  30FF               	movlw	255
  7033  073C  1283               	bcf	3,5	;RP0=0, select bank0
  7034  073D  1303               	bcf	3,6	;RP1=0, select bank0
  7035  073E  00CF               	movwf	___fldiv@new_exp
  7036  073F  3000               	movlw	0
  7037  0740  00D0               	movwf	___fldiv@new_exp+1
  7038  0741  3000               	movlw	0
  7039  0742  00C4               	movwf	___fldiv@b+3
  7040  0743  3000               	movlw	0
  7041  0744  00C3               	movwf	___fldiv@b+2
  7042  0745  3000               	movlw	0
  7043  0746  00C2               	movwf	___fldiv@b+1
  7044  0747  3000               	movlw	0
  7045  0748  00C1               	movwf	___fldiv@b
  7046  0749                     l2195:
  7047  0749  1283               	bcf	3,5	;RP0=0, select bank0
  7048  074A  1303               	bcf	3,6	;RP1=0, select bank0
  7049  074B  0850               	movf	___fldiv@new_exp+1,w
  7050  074C  3A80               	xorlw	128
  7051  074D  00FF               	movwf	btemp+1
  7052  074E  3080               	movlw	128
  7053  074F  027F               	subwf	btemp+1,w
  7054  0750  1D03               	skipz
  7055  0751  2F54               	goto	u2775
  7056  0752  3001               	movlw	1
  7057  0753  024F               	subwf	___fldiv@new_exp,w
  7058  0754                     u2775:
  7059  0754  1803               	skipnc
  7060  0755  2F57               	goto	u2771
  7061  0756  2F58               	goto	u2770
  7062  0757                     u2771:
  7063  0757  2F65               	goto	l768
  7064  0758                     u2770:
  7065  0758                     l2197:
  7066  0758  1283               	bcf	3,5	;RP0=0, select bank0
  7067  0759  1303               	bcf	3,6	;RP1=0, select bank0
  7068  075A  01CF               	clrf	___fldiv@new_exp
  7069  075B  01D0               	clrf	___fldiv@new_exp+1
  7070  075C                     l2199:
  7071  075C  3000               	movlw	0
  7072  075D  00C4               	movwf	___fldiv@b+3
  7073  075E  3000               	movlw	0
  7074  075F  00C3               	movwf	___fldiv@b+2
  7075  0760  3000               	movlw	0
  7076  0761  00C2               	movwf	___fldiv@b+1
  7077  0762  3000               	movlw	0
  7078  0763  00C1               	movwf	___fldiv@b
  7079  0764                     l2201:
  7080  0764  01CE               	clrf	___fldiv@sign
  7081  0765                     l768:
  7082  0765  1283               	bcf	3,5	;RP0=0, select bank0
  7083  0766  1303               	bcf	3,6	;RP1=0, select bank0
  7084  0767  084F               	movf	___fldiv@new_exp,w
  7085  0768  00C5               	movwf	??___fldiv
  7086  0769  0845               	movf	??___fldiv,w
  7087  076A  00D5               	movwf	___fldiv@bexp
  7088  076B                     l2203:
  7089  076B  1C55               	btfss	___fldiv@bexp,0
  7090  076C  2F6E               	goto	u2781
  7091  076D  2F6F               	goto	u2780
  7092  076E                     u2781:
  7093  076E  2F71               	goto	l2207
  7094  076F                     u2780:
  7095  076F                     l2205:
  7096  076F  17C3               	bsf	___fldiv@b+2,7
  7097  0770  2F75               	goto	l770
  7098  0771                     l2207:
  7099  0771  307F               	movlw	127
  7100  0772  00C5               	movwf	??___fldiv
  7101  0773  0845               	movf	??___fldiv,w
  7102  0774  05C3               	andwf	___fldiv@b+2,f
  7103  0775                     l770:
  7104  0775  0855               	movf	___fldiv@bexp,w
  7105  0776  00C5               	movwf	??___fldiv
  7106  0777  1003               	clrc
  7107  0778  0C45               	rrf	??___fldiv,w
  7108  0779  00C6               	movwf	??___fldiv+1
  7109  077A  0846               	movf	??___fldiv+1,w
  7110  077B  00C4               	movwf	___fldiv@b+3
  7111  077C  084E               	movf	___fldiv@sign,w
  7112  077D  00C5               	movwf	??___fldiv
  7113  077E  0845               	movf	??___fldiv,w
  7114  077F  04C4               	iorwf	___fldiv@b+3,f
  7115  0780  2E19               	goto	l2115
  7116  0781                     l748:
  7117  0781  0008               	return
  7118  0782                     __end_of___fldiv:
  7119                           
  7120                           	psect	text14
  7121  13CC                     __ptext14:	
  7122 ;; *************** function _PWM2_Init *****************
  7123 ;; Defined at:
  7124 ;;		line 59 in file "MPU6050.c"
  7125 ;; Parameters:    Size  Location     Type
  7126 ;;		None
  7127 ;; Auto vars:     Size  Location     Type
  7128 ;;		None
  7129 ;; Return value:  Size  Location     Type
  7130 ;;                  1    wreg      void 
  7131 ;; Registers used:
  7132 ;;		wreg, status,2, status,0, pclath, cstack
  7133 ;; Tracked objects:
  7134 ;;		On entry : 0/0
  7135 ;;		On exit  : 0/0
  7136 ;;		Unchanged: 0/0
  7137 ;; Data sizes:     COMMON   BANK0   BANK1   BANK3   BANK2
  7138 ;;      Params:         0       0       0       0       0
  7139 ;;      Locals:         0       0       0       0       0
  7140 ;;      Temps:          0       4       0       0       0
  7141 ;;      Totals:         0       4       0       0       0
  7142 ;;Total ram usage:        4 bytes
  7143 ;; Hardware stack levels used: 1
  7144 ;; Hardware stack levels required when called: 5
  7145 ;; This function calls:
  7146 ;;		___aldiv
  7147 ;; This function is called by:
  7148 ;;		_main
  7149 ;; This function uses a non-reentrant model
  7150 ;;
  7151                           
  7152                           
  7153                           ;psect for function _PWM2_Init
  7154  13CC                     _PWM2_Init:
  7155  13CC                     l2561:	
  7156                           ;incstack = 0
  7157                           ; Regs used in _PWM2_Init: [wreg+status,2+status,0+pclath+cstack]
  7158                           
  7159                           
  7160                           ;MPU6050.c: 61:     TRISDbits.TRISD3 = 0;
  7161  13CC  1683               	bsf	3,5	;RP0=1, select bank1
  7162  13CD  1303               	bcf	3,6	;RP1=0, select bank1
  7163  13CE  1188               	bcf	8,3	;volatile
  7164                           
  7165                           ;MPU6050.c: 62:     TRISDbits.TRISD2 = 0;
  7166  13CF  1108               	bcf	8,2	;volatile
  7167  13D0                     l2563:
  7168                           
  7169                           ;MPU6050.c: 63:     PR2 = 20000000/(4*PWM_Frequency*4) - 1;
  7170  13D0  086B               	movf	_PWM_Frequency^(0+128),w
  7171  13D1  1283               	bcf	3,5	;RP0=0, select bank0
  7172  13D2  1303               	bcf	3,6	;RP1=0, select bank0
  7173  13D3  00AF               	movwf	??_PWM2_Init
  7174  13D4  1683               	bsf	3,5	;RP0=1, select bank1
  7175  13D5  1303               	bcf	3,6	;RP1=0, select bank1
  7176  13D6  086C               	movf	(_PWM_Frequency+1)^(0+128),w
  7177  13D7  1283               	bcf	3,5	;RP0=0, select bank0
  7178  13D8  1303               	bcf	3,6	;RP1=0, select bank0
  7179  13D9  00B0               	movwf	??_PWM2_Init+1
  7180  13DA  1683               	bsf	3,5	;RP0=1, select bank1
  7181  13DB  1303               	bcf	3,6	;RP1=0, select bank1
  7182  13DC  086D               	movf	(_PWM_Frequency+2)^(0+128),w
  7183  13DD  1283               	bcf	3,5	;RP0=0, select bank0
  7184  13DE  1303               	bcf	3,6	;RP1=0, select bank0
  7185  13DF  00B1               	movwf	??_PWM2_Init+2
  7186  13E0  1683               	bsf	3,5	;RP0=1, select bank1
  7187  13E1  1303               	bcf	3,6	;RP1=0, select bank1
  7188  13E2  086E               	movf	(_PWM_Frequency+3)^(0+128),w
  7189  13E3  1283               	bcf	3,5	;RP0=0, select bank0
  7190  13E4  1303               	bcf	3,6	;RP1=0, select bank0
  7191  13E5  00B2               	movwf	??_PWM2_Init+3
  7192  13E6  3002               	movlw	2
  7193  13E7                     u3635:
  7194  13E7  1003               	clrc
  7195  13E8  0DAF               	rlf	??_PWM2_Init,f
  7196  13E9  0DB0               	rlf	??_PWM2_Init+1,f
  7197  13EA  0DB1               	rlf	??_PWM2_Init+2,f
  7198  13EB  0DB2               	rlf	??_PWM2_Init+3,f
  7199  13EC                     u3630:
  7200  13EC  3EFF               	addlw	-1
  7201  13ED  1D03               	skipz
  7202  13EE  2BE7               	goto	u3635
  7203  13EF  3002               	movlw	2
  7204  13F0                     u3645:
  7205  13F0  1003               	clrc
  7206  13F1  0DAF               	rlf	??_PWM2_Init,f
  7207  13F2  0DB0               	rlf	??_PWM2_Init+1,f
  7208  13F3  0DB1               	rlf	??_PWM2_Init+2,f
  7209  13F4  0DB2               	rlf	??_PWM2_Init+3,f
  7210  13F5                     u3640:
  7211  13F5  3EFF               	addlw	-1
  7212  13F6  1D03               	skipz
  7213  13F7  2BF0               	goto	u3645
  7214  13F8  0832               	movf	??_PWM2_Init+3,w
  7215  13F9  00A3               	movwf	___aldiv@divisor+3
  7216  13FA  0831               	movf	??_PWM2_Init+2,w
  7217  13FB  00A2               	movwf	___aldiv@divisor+2
  7218  13FC  0830               	movf	??_PWM2_Init+1,w
  7219  13FD  00A1               	movwf	___aldiv@divisor+1
  7220  13FE  082F               	movf	??_PWM2_Init,w
  7221  13FF  00A0               	movwf	___aldiv@divisor
  7222  1400  3001               	movlw	1
  7223  1401  00A7               	movwf	___aldiv@dividend+3
  7224  1402  3031               	movlw	49
  7225  1403  00A6               	movwf	___aldiv@dividend+2
  7226  1404  302D               	movlw	45
  7227  1405  00A5               	movwf	___aldiv@dividend+1
  7228  1406  3000               	movlw	0
  7229  1407  00A4               	movwf	___aldiv@dividend
  7230  1408  160A  118A  2489  160A  118A  	fcall	___aldiv
  7231  140D  1283               	bcf	3,5	;RP0=0, select bank0
  7232  140E  1303               	bcf	3,6	;RP1=0, select bank0
  7233  140F  0820               	movf	?___aldiv,w
  7234  1410  3EFF               	addlw	255
  7235  1411  1683               	bsf	3,5	;RP0=1, select bank1
  7236  1412  1303               	bcf	3,6	;RP1=0, select bank1
  7237  1413  0092               	movwf	18	;volatile
  7238  1414                     l2565:
  7239                           
  7240                           ;MPU6050.c: 64:     CCP2CONbits.CCP2M3 = 1;
  7241  1414  1283               	bcf	3,5	;RP0=0, select bank0
  7242  1415  1303               	bcf	3,6	;RP1=0, select bank0
  7243  1416  159D               	bsf	29,3	;volatile
  7244  1417                     l2567:
  7245                           
  7246                           ;MPU6050.c: 65:     CCP2CONbits.CCP2M2 = 1;
  7247  1417  151D               	bsf	29,2	;volatile
  7248  1418                     l288:	
  7249                           ;MPU6050.c: 71:     if(4 == 4)
  7250                           
  7251                           
  7252                           ;MPU6050.c: 72:     {;MPU6050.c: 73:         T2CONbits.T2CKPS1 = 0;
  7253  1418  1092               	bcf	18,1	;volatile
  7254                           
  7255                           ;MPU6050.c: 74:         T2CONbits.T2CKPS0 = 1;
  7256  1419  1412               	bsf	18,0	;volatile
  7257  141A                     l2573:
  7258                           
  7259                           ;MPU6050.c: 81:     TMR2 = 0;
  7260  141A  0191               	clrf	17	;volatile
  7261  141B                     l2575:
  7262                           
  7263                           ;MPU6050.c: 82:     T2CONbits.TMR2ON = 1;
  7264  141B  1512               	bsf	18,2	;volatile
  7265  141C                     l2577:
  7266                           
  7267                           ;MPU6050.c: 83:     TRISCbits.TRISC1 = 0;
  7268  141C  1683               	bsf	3,5	;RP0=1, select bank1
  7269  141D  1303               	bcf	3,6	;RP1=0, select bank1
  7270  141E  1087               	bcf	7,1	;volatile
  7271  141F                     l291:
  7272  141F  0008               	return
  7273  1420                     __end_of_PWM2_Init:
  7274                           
  7275                           	psect	text15
  7276  1378                     __ptext15:	
  7277 ;; *************** function _PWM1_Init *****************
  7278 ;; Defined at:
  7279 ;;		line 32 in file "MPU6050.c"
  7280 ;; Parameters:    Size  Location     Type
  7281 ;;		None
  7282 ;; Auto vars:     Size  Location     Type
  7283 ;;		None
  7284 ;; Return value:  Size  Location     Type
  7285 ;;                  1    wreg      void 
  7286 ;; Registers used:
  7287 ;;		wreg, status,2, status,0, pclath, cstack
  7288 ;; Tracked objects:
  7289 ;;		On entry : 0/0
  7290 ;;		On exit  : 0/0
  7291 ;;		Unchanged: 0/0
  7292 ;; Data sizes:     COMMON   BANK0   BANK1   BANK3   BANK2
  7293 ;;      Params:         0       0       0       0       0
  7294 ;;      Locals:         0       0       0       0       0
  7295 ;;      Temps:          0       4       0       0       0
  7296 ;;      Totals:         0       4       0       0       0
  7297 ;;Total ram usage:        4 bytes
  7298 ;; Hardware stack levels used: 1
  7299 ;; Hardware stack levels required when called: 5
  7300 ;; This function calls:
  7301 ;;		___aldiv
  7302 ;; This function is called by:
  7303 ;;		_main
  7304 ;; This function uses a non-reentrant model
  7305 ;;
  7306                           
  7307                           
  7308                           ;psect for function _PWM1_Init
  7309  1378                     _PWM1_Init:
  7310  1378                     l2543:	
  7311                           ;incstack = 0
  7312                           ; Regs used in _PWM1_Init: [wreg+status,2+status,0+pclath+cstack]
  7313                           
  7314                           
  7315                           ;MPU6050.c: 34:     TRISDbits.TRISD7 = 0;
  7316  1378  1683               	bsf	3,5	;RP0=1, select bank1
  7317  1379  1303               	bcf	3,6	;RP1=0, select bank1
  7318  137A  1388               	bcf	8,7	;volatile
  7319                           
  7320                           ;MPU6050.c: 35:     TRISDbits.TRISD6 = 0;
  7321  137B  1308               	bcf	8,6	;volatile
  7322  137C                     l2545:
  7323                           
  7324                           ;MPU6050.c: 36:     PR2 = 20000000/(4*PWM_Frequency*4) - 1;
  7325  137C  086B               	movf	_PWM_Frequency^(0+128),w
  7326  137D  1283               	bcf	3,5	;RP0=0, select bank0
  7327  137E  1303               	bcf	3,6	;RP1=0, select bank0
  7328  137F  00AF               	movwf	??_PWM1_Init
  7329  1380  1683               	bsf	3,5	;RP0=1, select bank1
  7330  1381  1303               	bcf	3,6	;RP1=0, select bank1
  7331  1382  086C               	movf	(_PWM_Frequency+1)^(0+128),w
  7332  1383  1283               	bcf	3,5	;RP0=0, select bank0
  7333  1384  1303               	bcf	3,6	;RP1=0, select bank0
  7334  1385  00B0               	movwf	??_PWM1_Init+1
  7335  1386  1683               	bsf	3,5	;RP0=1, select bank1
  7336  1387  1303               	bcf	3,6	;RP1=0, select bank1
  7337  1388  086D               	movf	(_PWM_Frequency+2)^(0+128),w
  7338  1389  1283               	bcf	3,5	;RP0=0, select bank0
  7339  138A  1303               	bcf	3,6	;RP1=0, select bank0
  7340  138B  00B1               	movwf	??_PWM1_Init+2
  7341  138C  1683               	bsf	3,5	;RP0=1, select bank1
  7342  138D  1303               	bcf	3,6	;RP1=0, select bank1
  7343  138E  086E               	movf	(_PWM_Frequency+3)^(0+128),w
  7344  138F  1283               	bcf	3,5	;RP0=0, select bank0
  7345  1390  1303               	bcf	3,6	;RP1=0, select bank0
  7346  1391  00B2               	movwf	??_PWM1_Init+3
  7347  1392  3002               	movlw	2
  7348  1393                     u3615:
  7349  1393  1003               	clrc
  7350  1394  0DAF               	rlf	??_PWM1_Init,f
  7351  1395  0DB0               	rlf	??_PWM1_Init+1,f
  7352  1396  0DB1               	rlf	??_PWM1_Init+2,f
  7353  1397  0DB2               	rlf	??_PWM1_Init+3,f
  7354  1398                     u3610:
  7355  1398  3EFF               	addlw	-1
  7356  1399  1D03               	skipz
  7357  139A  2B93               	goto	u3615
  7358  139B  3002               	movlw	2
  7359  139C                     u3625:
  7360  139C  1003               	clrc
  7361  139D  0DAF               	rlf	??_PWM1_Init,f
  7362  139E  0DB0               	rlf	??_PWM1_Init+1,f
  7363  139F  0DB1               	rlf	??_PWM1_Init+2,f
  7364  13A0  0DB2               	rlf	??_PWM1_Init+3,f
  7365  13A1                     u3620:
  7366  13A1  3EFF               	addlw	-1
  7367  13A2  1D03               	skipz
  7368  13A3  2B9C               	goto	u3625
  7369  13A4  0832               	movf	??_PWM1_Init+3,w
  7370  13A5  00A3               	movwf	___aldiv@divisor+3
  7371  13A6  0831               	movf	??_PWM1_Init+2,w
  7372  13A7  00A2               	movwf	___aldiv@divisor+2
  7373  13A8  0830               	movf	??_PWM1_Init+1,w
  7374  13A9  00A1               	movwf	___aldiv@divisor+1
  7375  13AA  082F               	movf	??_PWM1_Init,w
  7376  13AB  00A0               	movwf	___aldiv@divisor
  7377  13AC  3001               	movlw	1
  7378  13AD  00A7               	movwf	___aldiv@dividend+3
  7379  13AE  3031               	movlw	49
  7380  13AF  00A6               	movwf	___aldiv@dividend+2
  7381  13B0  302D               	movlw	45
  7382  13B1  00A5               	movwf	___aldiv@dividend+1
  7383  13B2  3000               	movlw	0
  7384  13B3  00A4               	movwf	___aldiv@dividend
  7385  13B4  160A  118A  2489  160A  118A  	fcall	___aldiv
  7386  13B9  1283               	bcf	3,5	;RP0=0, select bank0
  7387  13BA  1303               	bcf	3,6	;RP1=0, select bank0
  7388  13BB  0820               	movf	?___aldiv,w
  7389  13BC  3EFF               	addlw	255
  7390  13BD  1683               	bsf	3,5	;RP0=1, select bank1
  7391  13BE  1303               	bcf	3,6	;RP1=0, select bank1
  7392  13BF  0092               	movwf	18	;volatile
  7393  13C0                     l2547:
  7394                           
  7395                           ;MPU6050.c: 37:     CCP1CONbits.CCP1M3 = 1;
  7396  13C0  1283               	bcf	3,5	;RP0=0, select bank0
  7397  13C1  1303               	bcf	3,6	;RP1=0, select bank0
  7398  13C2  1597               	bsf	23,3	;volatile
  7399  13C3                     l2549:
  7400                           
  7401                           ;MPU6050.c: 38:     CCP1CONbits.CCP1M2 = 1;
  7402  13C3  1517               	bsf	23,2	;volatile
  7403  13C4                     l282:	
  7404                           ;MPU6050.c: 44:     if(4 == 4)
  7405                           
  7406                           
  7407                           ;MPU6050.c: 45:     {;MPU6050.c: 46:         T2CONbits.T2CKPS1 = 0;
  7408  13C4  1092               	bcf	18,1	;volatile
  7409                           
  7410                           ;MPU6050.c: 47:         T2CONbits.T2CKPS0 = 1;
  7411  13C5  1412               	bsf	18,0	;volatile
  7412  13C6                     l2555:
  7413                           
  7414                           ;MPU6050.c: 54:     TMR2 = 0;
  7415  13C6  0191               	clrf	17	;volatile
  7416  13C7                     l2557:
  7417                           
  7418                           ;MPU6050.c: 55:     T2CONbits.TMR2ON = 1;
  7419  13C7  1512               	bsf	18,2	;volatile
  7420  13C8                     l2559:
  7421                           
  7422                           ;MPU6050.c: 56:     TRISCbits.TRISC2 = 0;
  7423  13C8  1683               	bsf	3,5	;RP0=1, select bank1
  7424  13C9  1303               	bcf	3,6	;RP1=0, select bank1
  7425  13CA  1107               	bcf	7,2	;volatile
  7426  13CB                     l285:
  7427  13CB  0008               	return
  7428  13CC                     __end_of_PWM1_Init:
  7429                           
  7430                           	psect	text16
  7431  1489                     __ptext16:	
  7432 ;; *************** function ___aldiv *****************
  7433 ;; Defined at:
  7434 ;;		line 5 in file "D:\File Install MBLAB IDE\XC8\pic\sources\c90\common\aldiv.c"
  7435 ;; Parameters:    Size  Location     Type
  7436 ;;  divisor         4    0[BANK0 ] long 
  7437 ;;  dividend        4    4[BANK0 ] long 
  7438 ;; Auto vars:     Size  Location     Type
  7439 ;;  quotient        4   11[BANK0 ] long 
  7440 ;;  sign            1   10[BANK0 ] unsigned char 
  7441 ;;  counter         1    9[BANK0 ] unsigned char 
  7442 ;; Return value:  Size  Location     Type
  7443 ;;                  4    0[BANK0 ] long 
  7444 ;; Registers used:
  7445 ;;		wreg, status,2, status,0
  7446 ;; Tracked objects:
  7447 ;;		On entry : 0/0
  7448 ;;		On exit  : 0/0
  7449 ;;		Unchanged: 0/0
  7450 ;; Data sizes:     COMMON   BANK0   BANK1   BANK3   BANK2
  7451 ;;      Params:         0       8       0       0       0
  7452 ;;      Locals:         0       6       0       0       0
  7453 ;;      Temps:          0       1       0       0       0
  7454 ;;      Totals:         0      15       0       0       0
  7455 ;;Total ram usage:       15 bytes
  7456 ;; Hardware stack levels used: 1
  7457 ;; Hardware stack levels required when called: 4
  7458 ;; This function calls:
  7459 ;;		Nothing
  7460 ;; This function is called by:
  7461 ;;		_PWM1_Init
  7462 ;;		_PWM2_Init
  7463 ;;		_PWM1_Set_Duty
  7464 ;;		_PWM2_Set_Duty
  7465 ;;		_map
  7466 ;; This function uses a non-reentrant model
  7467 ;;
  7468                           
  7469                           
  7470                           ;psect for function ___aldiv
  7471  1489                     ___aldiv:
  7472  1489                     l1995:	
  7473                           ;incstack = 0
  7474                           ; Regs used in ___aldiv: [wreg+status,2+status,0]
  7475                           
  7476  1489  1283               	bcf	3,5	;RP0=0, select bank0
  7477  148A  1303               	bcf	3,6	;RP1=0, select bank0
  7478  148B  01AA               	clrf	___aldiv@sign
  7479  148C                     l1997:
  7480  148C  1FA3               	btfss	___aldiv@divisor+3,7
  7481  148D  2C8F               	goto	u2301
  7482  148E  2C90               	goto	u2300
  7483  148F                     u2301:
  7484  148F  2C9D               	goto	l462
  7485  1490                     u2300:
  7486  1490                     l1999:
  7487  1490  09A0               	comf	___aldiv@divisor,f
  7488  1491  09A1               	comf	___aldiv@divisor+1,f
  7489  1492  09A2               	comf	___aldiv@divisor+2,f
  7490  1493  09A3               	comf	___aldiv@divisor+3,f
  7491  1494  0AA0               	incf	___aldiv@divisor,f
  7492  1495  1903               	skipnz
  7493  1496  0AA1               	incf	___aldiv@divisor+1,f
  7494  1497  1903               	skipnz
  7495  1498  0AA2               	incf	___aldiv@divisor+2,f
  7496  1499  1903               	skipnz
  7497  149A  0AA3               	incf	___aldiv@divisor+3,f
  7498  149B  01AA               	clrf	___aldiv@sign
  7499  149C  0AAA               	incf	___aldiv@sign,f
  7500  149D                     l462:
  7501  149D  1FA7               	btfss	___aldiv@dividend+3,7
  7502  149E  2CA0               	goto	u2311
  7503  149F  2CA1               	goto	u2310
  7504  14A0                     u2311:
  7505  14A0  2CB0               	goto	l2005
  7506  14A1                     u2310:
  7507  14A1                     l2001:
  7508  14A1  09A4               	comf	___aldiv@dividend,f
  7509  14A2  09A5               	comf	___aldiv@dividend+1,f
  7510  14A3  09A6               	comf	___aldiv@dividend+2,f
  7511  14A4  09A7               	comf	___aldiv@dividend+3,f
  7512  14A5  0AA4               	incf	___aldiv@dividend,f
  7513  14A6  1903               	skipnz
  7514  14A7  0AA5               	incf	___aldiv@dividend+1,f
  7515  14A8  1903               	skipnz
  7516  14A9  0AA6               	incf	___aldiv@dividend+2,f
  7517  14AA  1903               	skipnz
  7518  14AB  0AA7               	incf	___aldiv@dividend+3,f
  7519  14AC                     l2003:
  7520  14AC  3001               	movlw	1
  7521  14AD  00A8               	movwf	??___aldiv
  7522  14AE  0828               	movf	??___aldiv,w
  7523  14AF  06AA               	xorwf	___aldiv@sign,f
  7524  14B0                     l2005:
  7525  14B0  3000               	movlw	0
  7526  14B1  00AE               	movwf	___aldiv@quotient+3
  7527  14B2  3000               	movlw	0
  7528  14B3  00AD               	movwf	___aldiv@quotient+2
  7529  14B4  3000               	movlw	0
  7530  14B5  00AC               	movwf	___aldiv@quotient+1
  7531  14B6  3000               	movlw	0
  7532  14B7  00AB               	movwf	___aldiv@quotient
  7533  14B8                     l2007:
  7534  14B8  0823               	movf	___aldiv@divisor+3,w
  7535  14B9  0422               	iorwf	___aldiv@divisor+2,w
  7536  14BA  0421               	iorwf	___aldiv@divisor+1,w
  7537  14BB  0420               	iorwf	___aldiv@divisor,w
  7538  14BC  1903               	skipnz
  7539  14BD  2CBF               	goto	u2321
  7540  14BE  2CC0               	goto	u2320
  7541  14BF                     u2321:
  7542  14BF  2D0D               	goto	l2027
  7543  14C0                     u2320:
  7544  14C0                     l2009:
  7545  14C0  01A9               	clrf	___aldiv@counter
  7546  14C1  0AA9               	incf	___aldiv@counter,f
  7547  14C2  2CD0               	goto	l2013
  7548  14C3                     l2011:
  7549  14C3  3001               	movlw	1
  7550  14C4  00A8               	movwf	??___aldiv
  7551  14C5                     u2335:
  7552  14C5  1003               	clrc
  7553  14C6  0DA0               	rlf	___aldiv@divisor,f
  7554  14C7  0DA1               	rlf	___aldiv@divisor+1,f
  7555  14C8  0DA2               	rlf	___aldiv@divisor+2,f
  7556  14C9  0DA3               	rlf	___aldiv@divisor+3,f
  7557  14CA  0BA8               	decfsz	??___aldiv,f
  7558  14CB  2CC5               	goto	u2335
  7559  14CC  3001               	movlw	1
  7560  14CD  00A8               	movwf	??___aldiv
  7561  14CE  0828               	movf	??___aldiv,w
  7562  14CF  07A9               	addwf	___aldiv@counter,f
  7563  14D0                     l2013:
  7564  14D0  1FA3               	btfss	___aldiv@divisor+3,7
  7565  14D1  2CD3               	goto	u2341
  7566  14D2  2CD4               	goto	u2340
  7567  14D3                     u2341:
  7568  14D3  2CC3               	goto	l2011
  7569  14D4                     u2340:
  7570  14D4                     l2015:
  7571  14D4  3001               	movlw	1
  7572  14D5  00A8               	movwf	??___aldiv
  7573  14D6                     u2355:
  7574  14D6  1003               	clrc
  7575  14D7  0DAB               	rlf	___aldiv@quotient,f
  7576  14D8  0DAC               	rlf	___aldiv@quotient+1,f
  7577  14D9  0DAD               	rlf	___aldiv@quotient+2,f
  7578  14DA  0DAE               	rlf	___aldiv@quotient+3,f
  7579  14DB  0BA8               	decfsz	??___aldiv,f
  7580  14DC  2CD6               	goto	u2355
  7581  14DD                     l2017:
  7582  14DD  0823               	movf	___aldiv@divisor+3,w
  7583  14DE  0227               	subwf	___aldiv@dividend+3,w
  7584  14DF  1D03               	skipz
  7585  14E0  2CEB               	goto	u2365
  7586  14E1  0822               	movf	___aldiv@divisor+2,w
  7587  14E2  0226               	subwf	___aldiv@dividend+2,w
  7588  14E3  1D03               	skipz
  7589  14E4  2CEB               	goto	u2365
  7590  14E5  0821               	movf	___aldiv@divisor+1,w
  7591  14E6  0225               	subwf	___aldiv@dividend+1,w
  7592  14E7  1D03               	skipz
  7593  14E8  2CEB               	goto	u2365
  7594  14E9  0820               	movf	___aldiv@divisor,w
  7595  14EA  0224               	subwf	___aldiv@dividend,w
  7596  14EB                     u2365:
  7597  14EB  1C03               	skipc
  7598  14EC  2CEE               	goto	u2361
  7599  14ED  2CEF               	goto	u2360
  7600  14EE                     u2361:
  7601  14EE  2CFE               	goto	l2023
  7602  14EF                     u2360:
  7603  14EF                     l2019:
  7604  14EF  0820               	movf	___aldiv@divisor,w
  7605  14F0  02A4               	subwf	___aldiv@dividend,f
  7606  14F1  0821               	movf	___aldiv@divisor+1,w
  7607  14F2  1C03               	skipc
  7608  14F3  0F21               	incfsz	___aldiv@divisor+1,w
  7609  14F4  02A5               	subwf	___aldiv@dividend+1,f
  7610  14F5  0822               	movf	___aldiv@divisor+2,w
  7611  14F6  1C03               	skipc
  7612  14F7  0F22               	incfsz	___aldiv@divisor+2,w
  7613  14F8  02A6               	subwf	___aldiv@dividend+2,f
  7614  14F9  0823               	movf	___aldiv@divisor+3,w
  7615  14FA  1C03               	skipc
  7616  14FB  0F23               	incfsz	___aldiv@divisor+3,w
  7617  14FC  02A7               	subwf	___aldiv@dividend+3,f
  7618  14FD                     l2021:
  7619  14FD  142B               	bsf	___aldiv@quotient,0
  7620  14FE                     l2023:
  7621  14FE  3001               	movlw	1
  7622  14FF                     u2375:
  7623  14FF  1003               	clrc
  7624  1500  0CA3               	rrf	___aldiv@divisor+3,f
  7625  1501  0CA2               	rrf	___aldiv@divisor+2,f
  7626  1502  0CA1               	rrf	___aldiv@divisor+1,f
  7627  1503  0CA0               	rrf	___aldiv@divisor,f
  7628  1504  3EFF               	addlw	-1
  7629  1505  1D03               	skipz
  7630  1506  2CFF               	goto	u2375
  7631  1507                     l2025:
  7632  1507  3001               	movlw	1
  7633  1508  02A9               	subwf	___aldiv@counter,f
  7634  1509  1D03               	btfss	3,2
  7635  150A  2D0C               	goto	u2381
  7636  150B  2D0D               	goto	u2380
  7637  150C                     u2381:
  7638  150C  2CD4               	goto	l2015
  7639  150D                     u2380:
  7640  150D                     l2027:
  7641  150D  082A               	movf	___aldiv@sign,w
  7642  150E  1903               	btfsc	3,2
  7643  150F  2D11               	goto	u2391
  7644  1510  2D12               	goto	u2390
  7645  1511                     u2391:
  7646  1511  2D1D               	goto	l2031
  7647  1512                     u2390:
  7648  1512                     l2029:
  7649  1512  09AB               	comf	___aldiv@quotient,f
  7650  1513  09AC               	comf	___aldiv@quotient+1,f
  7651  1514  09AD               	comf	___aldiv@quotient+2,f
  7652  1515  09AE               	comf	___aldiv@quotient+3,f
  7653  1516  0AAB               	incf	___aldiv@quotient,f
  7654  1517  1903               	skipnz
  7655  1518  0AAC               	incf	___aldiv@quotient+1,f
  7656  1519  1903               	skipnz
  7657  151A  0AAD               	incf	___aldiv@quotient+2,f
  7658  151B  1903               	skipnz
  7659  151C  0AAE               	incf	___aldiv@quotient+3,f
  7660  151D                     l2031:
  7661  151D  082E               	movf	___aldiv@quotient+3,w
  7662  151E  00A3               	movwf	?___aldiv+3
  7663  151F  082D               	movf	___aldiv@quotient+2,w
  7664  1520  00A2               	movwf	?___aldiv+2
  7665  1521  082C               	movf	___aldiv@quotient+1,w
  7666  1522  00A1               	movwf	?___aldiv+1
  7667  1523  082B               	movf	___aldiv@quotient,w
  7668  1524  00A0               	movwf	?___aldiv
  7669  1525                     l472:
  7670  1525  0008               	return
  7671  1526                     __end_of___aldiv:
  7672                           
  7673                           	psect	text17
  7674  1330                     __ptext17:	
  7675 ;; *************** function _MPU6050_Init *****************
  7676 ;; Defined at:
  7677 ;;		line 127 in file "MPU6050.c"
  7678 ;; Parameters:    Size  Location     Type
  7679 ;;		None
  7680 ;; Auto vars:     Size  Location     Type
  7681 ;;		None
  7682 ;; Return value:  Size  Location     Type
  7683 ;;                  1    wreg      void 
  7684 ;; Registers used:
  7685 ;;		wreg, status,2, status,0, pclath, cstack
  7686 ;; Tracked objects:
  7687 ;;		On entry : 0/0
  7688 ;;		On exit  : 0/0
  7689 ;;		Unchanged: 0/0
  7690 ;; Data sizes:     COMMON   BANK0   BANK1   BANK3   BANK2
  7691 ;;      Params:         0       0       0       0       0
  7692 ;;      Locals:         0       0       0       0       0
  7693 ;;      Temps:          0       3       0       0       0
  7694 ;;      Totals:         0       3       0       0       0
  7695 ;;Total ram usage:        3 bytes
  7696 ;; Hardware stack levels used: 1
  7697 ;; Hardware stack levels required when called: 7
  7698 ;; This function calls:
  7699 ;;		_I2C_Init
  7700 ;;		_MPU6050_Write
  7701 ;; This function is called by:
  7702 ;;		_main
  7703 ;; This function uses a non-reentrant model
  7704 ;;
  7705                           
  7706                           
  7707                           ;psect for function _MPU6050_Init
  7708  1330                     _MPU6050_Init:
  7709  1330                     l2529:	
  7710                           ;incstack = 0
  7711                           ; Regs used in _MPU6050_Init: [wreg+status,2+status,0+pclath+cstack]
  7712                           
  7713                           
  7714                           ;MPU6050.c: 130:   _delay((unsigned long)((100)*(20000000/4000.0)));
  7715  1330  3003               	movlw	3
  7716  1331  1283               	bcf	3,5	;RP0=0, select bank0
  7717  1332  1303               	bcf	3,6	;RP1=0, select bank0
  7718  1333  00A8               	movwf	??_MPU6050_Init+2
  7719  1334  308A               	movlw	138
  7720  1335  00A7               	movwf	??_MPU6050_Init+1
  7721  1336  3055               	movlw	85
  7722  1337  00A6               	movwf	??_MPU6050_Init
  7723  1338                     u4287:
  7724  1338  0BA6               	decfsz	??_MPU6050_Init,f
  7725  1339  2B38               	goto	u4287
  7726  133A  0BA7               	decfsz	??_MPU6050_Init+1,f
  7727  133B  2B38               	goto	u4287
  7728  133C  0BA8               	decfsz	??_MPU6050_Init+2,f
  7729  133D  2B38               	goto	u4287
  7730  133E                     l2531:
  7731                           
  7732                           ;MPU6050.c: 131:   I2C_Init();
  7733  133E  120A  158A  2002  160A  118A  	fcall	_I2C_Init
  7734  1343                     l2533:
  7735                           
  7736                           ;MPU6050.c: 134:   MPU6050_Write(0x19, 0x07);
  7737  1343  3007               	movlw	7
  7738  1344  1283               	bcf	3,5	;RP0=0, select bank0
  7739  1345  1303               	bcf	3,6	;RP1=0, select bank0
  7740  1346  00A6               	movwf	??_MPU6050_Init
  7741  1347  0826               	movf	??_MPU6050_Init,w
  7742  1348  00A4               	movwf	MPU6050_Write@data
  7743  1349  3019               	movlw	25
  7744  134A  160A  118A  2185  160A  118A  	fcall	_MPU6050_Write
  7745  134F                     l2535:
  7746                           
  7747                           ;MPU6050.c: 137:   MPU6050_Write(0x6B, 0x01);
  7748  134F  1283               	bcf	3,5	;RP0=0, select bank0
  7749  1350  1303               	bcf	3,6	;RP1=0, select bank0
  7750  1351  01A4               	clrf	MPU6050_Write@data
  7751  1352  0AA4               	incf	MPU6050_Write@data,f
  7752  1353  306B               	movlw	107
  7753  1354  160A  118A  2185  160A  118A  	fcall	_MPU6050_Write
  7754  1359                     l2537:
  7755                           
  7756                           ;MPU6050.c: 140:   MPU6050_Write(0x1A, 0x00);
  7757  1359  1283               	bcf	3,5	;RP0=0, select bank0
  7758  135A  1303               	bcf	3,6	;RP1=0, select bank0
  7759  135B  01A4               	clrf	MPU6050_Write@data
  7760  135C  301A               	movlw	26
  7761  135D  160A  118A  2185  160A  118A  	fcall	_MPU6050_Write
  7762  1362                     l2539:
  7763                           
  7764                           ;MPU6050.c: 143:   MPU6050_Write(0x1C, 0x00);
  7765  1362  1283               	bcf	3,5	;RP0=0, select bank0
  7766  1363  1303               	bcf	3,6	;RP1=0, select bank0
  7767  1364  01A4               	clrf	MPU6050_Write@data
  7768  1365  301C               	movlw	28
  7769  1366  160A  118A  2185  160A  118A  	fcall	_MPU6050_Write
  7770  136B                     l2541:
  7771                           
  7772                           ;MPU6050.c: 146:   MPU6050_Write(0x1B, 0x18);
  7773  136B  3018               	movlw	24
  7774  136C  1283               	bcf	3,5	;RP0=0, select bank0
  7775  136D  1303               	bcf	3,6	;RP1=0, select bank0
  7776  136E  00A6               	movwf	??_MPU6050_Init
  7777  136F  0826               	movf	??_MPU6050_Init,w
  7778  1370  00A4               	movwf	MPU6050_Write@data
  7779  1371  301B               	movlw	27
  7780  1372  160A  118A  2185  160A  118A  	fcall	_MPU6050_Write
  7781  1377                     l308:
  7782  1377  0008               	return
  7783  1378                     __end_of_MPU6050_Init:
  7784                           
  7785                           	psect	text18
  7786  1185                     __ptext18:	
  7787 ;; *************** function _MPU6050_Write *****************
  7788 ;; Defined at:
  7789 ;;		line 106 in file "MPU6050.c"
  7790 ;; Parameters:    Size  Location     Type
  7791 ;;  add             1    wreg     unsigned char 
  7792 ;;  data            1    4[BANK0 ] unsigned char 
  7793 ;; Auto vars:     Size  Location     Type
  7794 ;;  add             1    5[BANK0 ] unsigned char 
  7795 ;; Return value:  Size  Location     Type
  7796 ;;                  1    wreg      void 
  7797 ;; Registers used:
  7798 ;;		wreg, status,2, status,0, pclath, cstack
  7799 ;; Tracked objects:
  7800 ;;		On entry : 0/0
  7801 ;;		On exit  : 0/0
  7802 ;;		Unchanged: 0/0
  7803 ;; Data sizes:     COMMON   BANK0   BANK1   BANK3   BANK2
  7804 ;;      Params:         0       1       0       0       0
  7805 ;;      Locals:         0       1       0       0       0
  7806 ;;      Temps:          0       0       0       0       0
  7807 ;;      Totals:         0       2       0       0       0
  7808 ;;Total ram usage:        2 bytes
  7809 ;; Hardware stack levels used: 1
  7810 ;; Hardware stack levels required when called: 6
  7811 ;; This function calls:
  7812 ;;		_I2C_Start
  7813 ;;		_I2C_Stop
  7814 ;;		_I2C_Write
  7815 ;; This function is called by:
  7816 ;;		_MPU6050_Init
  7817 ;; This function uses a non-reentrant model
  7818 ;;
  7819                           
  7820                           
  7821                           ;psect for function _MPU6050_Write
  7822  1185                     _MPU6050_Write:
  7823                           
  7824                           ;incstack = 0
  7825                           ; Regs used in _MPU6050_Write: [wreg+status,2+status,0+pclath+cstack]
  7826                           ;MPU6050_Write@add stored from wreg
  7827  1185  1283               	bcf	3,5	;RP0=0, select bank0
  7828  1186  1303               	bcf	3,6	;RP1=0, select bank0
  7829  1187  00A5               	movwf	MPU6050_Write@add
  7830  1188                     l2441:
  7831                           
  7832                           ;MPU6050.c: 106: void MPU6050_Write(unsigned char add,unsigned char data);MPU6050.c: 107
      +                          : {;MPU6050.c: 108:    I2C_Start();
  7833  1188  160A  118A  20F9  160A  118A  	fcall	_I2C_Start
  7834                           
  7835                           ;MPU6050.c: 109:    I2C_Write(0xD0);
  7836  118D  30D0               	movlw	208
  7837  118E  160A  118A  214B  160A  118A  	fcall	_I2C_Write
  7838                           
  7839                           ;MPU6050.c: 110:    I2C_Write(add);
  7840  1193  1283               	bcf	3,5	;RP0=0, select bank0
  7841  1194  1303               	bcf	3,6	;RP1=0, select bank0
  7842  1195  0825               	movf	MPU6050_Write@add,w
  7843  1196  160A  118A  214B  160A  118A  	fcall	_I2C_Write
  7844                           
  7845                           ;MPU6050.c: 111:    I2C_Write(data);
  7846  119B  1283               	bcf	3,5	;RP0=0, select bank0
  7847  119C  1303               	bcf	3,6	;RP1=0, select bank0
  7848  119D  0824               	movf	MPU6050_Write@data,w
  7849  119E  160A  118A  214B  160A  118A  	fcall	_I2C_Write
  7850                           
  7851                           ;MPU6050.c: 112:    I2C_Stop();
  7852  11A3  160A  118A  2106  160A  118A  	fcall	_I2C_Stop
  7853  11A8                     l302:
  7854  11A8  0008               	return
  7855  11A9                     __end_of_MPU6050_Write:
  7856                           
  7857                           	psect	text19
  7858  0802                     __ptext19:	
  7859 ;; *************** function _I2C_Init *****************
  7860 ;; Defined at:
  7861 ;;		line 9 in file "I2C.c"
  7862 ;; Parameters:    Size  Location     Type
  7863 ;;		None
  7864 ;; Auto vars:     Size  Location     Type
  7865 ;;		None
  7866 ;; Return value:  Size  Location     Type
  7867 ;;                  1    wreg      void 
  7868 ;; Registers used:
  7869 ;;		wreg, status,2
  7870 ;; Tracked objects:
  7871 ;;		On entry : 0/0
  7872 ;;		On exit  : 0/0
  7873 ;;		Unchanged: 0/0
  7874 ;; Data sizes:     COMMON   BANK0   BANK1   BANK3   BANK2
  7875 ;;      Params:         0       0       0       0       0
  7876 ;;      Locals:         0       0       0       0       0
  7877 ;;      Temps:          0       0       0       0       0
  7878 ;;      Totals:         0       0       0       0       0
  7879 ;;Total ram usage:        0 bytes
  7880 ;; Hardware stack levels used: 1
  7881 ;; Hardware stack levels required when called: 4
  7882 ;; This function calls:
  7883 ;;		Nothing
  7884 ;; This function is called by:
  7885 ;;		_MPU6050_Init
  7886 ;; This function uses a non-reentrant model
  7887 ;;
  7888                           
  7889                           
  7890                           ;psect for function _I2C_Init
  7891  0802                     _I2C_Init:
  7892  0802                     l2431:	
  7893                           ;incstack = 0
  7894                           ; Regs used in _I2C_Init: [wreg+status,2]
  7895                           
  7896                           
  7897                           ;I2C.c: 13:     TRISCbits.TRISC3 = 1;
  7898  0802  1683               	bsf	3,5	;RP0=1, select bank1
  7899  0803  1303               	bcf	3,6	;RP1=0, select bank1
  7900  0804  1587               	bsf	7,3	;volatile
  7901                           
  7902                           ;I2C.c: 14:     TRISCbits.TRISC4 = 1;
  7903  0805  1607               	bsf	7,4	;volatile
  7904  0806                     l2433:
  7905                           
  7906                           ;I2C.c: 16:     SSPCON = 0x28;
  7907  0806  3028               	movlw	40
  7908  0807  1283               	bcf	3,5	;RP0=0, select bank0
  7909  0808  1303               	bcf	3,6	;RP1=0, select bank0
  7910  0809  0094               	movwf	20	;volatile
  7911  080A                     l2435:
  7912                           
  7913                           ;I2C.c: 17:     SSPCON2 = 0x00;
  7914  080A  1683               	bsf	3,5	;RP0=1, select bank1
  7915  080B  1303               	bcf	3,6	;RP1=0, select bank1
  7916  080C  0191               	clrf	17	;volatile
  7917  080D                     l2437:
  7918                           
  7919                           ;I2C.c: 18:     SSPSTATbits.SMP = 1;
  7920  080D  1794               	bsf	20,7	;volatile
  7921  080E                     l2439:
  7922                           
  7923                           ;I2C.c: 20:     SSPADD = ((20000000/4)/400000) - 1;
  7924  080E  300B               	movlw	11
  7925  080F  0093               	movwf	19	;volatile
  7926  0810                     l173:
  7927  0810  0008               	return
  7928  0811                     __end_of_I2C_Init:
  7929                           
  7930                           	psect	text20
  7931  1202                     __ptext20:	
  7932 ;; *************** function _MPU6050_GetAngle *****************
  7933 ;; Defined at:
  7934 ;;		line 161 in file "MPU6050.c"
  7935 ;; Parameters:    Size  Location     Type
  7936 ;;		None
  7937 ;; Auto vars:     Size  Location     Type
  7938 ;;  Ax              2   17[BANK0 ] int 
  7939 ;; Return value:  Size  Location     Type
  7940 ;;                  2   13[BANK0 ] int 
  7941 ;; Registers used:
  7942 ;;		wreg, status,2, status,0, btemp+1, pclath, cstack
  7943 ;; Tracked objects:
  7944 ;;		On entry : 0/0
  7945 ;;		On exit  : 0/0
  7946 ;;		Unchanged: 0/0
  7947 ;; Data sizes:     COMMON   BANK0   BANK1   BANK3   BANK2
  7948 ;;      Params:         0       2       0       0       0
  7949 ;;      Locals:         0       2       0       0       0
  7950 ;;      Temps:          0       2       0       0       0
  7951 ;;      Totals:         0       6       0       0       0
  7952 ;;Total ram usage:        6 bytes
  7953 ;; Hardware stack levels used: 1
  7954 ;; Hardware stack levels required when called: 7
  7955 ;; This function calls:
  7956 ;;		_MPU6050_Read
  7957 ;;		___awdiv
  7958 ;; This function is called by:
  7959 ;;		_main
  7960 ;; This function uses a non-reentrant model
  7961 ;;
  7962                           
  7963                           
  7964                           ;psect for function _MPU6050_GetAngle
  7965  1202                     _MPU6050_GetAngle:
  7966  1202                     l2579:	
  7967                           ;incstack = 0
  7968                           ; Regs used in _MPU6050_GetAngle: [wreg+status,2+status,0+btemp+1+pclath+cstack]
  7969                           
  7970                           
  7971                           ;MPU6050.c: 163:   int Ax;;MPU6050.c: 164:   Ax = MPU6050_Read(0x3B) << 8 | MPU6050_Read
      +                          (0x3C);
  7972  1202  303B               	movlw	59
  7973  1203  160A  118A  226E  160A  118A  	fcall	_MPU6050_Read
  7974  1208  1283               	bcf	3,5	;RP0=0, select bank0
  7975  1209  1303               	bcf	3,6	;RP1=0, select bank0
  7976  120A  0826               	movf	?_MPU6050_Read,w
  7977  120B  00AF               	movwf	??_MPU6050_GetAngle
  7978  120C  0827               	movf	?_MPU6050_Read+1,w
  7979  120D  00B0               	movwf	??_MPU6050_GetAngle+1
  7980  120E  082F               	movf	??_MPU6050_GetAngle,w
  7981  120F  00B0               	movwf	??_MPU6050_GetAngle+1
  7982  1210  01AF               	clrf	??_MPU6050_GetAngle
  7983  1211  303C               	movlw	60
  7984  1212  160A  118A  226E  160A  118A  	fcall	_MPU6050_Read
  7985  1217  1283               	bcf	3,5	;RP0=0, select bank0
  7986  1218  1303               	bcf	3,6	;RP1=0, select bank0
  7987  1219  0826               	movf	?_MPU6050_Read,w
  7988  121A  042F               	iorwf	??_MPU6050_GetAngle,w
  7989  121B  00B1               	movwf	MPU6050_GetAngle@Ax
  7990  121C  0827               	movf	?_MPU6050_Read+1,w
  7991  121D  0430               	iorwf	??_MPU6050_GetAngle+1,w
  7992  121E  00B2               	movwf	MPU6050_GetAngle@Ax+1
  7993  121F                     l2581:
  7994                           
  7995                           ;MPU6050.c: 165:   Ax /= 180;
  7996  121F  30B4               	movlw	180
  7997  1220  00A0               	movwf	___awdiv@divisor
  7998  1221  3000               	movlw	0
  7999  1222  00A1               	movwf	___awdiv@divisor+1
  8000  1223  0832               	movf	MPU6050_GetAngle@Ax+1,w
  8001  1224  00A3               	movwf	___awdiv@dividend+1
  8002  1225  0831               	movf	MPU6050_GetAngle@Ax,w
  8003  1226  00A2               	movwf	___awdiv@dividend
  8004  1227  160A  118A  2420  160A  118A  	fcall	___awdiv
  8005  122C  1283               	bcf	3,5	;RP0=0, select bank0
  8006  122D  1303               	bcf	3,6	;RP1=0, select bank0
  8007  122E  0821               	movf	?___awdiv+1,w
  8008  122F  00B2               	movwf	MPU6050_GetAngle@Ax+1
  8009  1230  0820               	movf	?___awdiv,w
  8010  1231  00B1               	movwf	MPU6050_GetAngle@Ax
  8011  1232                     l2583:
  8012                           
  8013                           ;MPU6050.c: 166:   return Ax;
  8014  1232  0832               	movf	MPU6050_GetAngle@Ax+1,w
  8015  1233  00AE               	movwf	?_MPU6050_GetAngle+1
  8016  1234  0831               	movf	MPU6050_GetAngle@Ax,w
  8017  1235  00AD               	movwf	?_MPU6050_GetAngle
  8018  1236                     l311:
  8019  1236  0008               	return
  8020  1237                     __end_of_MPU6050_GetAngle:
  8021                           
  8022                           	psect	text21
  8023  1420                     __ptext21:	
  8024 ;; *************** function ___awdiv *****************
  8025 ;; Defined at:
  8026 ;;		line 5 in file "D:\File Install MBLAB IDE\XC8\pic\sources\c90\common\awdiv.c"
  8027 ;; Parameters:    Size  Location     Type
  8028 ;;  divisor         2    0[BANK0 ] int 
  8029 ;;  dividend        2    2[BANK0 ] int 
  8030 ;; Auto vars:     Size  Location     Type
  8031 ;;  quotient        2    7[BANK0 ] int 
  8032 ;;  sign            1    6[BANK0 ] unsigned char 
  8033 ;;  counter         1    5[BANK0 ] unsigned char 
  8034 ;; Return value:  Size  Location     Type
  8035 ;;                  2    0[BANK0 ] int 
  8036 ;; Registers used:
  8037 ;;		wreg, status,2, status,0
  8038 ;; Tracked objects:
  8039 ;;		On entry : 0/0
  8040 ;;		On exit  : 0/0
  8041 ;;		Unchanged: 0/0
  8042 ;; Data sizes:     COMMON   BANK0   BANK1   BANK3   BANK2
  8043 ;;      Params:         0       4       0       0       0
  8044 ;;      Locals:         0       4       0       0       0
  8045 ;;      Temps:          0       1       0       0       0
  8046 ;;      Totals:         0       9       0       0       0
  8047 ;;Total ram usage:        9 bytes
  8048 ;; Hardware stack levels used: 1
  8049 ;; Hardware stack levels required when called: 4
  8050 ;; This function calls:
  8051 ;;		Nothing
  8052 ;; This function is called by:
  8053 ;;		_MPU6050_GetAngle
  8054 ;; This function uses a non-reentrant model
  8055 ;;
  8056                           
  8057                           
  8058                           ;psect for function ___awdiv
  8059  1420                     ___awdiv:
  8060  1420                     l2449:	
  8061                           ;incstack = 0
  8062                           ; Regs used in ___awdiv: [wreg+status,2+status,0]
  8063                           
  8064  1420  1283               	bcf	3,5	;RP0=0, select bank0
  8065  1421  1303               	bcf	3,6	;RP1=0, select bank0
  8066  1422  01A6               	clrf	___awdiv@sign
  8067  1423                     l2451:
  8068  1423  1FA1               	btfss	___awdiv@divisor+1,7
  8069  1424  2C26               	goto	u3401
  8070  1425  2C27               	goto	u3400
  8071  1426                     u3401:
  8072  1426  2C2E               	goto	l2457
  8073  1427                     u3400:
  8074  1427                     l2453:
  8075  1427  09A0               	comf	___awdiv@divisor,f
  8076  1428  09A1               	comf	___awdiv@divisor+1,f
  8077  1429  0AA0               	incf	___awdiv@divisor,f
  8078  142A  1903               	skipnz
  8079  142B  0AA1               	incf	___awdiv@divisor+1,f
  8080  142C                     l2455:
  8081  142C  01A6               	clrf	___awdiv@sign
  8082  142D  0AA6               	incf	___awdiv@sign,f
  8083  142E                     l2457:
  8084  142E  1FA3               	btfss	___awdiv@dividend+1,7
  8085  142F  2C31               	goto	u3411
  8086  1430  2C32               	goto	u3410
  8087  1431                     u3411:
  8088  1431  2C3B               	goto	l2463
  8089  1432                     u3410:
  8090  1432                     l2459:
  8091  1432  09A2               	comf	___awdiv@dividend,f
  8092  1433  09A3               	comf	___awdiv@dividend+1,f
  8093  1434  0AA2               	incf	___awdiv@dividend,f
  8094  1435  1903               	skipnz
  8095  1436  0AA3               	incf	___awdiv@dividend+1,f
  8096  1437                     l2461:
  8097  1437  3001               	movlw	1
  8098  1438  00A4               	movwf	??___awdiv
  8099  1439  0824               	movf	??___awdiv,w
  8100  143A  06A6               	xorwf	___awdiv@sign,f
  8101  143B                     l2463:
  8102  143B  01A7               	clrf	___awdiv@quotient
  8103  143C  01A8               	clrf	___awdiv@quotient+1
  8104  143D                     l2465:
  8105  143D  0820               	movf	___awdiv@divisor,w
  8106  143E  0421               	iorwf	___awdiv@divisor+1,w
  8107  143F  1903               	btfsc	3,2
  8108  1440  2C42               	goto	u3421
  8109  1441  2C43               	goto	u3420
  8110  1442                     u3421:
  8111  1442  2C7A               	goto	l2485
  8112  1443                     u3420:
  8113  1443                     l2467:
  8114  1443  01A5               	clrf	___awdiv@counter
  8115  1444  0AA5               	incf	___awdiv@counter,f
  8116  1445  2C51               	goto	l2473
  8117  1446                     l2469:
  8118  1446  3001               	movlw	1
  8119  1447                     u3435:
  8120  1447  1003               	clrc
  8121  1448  0DA0               	rlf	___awdiv@divisor,f
  8122  1449  0DA1               	rlf	___awdiv@divisor+1,f
  8123  144A  3EFF               	addlw	-1
  8124  144B  1D03               	skipz
  8125  144C  2C47               	goto	u3435
  8126  144D                     l2471:
  8127  144D  3001               	movlw	1
  8128  144E  00A4               	movwf	??___awdiv
  8129  144F  0824               	movf	??___awdiv,w
  8130  1450  07A5               	addwf	___awdiv@counter,f
  8131  1451                     l2473:
  8132  1451  1FA1               	btfss	___awdiv@divisor+1,7
  8133  1452  2C54               	goto	u3441
  8134  1453  2C55               	goto	u3440
  8135  1454                     u3441:
  8136  1454  2C46               	goto	l2469
  8137  1455                     u3440:
  8138  1455                     l2475:
  8139  1455  3001               	movlw	1
  8140  1456                     u3455:
  8141  1456  1003               	clrc
  8142  1457  0DA7               	rlf	___awdiv@quotient,f
  8143  1458  0DA8               	rlf	___awdiv@quotient+1,f
  8144  1459  3EFF               	addlw	-1
  8145  145A  1D03               	skipz
  8146  145B  2C56               	goto	u3455
  8147  145C  0821               	movf	___awdiv@divisor+1,w
  8148  145D  0223               	subwf	___awdiv@dividend+1,w
  8149  145E  1D03               	skipz
  8150  145F  2C62               	goto	u3465
  8151  1460  0820               	movf	___awdiv@divisor,w
  8152  1461  0222               	subwf	___awdiv@dividend,w
  8153  1462                     u3465:
  8154  1462  1C03               	skipc
  8155  1463  2C65               	goto	u3461
  8156  1464  2C66               	goto	u3460
  8157  1465                     u3461:
  8158  1465  2C6D               	goto	l2481
  8159  1466                     u3460:
  8160  1466                     l2477:
  8161  1466  0820               	movf	___awdiv@divisor,w
  8162  1467  02A2               	subwf	___awdiv@dividend,f
  8163  1468  0821               	movf	___awdiv@divisor+1,w
  8164  1469  1C03               	skipc
  8165  146A  03A3               	decf	___awdiv@dividend+1,f
  8166  146B  02A3               	subwf	___awdiv@dividend+1,f
  8167  146C                     l2479:
  8168  146C  1427               	bsf	___awdiv@quotient,0
  8169  146D                     l2481:
  8170  146D  3001               	movlw	1
  8171  146E                     u3475:
  8172  146E  1003               	clrc
  8173  146F  0CA1               	rrf	___awdiv@divisor+1,f
  8174  1470  0CA0               	rrf	___awdiv@divisor,f
  8175  1471  3EFF               	addlw	-1
  8176  1472  1D03               	skipz
  8177  1473  2C6E               	goto	u3475
  8178  1474                     l2483:
  8179  1474  3001               	movlw	1
  8180  1475  02A5               	subwf	___awdiv@counter,f
  8181  1476  1D03               	btfss	3,2
  8182  1477  2C79               	goto	u3481
  8183  1478  2C7A               	goto	u3480
  8184  1479                     u3481:
  8185  1479  2C55               	goto	l2475
  8186  147A                     u3480:
  8187  147A                     l2485:
  8188  147A  0826               	movf	___awdiv@sign,w
  8189  147B  1903               	btfsc	3,2
  8190  147C  2C7E               	goto	u3491
  8191  147D  2C7F               	goto	u3490
  8192  147E                     u3491:
  8193  147E  2C84               	goto	l2489
  8194  147F                     u3490:
  8195  147F                     l2487:
  8196  147F  09A7               	comf	___awdiv@quotient,f
  8197  1480  09A8               	comf	___awdiv@quotient+1,f
  8198  1481  0AA7               	incf	___awdiv@quotient,f
  8199  1482  1903               	skipnz
  8200  1483  0AA8               	incf	___awdiv@quotient+1,f
  8201  1484                     l2489:
  8202  1484  0828               	movf	___awdiv@quotient+1,w
  8203  1485  00A1               	movwf	?___awdiv+1
  8204  1486  0827               	movf	___awdiv@quotient,w
  8205  1487  00A0               	movwf	?___awdiv
  8206  1488                     l550:
  8207  1488  0008               	return
  8208  1489                     __end_of___awdiv:
  8209                           
  8210                           	psect	text22
  8211  126E                     __ptext22:	
  8212 ;; *************** function _MPU6050_Read *****************
  8213 ;; Defined at:
  8214 ;;		line 114 in file "MPU6050.c"
  8215 ;; Parameters:    Size  Location     Type
  8216 ;;  add             1    wreg     unsigned char 
  8217 ;; Auto vars:     Size  Location     Type
  8218 ;;  add             1   12[BANK0 ] unsigned char 
  8219 ;;  retval          2   10[BANK0 ] int 
  8220 ;; Return value:  Size  Location     Type
  8221 ;;                  2    6[BANK0 ] int 
  8222 ;; Registers used:
  8223 ;;		wreg, status,2, status,0, pclath, cstack
  8224 ;; Tracked objects:
  8225 ;;		On entry : 0/0
  8226 ;;		On exit  : 0/0
  8227 ;;		Unchanged: 0/0
  8228 ;; Data sizes:     COMMON   BANK0   BANK1   BANK3   BANK2
  8229 ;;      Params:         0       2       0       0       0
  8230 ;;      Locals:         0       3       0       0       0
  8231 ;;      Temps:          0       2       0       0       0
  8232 ;;      Totals:         0       7       0       0       0
  8233 ;;Total ram usage:        7 bytes
  8234 ;; Hardware stack levels used: 1
  8235 ;; Hardware stack levels required when called: 6
  8236 ;; This function calls:
  8237 ;;		_I2C_Read
  8238 ;;		_I2C_Start
  8239 ;;		_I2C_Stop
  8240 ;;		_I2C_Write
  8241 ;; This function is called by:
  8242 ;;		_MPU6050_GetAngle
  8243 ;; This function uses a non-reentrant model
  8244 ;;
  8245                           
  8246                           
  8247                           ;psect for function _MPU6050_Read
  8248  126E                     _MPU6050_Read:
  8249                           
  8250                           ;incstack = 0
  8251                           ; Regs used in _MPU6050_Read: [wreg+status,2+status,0+pclath+cstack]
  8252                           ;MPU6050_Read@add stored from wreg
  8253  126E  1283               	bcf	3,5	;RP0=0, select bank0
  8254  126F  1303               	bcf	3,6	;RP1=0, select bank0
  8255  1270  00AC               	movwf	MPU6050_Read@add
  8256  1271                     l2443:
  8257                           
  8258                           ;MPU6050.c: 114: int MPU6050_Read(unsigned char add);MPU6050.c: 115: {;MPU6050.c: 116:  
      +                            int retval;;MPU6050.c: 117:    I2C_Start();
  8259  1271  160A  118A  20F9  160A  118A  	fcall	_I2C_Start
  8260                           
  8261                           ;MPU6050.c: 118:    I2C_Write(0xD0);
  8262  1276  30D0               	movlw	208
  8263  1277  160A  118A  214B  160A  118A  	fcall	_I2C_Write
  8264                           
  8265                           ;MPU6050.c: 119:    I2C_Write(add);
  8266  127C  1283               	bcf	3,5	;RP0=0, select bank0
  8267  127D  1303               	bcf	3,6	;RP1=0, select bank0
  8268  127E  082C               	movf	MPU6050_Read@add,w
  8269  127F  160A  118A  214B  160A  118A  	fcall	_I2C_Write
  8270                           
  8271                           ;MPU6050.c: 120:    I2C_Stop();
  8272  1284  160A  118A  2106  160A  118A  	fcall	_I2C_Stop
  8273                           
  8274                           ;MPU6050.c: 121:    I2C_Start();
  8275  1289  160A  118A  20F9  160A  118A  	fcall	_I2C_Start
  8276                           
  8277                           ;MPU6050.c: 122:    I2C_Write(0xD1);
  8278  128E  30D1               	movlw	209
  8279  128F  160A  118A  214B  160A  118A  	fcall	_I2C_Write
  8280                           
  8281                           ;MPU6050.c: 123:    retval = I2C_Read(1);
  8282  1294  3001               	movlw	1
  8283  1295  160A  118A  21D2  160A  118A  	fcall	_I2C_Read
  8284  129A  1283               	bcf	3,5	;RP0=0, select bank0
  8285  129B  1303               	bcf	3,6	;RP1=0, select bank0
  8286  129C  00A8               	movwf	??_MPU6050_Read
  8287  129D  01A9               	clrf	??_MPU6050_Read+1
  8288  129E  0828               	movf	??_MPU6050_Read,w
  8289  129F  00AA               	movwf	MPU6050_Read@retval
  8290  12A0  0829               	movf	??_MPU6050_Read+1,w
  8291  12A1  00AB               	movwf	MPU6050_Read@retval+1
  8292                           
  8293                           ;MPU6050.c: 124:    I2C_Stop();
  8294  12A2  160A  118A  2106  160A  118A  	fcall	_I2C_Stop
  8295  12A7                     l2445:
  8296                           
  8297                           ;MPU6050.c: 125:    return retval;
  8298  12A7  1283               	bcf	3,5	;RP0=0, select bank0
  8299  12A8  1303               	bcf	3,6	;RP1=0, select bank0
  8300  12A9  082B               	movf	MPU6050_Read@retval+1,w
  8301  12AA  00A7               	movwf	?_MPU6050_Read+1
  8302  12AB  082A               	movf	MPU6050_Read@retval,w
  8303  12AC  00A6               	movwf	?_MPU6050_Read
  8304  12AD                     l305:
  8305  12AD  0008               	return
  8306  12AE                     __end_of_MPU6050_Read:
  8307                           
  8308                           	psect	text23
  8309  114B                     __ptext23:	
  8310 ;; *************** function _I2C_Write *****************
  8311 ;; Defined at:
  8312 ;;		line 83 in file "I2C.c"
  8313 ;; Parameters:    Size  Location     Type
  8314 ;;  Tvalue          1    wreg     unsigned char 
  8315 ;; Auto vars:     Size  Location     Type
  8316 ;;  Tvalue          1    3[BANK0 ] unsigned char 
  8317 ;; Return value:  Size  Location     Type
  8318 ;;                  1    wreg      void 
  8319 ;; Registers used:
  8320 ;;		wreg, status,2, status,0, pclath, cstack
  8321 ;; Tracked objects:
  8322 ;;		On entry : 0/0
  8323 ;;		On exit  : 0/0
  8324 ;;		Unchanged: 0/0
  8325 ;; Data sizes:     COMMON   BANK0   BANK1   BANK3   BANK2
  8326 ;;      Params:         0       0       0       0       0
  8327 ;;      Locals:         0       1       0       0       0
  8328 ;;      Temps:          0       0       0       0       0
  8329 ;;      Totals:         0       1       0       0       0
  8330 ;;Total ram usage:        1 bytes
  8331 ;; Hardware stack levels used: 1
  8332 ;; Hardware stack levels required when called: 5
  8333 ;; This function calls:
  8334 ;;		_I2C_Idle
  8335 ;; This function is called by:
  8336 ;;		_MPU6050_Write
  8337 ;;		_MPU6050_Read
  8338 ;; This function uses a non-reentrant model
  8339 ;;
  8340                           
  8341                           
  8342                           ;psect for function _I2C_Write
  8343  114B                     _I2C_Write:
  8344                           
  8345                           ;incstack = 0
  8346                           ; Regs used in _I2C_Write: [wreg+status,2+status,0+pclath+cstack]
  8347                           ;I2C_Write@Tvalue stored from wreg
  8348  114B  1283               	bcf	3,5	;RP0=0, select bank0
  8349  114C  1303               	bcf	3,6	;RP1=0, select bank0
  8350  114D  00A3               	movwf	I2C_Write@Tvalue
  8351  114E                     l1985:
  8352                           
  8353                           ;I2C.c: 83: void I2C_Write(unsigned char Tvalue);I2C.c: 84: {;I2C.c: 86:     I2C_Idle();
  8354  114E  120A  158A  2011  160A  118A  	fcall	_I2C_Idle
  8355  1153                     l1987:
  8356                           
  8357                           ;I2C.c: 88:     SSPCONbits.WCOL = 0;
  8358  1153  1283               	bcf	3,5	;RP0=0, select bank0
  8359  1154  1303               	bcf	3,6	;RP1=0, select bank0
  8360  1155  1394               	bcf	20,7	;volatile
  8361  1156                     l1989:
  8362                           
  8363                           ;I2C.c: 90:     SSPBUF = Tvalue;
  8364  1156  0823               	movf	I2C_Write@Tvalue,w
  8365  1157  0093               	movwf	19	;volatile
  8366  1158                     l1991:
  8367                           
  8368                           ;I2C.c: 92:     PIR1bits.SSPIF = 0;
  8369  1158  118C               	bcf	12,3	;volatile
  8370  1159                     l222:	
  8371                           ;I2C.c: 94:     while(PIR1bits.SSPIF == 0);
  8372                           
  8373  1159  1D8C               	btfss	12,3	;volatile
  8374  115A  295C               	goto	u2281
  8375  115B  295D               	goto	u2280
  8376  115C                     u2281:
  8377  115C  2959               	goto	l222
  8378  115D                     u2280:
  8379  115D                     l224:
  8380                           
  8381                           ;I2C.c: 96:     if(SSPCON2bits.ACKSTAT == 1)
  8382  115D  1683               	bsf	3,5	;RP0=1, select bank1
  8383  115E  1303               	bcf	3,6	;RP1=0, select bank1
  8384  115F  1F11               	btfss	17,6	;volatile
  8385  1160  2962               	goto	u2291
  8386  1161  2963               	goto	u2290
  8387  1162                     u2291:
  8388  1162  2966               	goto	l226
  8389  1163                     u2290:
  8390  1163                     l1993:
  8391                           
  8392                           ;I2C.c: 97:     {;I2C.c: 98:         PIR1bits.SSPIF = 0;
  8393  1163  1283               	bcf	3,5	;RP0=0, select bank0
  8394  1164  1303               	bcf	3,6	;RP1=0, select bank0
  8395  1165  118C               	bcf	12,3	;volatile
  8396  1166                     l226:
  8397  1166  0008               	return
  8398  1167                     __end_of_I2C_Write:
  8399                           
  8400                           	psect	text24
  8401  1106                     __ptext24:	
  8402 ;; *************** function _I2C_Stop *****************
  8403 ;; Defined at:
  8404 ;;		line 46 in file "I2C.c"
  8405 ;; Parameters:    Size  Location     Type
  8406 ;;		None
  8407 ;; Auto vars:     Size  Location     Type
  8408 ;;		None
  8409 ;; Return value:  Size  Location     Type
  8410 ;;                  1    wreg      void 
  8411 ;; Registers used:
  8412 ;;		wreg, status,2, status,0, pclath, cstack
  8413 ;; Tracked objects:
  8414 ;;		On entry : 0/0
  8415 ;;		On exit  : 0/0
  8416 ;;		Unchanged: 0/0
  8417 ;; Data sizes:     COMMON   BANK0   BANK1   BANK3   BANK2
  8418 ;;      Params:         0       0       0       0       0
  8419 ;;      Locals:         0       0       0       0       0
  8420 ;;      Temps:          0       0       0       0       0
  8421 ;;      Totals:         0       0       0       0       0
  8422 ;;Total ram usage:        0 bytes
  8423 ;; Hardware stack levels used: 1
  8424 ;; Hardware stack levels required when called: 5
  8425 ;; This function calls:
  8426 ;;		_I2C_Idle
  8427 ;; This function is called by:
  8428 ;;		_MPU6050_Write
  8429 ;;		_MPU6050_Read
  8430 ;; This function uses a non-reentrant model
  8431 ;;
  8432                           
  8433                           
  8434                           ;psect for function _I2C_Stop
  8435  1106                     _I2C_Stop:
  8436  1106                     l1957:	
  8437                           ;incstack = 0
  8438                           ; Regs used in _I2C_Stop: [wreg+status,2+status,0+pclath+cstack]
  8439                           
  8440                           
  8441                           ;I2C.c: 48:     I2C_Idle();
  8442  1106  120A  158A  2011  160A  118A  	fcall	_I2C_Idle
  8443  110B                     l1959:
  8444                           
  8445                           ;I2C.c: 49:     SSPCON2bits.PEN = 1;
  8446  110B  1683               	bsf	3,5	;RP0=1, select bank1
  8447  110C  1303               	bcf	3,6	;RP1=0, select bank1
  8448  110D  1511               	bsf	17,2	;volatile
  8449  110E                     l206:	
  8450                           ;I2C.c: 50:     while(SSPCON2bits.PEN);
  8451                           
  8452  110E  1911               	btfsc	17,2	;volatile
  8453  110F  2911               	goto	u2241
  8454  1110  2912               	goto	u2240
  8455  1111                     u2241:
  8456  1111  290E               	goto	l206
  8457  1112                     u2240:
  8458  1112                     l209:
  8459  1112  0008               	return
  8460  1113                     __end_of_I2C_Stop:
  8461                           
  8462                           	psect	text25
  8463  10F9                     __ptext25:	
  8464 ;; *************** function _I2C_Start *****************
  8465 ;; Defined at:
  8466 ;;		line 32 in file "I2C.c"
  8467 ;; Parameters:    Size  Location     Type
  8468 ;;		None
  8469 ;; Auto vars:     Size  Location     Type
  8470 ;;		None
  8471 ;; Return value:  Size  Location     Type
  8472 ;;                  1    wreg      void 
  8473 ;; Registers used:
  8474 ;;		wreg, status,2, status,0, pclath, cstack
  8475 ;; Tracked objects:
  8476 ;;		On entry : 0/0
  8477 ;;		On exit  : 0/0
  8478 ;;		Unchanged: 0/0
  8479 ;; Data sizes:     COMMON   BANK0   BANK1   BANK3   BANK2
  8480 ;;      Params:         0       0       0       0       0
  8481 ;;      Locals:         0       0       0       0       0
  8482 ;;      Temps:          0       0       0       0       0
  8483 ;;      Totals:         0       0       0       0       0
  8484 ;;Total ram usage:        0 bytes
  8485 ;; Hardware stack levels used: 1
  8486 ;; Hardware stack levels required when called: 5
  8487 ;; This function calls:
  8488 ;;		_I2C_Idle
  8489 ;; This function is called by:
  8490 ;;		_MPU6050_Write
  8491 ;;		_MPU6050_Read
  8492 ;; This function uses a non-reentrant model
  8493 ;;
  8494                           
  8495                           
  8496                           ;psect for function _I2C_Start
  8497  10F9                     _I2C_Start:
  8498  10F9                     l1953:	
  8499                           ;incstack = 0
  8500                           ; Regs used in _I2C_Start: [wreg+status,2+status,0+pclath+cstack]
  8501                           
  8502                           
  8503                           ;I2C.c: 34:     I2C_Idle();
  8504  10F9  120A  158A  2011  160A  118A  	fcall	_I2C_Idle
  8505  10FE                     l1955:
  8506                           
  8507                           ;I2C.c: 35:     SSPCON2bits.SEN = 1;
  8508  10FE  1683               	bsf	3,5	;RP0=1, select bank1
  8509  10FF  1303               	bcf	3,6	;RP1=0, select bank1
  8510  1100  1411               	bsf	17,0	;volatile
  8511  1101                     l194:	
  8512                           ;I2C.c: 36:     while(SSPCON2bits.SEN);
  8513                           
  8514  1101  1811               	btfsc	17,0	;volatile
  8515  1102  2904               	goto	u2231
  8516  1103  2905               	goto	u2230
  8517  1104                     u2231:
  8518  1104  2901               	goto	l194
  8519  1105                     u2230:
  8520  1105                     l197:
  8521  1105  0008               	return
  8522  1106                     __end_of_I2C_Start:
  8523                           
  8524                           	psect	text26
  8525  11D2                     __ptext26:	
  8526 ;; *************** function _I2C_Read *****************
  8527 ;; Defined at:
  8528 ;;		line 53 in file "I2C.c"
  8529 ;; Parameters:    Size  Location     Type
  8530 ;;  ACK             1    wreg     unsigned char 
  8531 ;; Auto vars:     Size  Location     Type
  8532 ;;  ACK             1    5[BANK0 ] unsigned char 
  8533 ;;  Rvalue          1    4[BANK0 ] unsigned char 
  8534 ;; Return value:  Size  Location     Type
  8535 ;;                  1    wreg      unsigned char 
  8536 ;; Registers used:
  8537 ;;		wreg, status,2, status,0, pclath, cstack
  8538 ;; Tracked objects:
  8539 ;;		On entry : 0/0
  8540 ;;		On exit  : 0/0
  8541 ;;		Unchanged: 0/0
  8542 ;; Data sizes:     COMMON   BANK0   BANK1   BANK3   BANK2
  8543 ;;      Params:         0       0       0       0       0
  8544 ;;      Locals:         0       2       0       0       0
  8545 ;;      Temps:          0       1       0       0       0
  8546 ;;      Totals:         0       3       0       0       0
  8547 ;;Total ram usage:        3 bytes
  8548 ;; Hardware stack levels used: 1
  8549 ;; Hardware stack levels required when called: 5
  8550 ;; This function calls:
  8551 ;;		_I2C_Idle
  8552 ;; This function is called by:
  8553 ;;		_MPU6050_Read
  8554 ;; This function uses a non-reentrant model
  8555 ;;
  8556                           
  8557                           
  8558                           ;psect for function _I2C_Read
  8559  11D2                     _I2C_Read:
  8560                           
  8561                           ;incstack = 0
  8562                           ; Regs used in _I2C_Read: [wreg+status,2+status,0+pclath+cstack]
  8563                           ;I2C_Read@ACK stored from wreg
  8564  11D2  1283               	bcf	3,5	;RP0=0, select bank0
  8565  11D3  1303               	bcf	3,6	;RP1=0, select bank0
  8566  11D4  00A5               	movwf	I2C_Read@ACK
  8567  11D5                     l1961:
  8568                           
  8569                           ;I2C.c: 53: unsigned char I2C_Read(unsigned char ACK);I2C.c: 54: {;I2C.c: 55:     unsign
      +                          ed char Rvalue;;I2C.c: 57:     I2C_Idle();
  8570  11D5  120A  158A  2011  160A  118A  	fcall	_I2C_Idle
  8571  11DA                     l1963:
  8572                           
  8573                           ;I2C.c: 59:     SSPCONbits.SSPOV = 0;
  8574  11DA  1283               	bcf	3,5	;RP0=0, select bank0
  8575  11DB  1303               	bcf	3,6	;RP1=0, select bank0
  8576  11DC  1314               	bcf	20,6	;volatile
  8577  11DD                     l1965:
  8578                           
  8579                           ;I2C.c: 60:     PIR1bits.SSPIF = 0;
  8580  11DD  118C               	bcf	12,3	;volatile
  8581  11DE                     l1967:
  8582                           
  8583                           ;I2C.c: 62:     SSPCON2bits.RCEN = 1;
  8584  11DE  1683               	bsf	3,5	;RP0=1, select bank1
  8585  11DF  1303               	bcf	3,6	;RP1=0, select bank1
  8586  11E0  1591               	bsf	17,3	;volatile
  8587  11E1                     l212:	
  8588                           ;I2C.c: 64:     while(SSPCON2bits.RCEN);
  8589                           
  8590  11E1  1991               	btfsc	17,3	;volatile
  8591  11E2  29E4               	goto	u2251
  8592  11E3  29E5               	goto	u2250
  8593  11E4                     u2251:
  8594  11E4  29E1               	goto	l212
  8595  11E5                     u2250:
  8596  11E5                     l1969:
  8597                           
  8598                           ;I2C.c: 66:     SSPCON2bits.ACKDT = ACK;
  8599  11E5  1283               	bcf	3,5	;RP0=0, select bank0
  8600  11E6  1303               	bcf	3,6	;RP1=0, select bank0
  8601  11E7  0C25               	rrf	I2C_Read@ACK,w
  8602  11E8  1683               	bsf	3,5	;RP0=1, select bank1
  8603  11E9  1303               	bcf	3,6	;RP1=0, select bank1
  8604  11EA  1C03               	skipc
  8605  11EB  1291               	bcf	17,5	;volatile
  8606  11EC  1803               	skipnc
  8607  11ED  1691               	bsf	17,5	;volatile
  8608  11EE                     l1971:
  8609                           
  8610                           ;I2C.c: 68:     SSPCON2bits.ACKEN = 1;
  8611  11EE  1611               	bsf	17,4	;volatile
  8612  11EF                     l1973:
  8613                           
  8614                           ;I2C.c: 70:     PIR1bits.SSPIF = 0;
  8615  11EF  1283               	bcf	3,5	;RP0=0, select bank0
  8616  11F0  1303               	bcf	3,6	;RP1=0, select bank0
  8617  11F1  118C               	bcf	12,3	;volatile
  8618  11F2                     l215:	
  8619                           ;I2C.c: 72:     while(PIR1bits.SSPIF == 0);
  8620                           
  8621  11F2  1D8C               	btfss	12,3	;volatile
  8622  11F3  29F5               	goto	u2261
  8623  11F4  29F6               	goto	u2260
  8624  11F5                     u2261:
  8625  11F5  29F2               	goto	l215
  8626  11F6                     u2260:
  8627  11F6                     l1975:
  8628                           
  8629                           ;I2C.c: 74:     Rvalue = SSPBUF;
  8630  11F6  0813               	movf	19,w	;volatile
  8631  11F7  00A3               	movwf	??_I2C_Read
  8632  11F8  0823               	movf	??_I2C_Read,w
  8633  11F9  00A4               	movwf	I2C_Read@Rvalue
  8634  11FA                     l1977:
  8635                           
  8636                           ;I2C.c: 76:     if(ACK == 1)
  8637  11FA  0325               	decf	I2C_Read@ACK,w
  8638  11FB  1D03               	btfss	3,2
  8639  11FC  29FE               	goto	u2271
  8640  11FD  29FF               	goto	u2270
  8641  11FE                     u2271:
  8642  11FE  2A00               	goto	l1981
  8643  11FF                     u2270:
  8644  11FF                     l1979:
  8645                           
  8646                           ;I2C.c: 77:     {;I2C.c: 78:         PIR1bits.SSPIF = 0;
  8647  11FF  118C               	bcf	12,3	;volatile
  8648  1200                     l1981:
  8649                           
  8650                           ;I2C.c: 80:     return Rvalue;
  8651  1200  0824               	movf	I2C_Read@Rvalue,w
  8652  1201                     l219:
  8653  1201  0008               	return
  8654  1202                     __end_of_I2C_Read:
  8655                           
  8656                           	psect	text27
  8657  0811                     __ptext27:	
  8658 ;; *************** function _I2C_Idle *****************
  8659 ;; Defined at:
  8660 ;;		line 23 in file "I2C.c"
  8661 ;; Parameters:    Size  Location     Type
  8662 ;;		None
  8663 ;; Auto vars:     Size  Location     Type
  8664 ;;		None
  8665 ;; Return value:  Size  Location     Type
  8666 ;;                  1    wreg      void 
  8667 ;; Registers used:
  8668 ;;		wreg, status,2, status,0
  8669 ;; Tracked objects:
  8670 ;;		On entry : 0/0
  8671 ;;		On exit  : 0/0
  8672 ;;		Unchanged: 0/0
  8673 ;; Data sizes:     COMMON   BANK0   BANK1   BANK3   BANK2
  8674 ;;      Params:         0       0       0       0       0
  8675 ;;      Locals:         0       0       0       0       0
  8676 ;;      Temps:          0       3       0       0       0
  8677 ;;      Totals:         0       3       0       0       0
  8678 ;;Total ram usage:        3 bytes
  8679 ;; Hardware stack levels used: 1
  8680 ;; Hardware stack levels required when called: 4
  8681 ;; This function calls:
  8682 ;;		Nothing
  8683 ;; This function is called by:
  8684 ;;		_I2C_Start
  8685 ;;		_I2C_Stop
  8686 ;;		_I2C_Read
  8687 ;;		_I2C_Write
  8688 ;;		_I2C_Restart
  8689 ;; This function uses a non-reentrant model
  8690 ;;
  8691                           
  8692                           
  8693                           ;psect for function _I2C_Idle
  8694  0811                     _I2C_Idle:
  8695  0811                     l1923:	
  8696                           ;incstack = 0
  8697                           ; Regs used in _I2C_Idle: [wreg+status,2+status,0]
  8698                           
  8699  0811                     l1925:	
  8700                           ;I2C.c: 25:     while(SSPSTATbits.R_W | SSPCON2bits.SEN);
  8701                           
  8702  0811  1683               	bsf	3,5	;RP0=1, select bank1
  8703  0812  1303               	bcf	3,6	;RP1=0, select bank1
  8704  0813  0811               	movf	17,w	;volatile
  8705  0814  3901               	andlw	1
  8706  0815  1283               	bcf	3,5	;RP0=0, select bank0
  8707  0816  1303               	bcf	3,6	;RP1=0, select bank0
  8708  0817  00A0               	movwf	??_I2C_Idle
  8709  0818  1683               	bsf	3,5	;RP0=1, select bank1
  8710  0819  1303               	bcf	3,6	;RP1=0, select bank1
  8711  081A  0C14               	rrf	20,w	;volatile
  8712  081B  1283               	bcf	3,5	;RP0=0, select bank0
  8713  081C  1303               	bcf	3,6	;RP1=0, select bank0
  8714  081D  00A1               	movwf	??_I2C_Idle+1
  8715  081E  0C21               	rrf	??_I2C_Idle+1,w
  8716  081F  3901               	andlw	1
  8717  0820  0420               	iorwf	??_I2C_Idle,w
  8718  0821  1D03               	btfss	3,2
  8719  0822  2824               	goto	u2141
  8720  0823  2825               	goto	u2140
  8721  0824                     u2141:
  8722  0824  2811               	goto	l1925
  8723  0825                     u2140:
  8724  0825                     l1927:
  8725  0825  1683               	bsf	3,5	;RP0=1, select bank1
  8726  0826  1303               	bcf	3,6	;RP1=0, select bank1
  8727  0827  0C11               	rrf	17,w	;volatile
  8728  0828  3901               	andlw	1
  8729  0829  1283               	bcf	3,5	;RP0=0, select bank0
  8730  082A  1303               	bcf	3,6	;RP1=0, select bank0
  8731  082B  00A0               	movwf	??_I2C_Idle
  8732  082C  1683               	bsf	3,5	;RP0=1, select bank1
  8733  082D  1303               	bcf	3,6	;RP1=0, select bank1
  8734  082E  0C14               	rrf	20,w	;volatile
  8735  082F  1283               	bcf	3,5	;RP0=0, select bank0
  8736  0830  1303               	bcf	3,6	;RP1=0, select bank0
  8737  0831  00A1               	movwf	??_I2C_Idle+1
  8738  0832  0C21               	rrf	??_I2C_Idle+1,w
  8739  0833  3901               	andlw	1
  8740  0834  0420               	iorwf	??_I2C_Idle,w
  8741  0835  1D03               	btfss	3,2
  8742  0836  2838               	goto	u2151
  8743  0837  2839               	goto	u2150
  8744  0838                     u2151:
  8745  0838  2825               	goto	l1927
  8746  0839                     u2150:
  8747  0839                     l1929:
  8748  0839  1683               	bsf	3,5	;RP0=1, select bank1
  8749  083A  1303               	bcf	3,6	;RP1=0, select bank1
  8750  083B  0C11               	rrf	17,w	;volatile
  8751  083C  1283               	bcf	3,5	;RP0=0, select bank0
  8752  083D  1303               	bcf	3,6	;RP1=0, select bank0
  8753  083E  00A0               	movwf	??_I2C_Idle
  8754  083F  0C20               	rrf	??_I2C_Idle,w
  8755  0840  3901               	andlw	1
  8756  0841  00A1               	movwf	??_I2C_Idle+1
  8757  0842  1683               	bsf	3,5	;RP0=1, select bank1
  8758  0843  1303               	bcf	3,6	;RP1=0, select bank1
  8759  0844  0C14               	rrf	20,w	;volatile
  8760  0845  1283               	bcf	3,5	;RP0=0, select bank0
  8761  0846  1303               	bcf	3,6	;RP1=0, select bank0
  8762  0847  00A2               	movwf	??_I2C_Idle+2
  8763  0848  0C22               	rrf	??_I2C_Idle+2,w
  8764  0849  3901               	andlw	1
  8765  084A  0421               	iorwf	??_I2C_Idle+1,w
  8766  084B  1D03               	btfss	3,2
  8767  084C  284E               	goto	u2161
  8768  084D  284F               	goto	u2160
  8769  084E                     u2161:
  8770  084E  2839               	goto	l1929
  8771  084F                     u2160:
  8772  084F                     l1931:
  8773  084F  1683               	bsf	3,5	;RP0=1, select bank1
  8774  0850  1303               	bcf	3,6	;RP1=0, select bank1
  8775  0851  0C11               	rrf	17,w	;volatile
  8776  0852  1283               	bcf	3,5	;RP0=0, select bank0
  8777  0853  1303               	bcf	3,6	;RP1=0, select bank0
  8778  0854  00A0               	movwf	??_I2C_Idle
  8779  0855  0CA0               	rrf	??_I2C_Idle,f
  8780  0856  0C20               	rrf	??_I2C_Idle,w
  8781  0857  3901               	andlw	1
  8782  0858  00A1               	movwf	??_I2C_Idle+1
  8783  0859  1683               	bsf	3,5	;RP0=1, select bank1
  8784  085A  1303               	bcf	3,6	;RP1=0, select bank1
  8785  085B  0C14               	rrf	20,w	;volatile
  8786  085C  1283               	bcf	3,5	;RP0=0, select bank0
  8787  085D  1303               	bcf	3,6	;RP1=0, select bank0
  8788  085E  00A2               	movwf	??_I2C_Idle+2
  8789  085F  0C22               	rrf	??_I2C_Idle+2,w
  8790  0860  3901               	andlw	1
  8791  0861  0421               	iorwf	??_I2C_Idle+1,w
  8792  0862  1D03               	btfss	3,2
  8793  0863  2865               	goto	u2171
  8794  0864  2866               	goto	u2170
  8795  0865                     u2171:
  8796  0865  284F               	goto	l1931
  8797  0866                     u2170:
  8798  0866                     l1933:
  8799  0866  1683               	bsf	3,5	;RP0=1, select bank1
  8800  0867  1303               	bcf	3,6	;RP1=0, select bank1
  8801  0868  0E11               	swapf	17,w	;volatile
  8802  0869  3901               	andlw	1
  8803  086A  1283               	bcf	3,5	;RP0=0, select bank0
  8804  086B  1303               	bcf	3,6	;RP1=0, select bank0
  8805  086C  00A0               	movwf	??_I2C_Idle
  8806  086D  1683               	bsf	3,5	;RP0=1, select bank1
  8807  086E  1303               	bcf	3,6	;RP1=0, select bank1
  8808  086F  0C14               	rrf	20,w	;volatile
  8809  0870  1283               	bcf	3,5	;RP0=0, select bank0
  8810  0871  1303               	bcf	3,6	;RP1=0, select bank0
  8811  0872  00A1               	movwf	??_I2C_Idle+1
  8812  0873  0C21               	rrf	??_I2C_Idle+1,w
  8813  0874  3901               	andlw	1
  8814  0875  0420               	iorwf	??_I2C_Idle,w
  8815  0876  1D03               	btfss	3,2
  8816  0877  2879               	goto	u2181
  8817  0878  287A               	goto	u2180
  8818  0879                     u2181:
  8819  0879  2866               	goto	l1933
  8820  087A                     u2180:
  8821  087A                     l191:
  8822  087A  0008               	return
  8823  087B                     __end_of_I2C_Idle:
  8824                           
  8825                           	psect	text28
  8826  1237                     __ptext28:	
  8827 ;; *************** function _isr1 *****************
  8828 ;; Defined at:
  8829 ;;		line 66 in file "UART.c"
  8830 ;; Parameters:    Size  Location     Type
  8831 ;;		None
  8832 ;; Auto vars:     Size  Location     Type
  8833 ;;  ReceivedData    1    9[COMMON] unsigned char 
  8834 ;; Return value:  Size  Location     Type
  8835 ;;                  1    wreg      void 
  8836 ;; Registers used:
  8837 ;;		wreg, fsr0l, fsr0h, status,2, status,0, pclath, cstack
  8838 ;; Tracked objects:
  8839 ;;		On entry : 0/0
  8840 ;;		On exit  : 0/0
  8841 ;;		Unchanged: 0/0
  8842 ;; Data sizes:     COMMON   BANK0   BANK1   BANK3   BANK2
  8843 ;;      Params:         0       0       0       0       0
  8844 ;;      Locals:         1       0       0       0       0
  8845 ;;      Temps:          4       0       0       0       0
  8846 ;;      Totals:         5       0       0       0       0
  8847 ;;Total ram usage:        5 bytes
  8848 ;; Hardware stack levels used: 1
  8849 ;; Hardware stack levels required when called: 3
  8850 ;; This function calls:
  8851 ;;		_ClearRX_Buffer
  8852 ;;		_HandleData
  8853 ;; This function is called by:
  8854 ;;		Interrupt level 1
  8855 ;; This function uses a non-reentrant model
  8856 ;;
  8857                           
  8858                           
  8859                           ;psect for function _isr1
  8860  1237                     _isr1:
  8861  1237                     i1l2885:
  8862                           
  8863                           ;UART.c: 68:     if(RCIE)
  8864  1237  1683               	bsf	3,5	;RP0=1, select bank1
  8865  1238  1303               	bcf	3,6	;RP1=0, select bank1
  8866  1239  1E8C               	btfss	12,5	;volatile
  8867  123A  2A3C               	goto	u420_21
  8868  123B  2A3D               	goto	u420_20
  8869  123C                     u420_21:
  8870  123C  2A65               	goto	i1l152
  8871  123D                     u420_20:
  8872  123D                     i1l2887:
  8873                           
  8874                           ;UART.c: 69:     {;UART.c: 70:         if(RCIF)
  8875  123D  1283               	bcf	3,5	;RP0=0, select bank0
  8876  123E  1303               	bcf	3,6	;RP1=0, select bank0
  8877  123F  1E8C               	btfss	12,5	;volatile
  8878  1240  2A42               	goto	u421_21
  8879  1241  2A43               	goto	u421_20
  8880  1242                     u421_21:
  8881  1242  2A65               	goto	i1l152
  8882  1243                     u421_20:
  8883  1243                     i1l2889:
  8884                           
  8885                           ;UART.c: 71:         {;UART.c: 72:             char ReceivedData;;UART.c: 73:           
      +                            ReceivedData = RCREG;
  8886  1243  081A               	movf	26,w	;volatile
  8887  1244  00F5               	movwf	??_isr1
  8888  1245  0875               	movf	??_isr1,w
  8889  1246  00F9               	movwf	isr1@ReceivedData
  8890  1247                     i1l2891:
  8891                           
  8892                           ;UART.c: 74:             if(ReceivedData != '\n')
  8893  1247  300A               	movlw	10
  8894  1248  0679               	xorwf	isr1@ReceivedData,w
  8895  1249  1903               	btfsc	3,2
  8896  124A  2A4C               	goto	u422_21
  8897  124B  2A4D               	goto	u422_20
  8898  124C                     u422_21:
  8899  124C  2A5A               	goto	i1l2897
  8900  124D                     u422_20:
  8901  124D                     i1l2893:
  8902                           
  8903                           ;UART.c: 75:             {;UART.c: 76:                 RX_Buffer[rx_index++] = RCREG;
  8904  124D  081A               	movf	26,w	;volatile
  8905  124E  00F5               	movwf	??_isr1
  8906  124F  087C               	movf	_rx_index,w
  8907  1250  3E9A               	addlw	(low (_RX_Buffer| (0+256)))& (0+255)
  8908  1251  0084               	movwf	4
  8909  1252  0875               	movf	??_isr1,w
  8910  1253  1783               	bsf	3,7	;select IRP bank3
  8911  1254  0080               	movwf	0
  8912  1255                     i1l2895:
  8913  1255  3001               	movlw	1
  8914  1256  00F5               	movwf	??_isr1
  8915  1257  0875               	movf	??_isr1,w
  8916  1258  07FC               	addwf	_rx_index,f
  8917                           
  8918                           ;UART.c: 77:             }
  8919  1259  2A65               	goto	i1l152
  8920  125A                     i1l2897:
  8921                           
  8922                           ;UART.c: 79:             {;UART.c: 80:                 HandleData(RX_Buffer);
  8923  125A  309A               	movlw	(low (_RX_Buffer| (0+256)))& (0+255)
  8924  125B  160A  118A  20D5  160A  118A  	fcall	_HandleData
  8925                           
  8926                           ;UART.c: 81:                 ClearRX_Buffer();
  8927  1260  160A  118A  2113  160A  118A  	fcall	_ClearRX_Buffer
  8928  1265                     i1l152:
  8929  1265  0878               	movf	??_isr1+3,w
  8930  1266  008A               	movwf	10
  8931  1267  0877               	movf	??_isr1+2,w
  8932  1268  0084               	movwf	4
  8933  1269  0E76               	swapf	??_isr1+1,w
  8934  126A  0083               	movwf	3
  8935  126B  0EFE               	swapf	btemp,f
  8936  126C  0E7E               	swapf	btemp,w
  8937  126D  0009               	retfie
  8938  126E                     __end_of_isr1:
  8939                           
  8940                           	psect	intentry
  8941  0004                     __pintentry:	
  8942                           ;incstack = 0
  8943                           ; Regs used in _isr1: [wreg-fsr0h+status,2+status,0+pclath+cstack]
  8944                           
  8945  0004                     interrupt_function:
  8946  007E                     saved_w	set	btemp
  8947  0004  00FE               	movwf	btemp
  8948  0005  0E03               	swapf	3,w
  8949  0006  00F6               	movwf	??_isr1+1
  8950  0007  0804               	movf	4,w
  8951  0008  00F7               	movwf	??_isr1+2
  8952  0009  080A               	movf	10,w
  8953  000A  00F8               	movwf	??_isr1+3
  8954  000B  160A  118A  2A37   	ljmp	_isr1
  8955                           
  8956                           	psect	text29
  8957  10D5                     __ptext29:	
  8958 ;; *************** function _HandleData *****************
  8959 ;; Defined at:
  8960 ;;		line 53 in file "UART.c"
  8961 ;; Parameters:    Size  Location     Type
  8962 ;;  RX              1    wreg     PTR unsigned char 
  8963 ;;		 -> RX_Buffer(10), 
  8964 ;; Auto vars:     Size  Location     Type
  8965 ;;  RX              1    4[COMMON] PTR unsigned char 
  8966 ;;		 -> RX_Buffer(10), 
  8967 ;; Return value:  Size  Location     Type
  8968 ;;                  1    wreg      void 
  8969 ;; Registers used:
  8970 ;;		wreg, fsr0l, fsr0h, status,2, status,0, pclath, cstack
  8971 ;; Tracked objects:
  8972 ;;		On entry : 0/0
  8973 ;;		On exit  : 0/0
  8974 ;;		Unchanged: 0/0
  8975 ;; Data sizes:     COMMON   BANK0   BANK1   BANK3   BANK2
  8976 ;;      Params:         0       0       0       0       0
  8977 ;;      Locals:         1       0       0       0       0
  8978 ;;      Temps:          0       0       0       0       0
  8979 ;;      Totals:         1       0       0       0       0
  8980 ;;Total ram usage:        1 bytes
  8981 ;; Hardware stack levels used: 1
  8982 ;; Hardware stack levels required when called: 2
  8983 ;; This function calls:
  8984 ;;		_UART_Transmit_Text
  8985 ;; This function is called by:
  8986 ;;		_isr1
  8987 ;;		_UART_Receive
  8988 ;; This function uses a non-reentrant model
  8989 ;;
  8990                           
  8991                           
  8992                           ;psect for function _HandleData
  8993  10D5                     _HandleData:
  8994                           
  8995                           ;incstack = 0
  8996                           ; Regs used in _HandleData: [wreg-fsr0h+status,2+status,0+pclath+cstack]
  8997                           ;HandleData@RX stored from wreg
  8998  10D5  00F4               	movwf	HandleData@RX
  8999  10D6                     i1l2605:
  9000                           
  9001                           ;UART.c: 53: void HandleData(char *RX);UART.c: 54: {;UART.c: 55:     UART_Transmit_Text(
      +                          RX);
  9002  10D6  0874               	movf	HandleData@RX,w
  9003  10D7  160A  118A  2167  160A  118A  	fcall	_UART_Transmit_Text
  9004  10DC                     i1l138:
  9005  10DC  0008               	return
  9006  10DD                     __end_of_HandleData:
  9007                           
  9008                           	psect	text30
  9009  1167                     __ptext30:	
  9010 ;; *************** function _UART_Transmit_Text *****************
  9011 ;; Defined at:
  9012 ;;		line 27 in file "UART.c"
  9013 ;; Parameters:    Size  Location     Type
  9014 ;;  str             1    wreg     PTR unsigned char 
  9015 ;;		 -> RX_Buffer(10), 
  9016 ;; Auto vars:     Size  Location     Type
  9017 ;;  str             1    2[COMMON] PTR unsigned char 
  9018 ;;		 -> RX_Buffer(10), 
  9019 ;;  i               1    3[COMMON] unsigned char 
  9020 ;; Return value:  Size  Location     Type
  9021 ;;                  1    wreg      void 
  9022 ;; Registers used:
  9023 ;;		wreg, fsr0l, fsr0h, status,2, status,0, pclath, cstack
  9024 ;; Tracked objects:
  9025 ;;		On entry : 0/0
  9026 ;;		On exit  : 0/0
  9027 ;;		Unchanged: 0/0
  9028 ;; Data sizes:     COMMON   BANK0   BANK1   BANK3   BANK2
  9029 ;;      Params:         0       0       0       0       0
  9030 ;;      Locals:         2       0       0       0       0
  9031 ;;      Temps:          1       0       0       0       0
  9032 ;;      Totals:         3       0       0       0       0
  9033 ;;Total ram usage:        3 bytes
  9034 ;; Hardware stack levels used: 1
  9035 ;; Hardware stack levels required when called: 1
  9036 ;; This function calls:
  9037 ;;		_UART_Transmit
  9038 ;; This function is called by:
  9039 ;;		_HandleData
  9040 ;; This function uses a non-reentrant model
  9041 ;;
  9042                           
  9043                           
  9044                           ;psect for function _UART_Transmit_Text
  9045  1167                     _UART_Transmit_Text:
  9046                           
  9047                           ;incstack = 0
  9048                           ; Regs used in _UART_Transmit_Text: [wreg-fsr0h+status,2+status,0+pclath+cstack]
  9049                           ;UART_Transmit_Text@str stored from wreg
  9050  1167  00F2               	movwf	UART_Transmit_Text@str
  9051  1168                     i1l2423:
  9052                           
  9053                           ;UART.c: 27: void UART_Transmit_Text(char *str);UART.c: 28: {;UART.c: 29:     unsigned c
      +                          har i=0;
  9054  1168  01F3               	clrf	UART_Transmit_Text@i
  9055                           
  9056                           ;UART.c: 30:     while(str[i] != 0)
  9057  1169  2979               	goto	i1l2429
  9058  116A                     i1l2425:
  9059                           
  9060                           ;UART.c: 31:     {;UART.c: 32:         UART_Transmit(str[i]);
  9061  116A  0873               	movf	UART_Transmit_Text@i,w
  9062  116B  0772               	addwf	UART_Transmit_Text@str,w
  9063  116C  00F1               	movwf	??_UART_Transmit_Text
  9064  116D  0871               	movf	??_UART_Transmit_Text,w
  9065  116E  0084               	movwf	4
  9066  116F  0800               	movf	0,w
  9067  1170  160A  118A  20ED  160A  118A  	fcall	_UART_Transmit
  9068  1175                     i1l2427:
  9069                           
  9070                           ;UART.c: 33:         i++;
  9071  1175  3001               	movlw	1
  9072  1176  00F1               	movwf	??_UART_Transmit_Text
  9073  1177  0871               	movf	??_UART_Transmit_Text,w
  9074  1178  07F3               	addwf	UART_Transmit_Text@i,f
  9075  1179                     i1l2429:
  9076                           
  9077                           ;UART.c: 30:     while(str[i] != 0)
  9078  1179  0873               	movf	UART_Transmit_Text@i,w
  9079  117A  0772               	addwf	UART_Transmit_Text@str,w
  9080  117B  00F1               	movwf	??_UART_Transmit_Text
  9081  117C  0871               	movf	??_UART_Transmit_Text,w
  9082  117D  0084               	movwf	4
  9083  117E  1783               	bsf	3,7	;select IRP bank2
  9084  117F  0800               	movf	0,w
  9085  1180  1D03               	btfss	3,2
  9086  1181  2983               	goto	u339_21
  9087  1182  2984               	goto	u339_20
  9088  1183                     u339_21:
  9089  1183  296A               	goto	i1l2425
  9090  1184                     u339_20:
  9091  1184                     i1l129:
  9092  1184  0008               	return
  9093  1185                     __end_of_UART_Transmit_Text:
  9094                           
  9095                           	psect	text31
  9096  10ED                     __ptext31:	
  9097 ;; *************** function _UART_Transmit *****************
  9098 ;; Defined at:
  9099 ;;		line 22 in file "UART.c"
  9100 ;; Parameters:    Size  Location     Type
  9101 ;;  c               1    wreg     unsigned char 
  9102 ;; Auto vars:     Size  Location     Type
  9103 ;;  c               1    0[COMMON] unsigned char 
  9104 ;; Return value:  Size  Location     Type
  9105 ;;                  1    wreg      void 
  9106 ;; Registers used:
  9107 ;;		wreg
  9108 ;; Tracked objects:
  9109 ;;		On entry : 0/0
  9110 ;;		On exit  : 0/0
  9111 ;;		Unchanged: 0/0
  9112 ;; Data sizes:     COMMON   BANK0   BANK1   BANK3   BANK2
  9113 ;;      Params:         0       0       0       0       0
  9114 ;;      Locals:         1       0       0       0       0
  9115 ;;      Temps:          0       0       0       0       0
  9116 ;;      Totals:         1       0       0       0       0
  9117 ;;Total ram usage:        1 bytes
  9118 ;; Hardware stack levels used: 1
  9119 ;; This function calls:
  9120 ;;		Nothing
  9121 ;; This function is called by:
  9122 ;;		_UART_Transmit_Text
  9123 ;; This function uses a non-reentrant model
  9124 ;;
  9125                           
  9126                           
  9127                           ;psect for function _UART_Transmit
  9128  10ED                     _UART_Transmit:
  9129                           
  9130                           ;incstack = 0
  9131                           ; Regs used in _UART_Transmit: [wreg]
  9132                           ;UART_Transmit@c stored from wreg
  9133  10ED  00F0               	movwf	UART_Transmit@c
  9134  10EE                     i1l1949:
  9135  10EE                     i1l120:	
  9136                           ;UART.c: 22: void UART_Transmit(char c);UART.c: 23: {;UART.c: 24:     while(!TRMT);
  9137                           
  9138  10EE  1683               	bsf	3,5	;RP0=1, select bank1
  9139  10EF  1303               	bcf	3,6	;RP1=0, select bank1
  9140  10F0  1C98               	btfss	24,1	;volatile
  9141  10F1  28F3               	goto	u222_21
  9142  10F2  28F4               	goto	u222_20
  9143  10F3                     u222_21:
  9144  10F3  28EE               	goto	i1l120
  9145  10F4                     u222_20:
  9146  10F4                     i1l1951:
  9147                           
  9148                           ;UART.c: 25:     TXREG = c;
  9149  10F4  0870               	movf	UART_Transmit@c,w
  9150  10F5  1283               	bcf	3,5	;RP0=0, select bank0
  9151  10F6  1303               	bcf	3,6	;RP1=0, select bank0
  9152  10F7  0099               	movwf	25	;volatile
  9153  10F8                     i1l123:
  9154  10F8  0008               	return
  9155  10F9                     __end_of_UART_Transmit:
  9156                           
  9157                           	psect	text32
  9158  1113                     __ptext32:	
  9159 ;; *************** function _ClearRX_Buffer *****************
  9160 ;; Defined at:
  9161 ;;		line 57 in file "UART.c"
  9162 ;; Parameters:    Size  Location     Type
  9163 ;;		None
  9164 ;; Auto vars:     Size  Location     Type
  9165 ;;  i               1    1[COMMON] unsigned char 
  9166 ;; Return value:  Size  Location     Type
  9167 ;;                  1    wreg      void 
  9168 ;; Registers used:
  9169 ;;		wreg, fsr0l, fsr0h, status,2, status,0
  9170 ;; Tracked objects:
  9171 ;;		On entry : 0/0
  9172 ;;		On exit  : 0/0
  9173 ;;		Unchanged: 0/0
  9174 ;; Data sizes:     COMMON   BANK0   BANK1   BANK3   BANK2
  9175 ;;      Params:         0       0       0       0       0
  9176 ;;      Locals:         1       0       0       0       0
  9177 ;;      Temps:          1       0       0       0       0
  9178 ;;      Totals:         2       0       0       0       0
  9179 ;;Total ram usage:        2 bytes
  9180 ;; Hardware stack levels used: 1
  9181 ;; This function calls:
  9182 ;;		Nothing
  9183 ;; This function is called by:
  9184 ;;		_isr1
  9185 ;;		_UART_Receive
  9186 ;; This function uses a non-reentrant model
  9187 ;;
  9188                           
  9189                           
  9190                           ;psect for function _ClearRX_Buffer
  9191  1113                     _ClearRX_Buffer:
  9192  1113                     i1l2607:	
  9193                           ;incstack = 0
  9194                           ; Regs used in _ClearRX_Buffer: [wreg-fsr0h+status,2+status,0]
  9195                           
  9196                           
  9197                           ;UART.c: 59:  char i;;UART.c: 60:  for(i = 0; i < 10; i++)
  9198  1113  01F1               	clrf	ClearRX_Buffer@i
  9199  1114                     i1l2613:
  9200                           
  9201                           ;UART.c: 61:  {;UART.c: 62:   RX_Buffer[i] = 0;
  9202  1114  0871               	movf	ClearRX_Buffer@i,w
  9203  1115  3E9A               	addlw	(low (_RX_Buffer| (0+256)))& (0+255)
  9204  1116  0084               	movwf	4
  9205  1117  1783               	bsf	3,7	;select IRP bank3
  9206  1118  0180               	clrf	0
  9207  1119                     i1l2615:
  9208                           
  9209                           ;UART.c: 63:  }
  9210  1119  3001               	movlw	1
  9211  111A  00F0               	movwf	??_ClearRX_Buffer
  9212  111B  0870               	movf	??_ClearRX_Buffer,w
  9213  111C  07F1               	addwf	ClearRX_Buffer@i,f
  9214  111D                     i1l2617:
  9215  111D  300A               	movlw	10
  9216  111E  0271               	subwf	ClearRX_Buffer@i,w
  9217  111F  1C03               	skipc
  9218  1120  2922               	goto	u367_21
  9219  1121  2923               	goto	u367_20
  9220  1122                     u367_21:
  9221  1122  2914               	goto	i1l2613
  9222  1123                     u367_20:
  9223  1123                     i1l2619:
  9224                           
  9225                           ;UART.c: 64:  rx_index = 0;
  9226  1123  01FC               	clrf	_rx_index
  9227  1124                     i1l143:
  9228  1124  0008               	return
  9229  1125                     __end_of_ClearRX_Buffer:
  9230  007E                     btemp	set	126	;btemp
  9231  007E                     wtemp0	set	126
  9232                           
  9233                           	psect	config
  9234                           
  9235                           ;Config register CONFIG @ 0x2007
  9236                           ;	Oscillator Selection bits
  9237                           ;	FOSC = HS, HS oscillator
  9238                           ;	Watchdog Timer Enable bit
  9239                           ;	WDTE = OFF, WDT disabled
  9240                           ;	Power-up Timer Enable bit
  9241                           ;	PWRTE = OFF, PWRT disabled
  9242                           ;	Brown-out Reset Enable bit
  9243                           ;	BOREN = OFF, BOR disabled
  9244                           ;	Low-Voltage (Single-Supply) In-Circuit Serial Programming Enable bit
  9245                           ;	LVP = OFF, RB3 is digital I/O, HV on MCLR must be used for programming
  9246                           ;	Data EEPROM Memory Code Protection bit
  9247                           ;	CPD = OFF, Data EEPROM code protection off
  9248                           ;	Flash Program Memory Write Enable bits
  9249                           ;	WRT = OFF, Write protection off; all program memory may be written to by EECON control
  9250                           ;	In-Circuit Debugger Mode bit
  9251                           ;	DEBUG = 0x1, unprogrammed default
  9252                           ;	Flash Program Memory Code Protection bit
  9253                           ;	CP = OFF, Code protection off
  9254  2007                     	org	8199
  9255  2007  3F3A               	dw	16186

Data Sizes:
    Strings     0
    Constant    0
    Data        12
    BSS         45
    Persistent  0
    Stack       0

Auto Spaces:
    Space          Size  Autos    Used
    COMMON           14     10      13
    BANK0            80     80      80
    BANK1            80     53      79
    BANK3            96      0      28
    BANK2            96      0       0

Pointer List with Targets:

    HandleData@RX	PTR unsigned char  size(1) Largest target is 10
		 -> RX_Buffer(BANK3[10]), 

    UART_Transmit_Text@str	PTR unsigned char  size(1) Largest target is 10
		 -> RX_Buffer(BANK3[10]), 


Critical Paths under _main in COMMON

    None.

Critical Paths under _isr1 in COMMON

    _isr1->_HandleData
    _HandleData->_UART_Transmit_Text
    _UART_Transmit_Text->_UART_Transmit

Critical Paths under _main in BANK0

    _main->___fladd
    ___flge->___xxtofl
    ___fladd->___flmul
    ___xxtofl->___aldiv
    ___fltol->___fladd
    ___flmul->___fldiv
    ___fldiv->___xxtofl
    _PWM2_Init->___aldiv
    _PWM1_Init->___aldiv
    _MPU6050_Init->_MPU6050_Write
    _MPU6050_Write->_I2C_Write
    _MPU6050_GetAngle->_MPU6050_Read
    _MPU6050_Read->_I2C_Read
    _I2C_Write->_I2C_Idle
    _I2C_Stop->_I2C_Idle
    _I2C_Start->_I2C_Idle
    _I2C_Read->_I2C_Idle

Critical Paths under _isr1 in BANK0

    None.

Critical Paths under _main in BANK1

    _main->_Speed_L
    _main->_Speed_R
    _main->_constrain
    _constrain->___fltol
    ___fladd->___flmul
    _Speed_R->_PWM2_Set_Duty
    _PWM2_Set_Duty->___fltol
    _Speed_L->_PWM1_Set_Duty
    _PWM1_Set_Duty->___fltol
    ___fltol->___fladd

Critical Paths under _isr1 in BANK1

    None.

Critical Paths under _main in BANK3

    None.

Critical Paths under _isr1 in BANK3

    None.

Critical Paths under _main in BANK2

    None.

Critical Paths under _isr1 in BANK2

    None.

Call Graph Tables:

 ---------------------------------------------------------------------------------
 (Depth) Function   	        Calls       Base Space   Used Autos Params    Refs
 ---------------------------------------------------------------------------------
 (0) _main                                                13    13      0   31592
                                             40 BANK1     13    13      0
                   _MPU6050_GetAngle
                       _MPU6050_Init
                          _PWM1_Init
                          _PWM2_Init
                            _Speed_L
                            _Speed_R
                            ___fladd
                            ___flmul
                            ___fltol
                           ___xxtofl
                          _constrain
 ---------------------------------------------------------------------------------
 (1) _constrain                                            8     0      8    3091
                                             32 BANK1      8     0      8
                             ___flge
                            ___fltol
                           ___xxtofl
 ---------------------------------------------------------------------------------
 (2) ___flge                                              12     4      8     486
                                             29 BANK0     12     4      8
                           ___xxtofl (ARG)
 ---------------------------------------------------------------------------------
 (1) ___fladd                                             20    12      8    2718
                                             68 BANK0     12     4      8
                                             13 BANK1      8     8      0
                            ___flmul (ARG)
                           ___xxtofl (ARG)
 ---------------------------------------------------------------------------------
 (1) _Speed_R                                              2     0      2    8486
                                             38 BANK1      2     0      2
                      _PWM2_Set_Duty
                                _abs
 ---------------------------------------------------------------------------------
 (2) _PWM2_Set_Duty                                        6     4      2    8126
                                             32 BANK1      6     4      2
                            ___aldiv
                            ___fldiv
                            ___flmul
                            ___fltol
                           ___xxtofl
                                _abs (ARG)
 ---------------------------------------------------------------------------------
 (1) _Speed_L                                              2     0      2    8486
                                             38 BANK1      2     0      2
                      _PWM1_Set_Duty
                                _abs
 ---------------------------------------------------------------------------------
 (2) _abs                                                  4     2      2     218
                                              0 BANK0      4     2      2
 ---------------------------------------------------------------------------------
 (2) _PWM1_Set_Duty                                        6     4      2    8126
                                             32 BANK1      6     4      2
                            ___aldiv
                            ___fldiv
                            ___flmul
                            ___fltol
                           ___xxtofl
                                _abs (ARG)
 ---------------------------------------------------------------------------------
 (2) ___xxtofl                                            14    10      4    1386
                                             15 BANK0     14    10      4
                            ___aldiv (ARG)
 ---------------------------------------------------------------------------------
 (2) ___fltol                                             11     7      4     609
                                             21 BANK1     11     7      4
                            ___aldiv (ARG)
                            ___fladd (ARG)
                            ___fldiv (ARG)
                            ___flmul (ARG)
                           ___xxtofl (ARG)
 ---------------------------------------------------------------------------------
 (1) ___flmul                                             26    18      8    3481
                                             55 BANK0     13     5      8
                                              0 BANK1     13    13      0
                          __Umul8_16
                            ___aldiv (ARG)
                            ___fldiv (ARG)
                           ___xxtofl (ARG)
 ---------------------------------------------------------------------------------
 (2) __Umul8_16                                            9     7      2     799
                                              0 BANK0      9     7      2
 ---------------------------------------------------------------------------------
 (3) ___fldiv                                             26    18      8    1425
                                             29 BANK0     26    18      8
                           ___xxtofl (ARG)
 ---------------------------------------------------------------------------------
 (1) _PWM2_Init                                            4     4      0    1060
                                             15 BANK0      4     4      0
                            ___aldiv
 ---------------------------------------------------------------------------------
 (1) _PWM1_Init                                            4     4      0    1060
                                             15 BANK0      4     4      0
                            ___aldiv
 ---------------------------------------------------------------------------------
 (3) ___aldiv                                             15     7      8    1060
                                              0 BANK0     15     7      8
 ---------------------------------------------------------------------------------
 (1) _MPU6050_Init                                         3     3      0     446
                                              6 BANK0      3     3      0
                           _I2C_Init
                      _MPU6050_Write
 ---------------------------------------------------------------------------------
 (2) _MPU6050_Write                                        2     1      1     446
                                              4 BANK0      2     1      1
                          _I2C_Start
                           _I2C_Stop
                          _I2C_Write
 ---------------------------------------------------------------------------------
 (2) _I2C_Init                                             0     0      0       0
 ---------------------------------------------------------------------------------
 (1) _MPU6050_GetAngle                                     6     4      2     632
                                             13 BANK0      6     4      2
                       _MPU6050_Read
                            ___awdiv
 ---------------------------------------------------------------------------------
 (2) ___awdiv                                              9     5      4     452
                                              0 BANK0      9     5      4
 ---------------------------------------------------------------------------------
 (2) _MPU6050_Read                                         7     5      2     134
                                              6 BANK0      7     5      2
                           _I2C_Read
                          _I2C_Start
                           _I2C_Stop
                          _I2C_Write
 ---------------------------------------------------------------------------------
 (3) _I2C_Write                                            1     1      0      22
                                              3 BANK0      1     1      0
                           _I2C_Idle
 ---------------------------------------------------------------------------------
 (3) _I2C_Stop                                             0     0      0       0
                           _I2C_Idle
 ---------------------------------------------------------------------------------
 (3) _I2C_Start                                            0     0      0       0
                           _I2C_Idle
 ---------------------------------------------------------------------------------
 (3) _I2C_Read                                             3     3      0      67
                                              3 BANK0      3     3      0
                           _I2C_Idle
 ---------------------------------------------------------------------------------
 (4) _I2C_Idle                                             3     3      0       0
                                              0 BANK0      3     3      0
 ---------------------------------------------------------------------------------
 Estimated maximum stack depth 4
 ---------------------------------------------------------------------------------
 (Depth) Function   	        Calls       Base Space   Used Autos Params    Refs
 ---------------------------------------------------------------------------------
 (5) _isr1                                                 5     5      0     324
                                              5 COMMON     5     5      0
                     _ClearRX_Buffer
                         _HandleData
 ---------------------------------------------------------------------------------
 (6) _HandleData                                           1     1      0     233
                                              4 COMMON     1     1      0
                 _UART_Transmit_Text
 ---------------------------------------------------------------------------------
 (7) _UART_Transmit_Text                                   3     3      0     145
                                              1 COMMON     3     3      0
                      _UART_Transmit
 ---------------------------------------------------------------------------------
 (8) _UART_Transmit                                        1     1      0      22
                                              0 COMMON     1     1      0
 ---------------------------------------------------------------------------------
 (6) _ClearRX_Buffer                                       2     2      0      68
                                              0 COMMON     2     2      0
 ---------------------------------------------------------------------------------
 Estimated maximum stack depth 8
 ---------------------------------------------------------------------------------

 Call Graph Graphs:

 _main (ROOT)
   _MPU6050_GetAngle
     _MPU6050_Read
       _I2C_Read
         _I2C_Idle
       _I2C_Start
         _I2C_Idle
       _I2C_Stop
         _I2C_Idle
       _I2C_Write
         _I2C_Idle
     ___awdiv
   _MPU6050_Init
     _I2C_Init
     _MPU6050_Write
       _I2C_Start
       _I2C_Stop
       _I2C_Write
   _PWM1_Init
     ___aldiv
   _PWM2_Init
     ___aldiv
   _Speed_L
     _PWM1_Set_Duty
       ___aldiv
       ___fldiv
         ___xxtofl (ARG)
           ___aldiv (ARG)
       ___flmul
         __Umul8_16
         ___aldiv (ARG)
         ___fldiv (ARG)
         ___xxtofl (ARG)
       ___fltol
         ___aldiv (ARG)
         ___fladd (ARG)
           ___flmul (ARG)
           ___xxtofl (ARG)
         ___fldiv (ARG)
         ___flmul (ARG)
         ___xxtofl (ARG)
       ___xxtofl
       _abs (ARG)
     _abs
   _Speed_R
     _PWM2_Set_Duty
       ___aldiv
       ___fldiv
       ___flmul
       ___fltol
       ___xxtofl
       _abs (ARG)
     _abs
   ___fladd
   ___flmul
   ___fltol
   ___xxtofl
   _constrain
     ___flge
       ___xxtofl (ARG)
     ___fltol
     ___xxtofl

 _isr1 (ROOT)
   _ClearRX_Buffer
   _HandleData
     _UART_Transmit_Text
       _UART_Transmit

 Address spaces:
Name               Size   Autos  Total    Cost      Usage
BANK3               60      0      1C       9       29.2%
BITBANK3            60      0       0       8        0.0%
SFR3                 0      0       0       4        0.0%
BITSFR3              0      0       0       4        0.0%
BANK2               60      0       0      11        0.0%
BITBANK2            60      0       0      10        0.0%
SFR2                 0      0       0       5        0.0%
BITSFR2              0      0       0       5        0.0%
BANK1               50     35      4F       7       98.8%
BITBANK1            50      0       0       6        0.0%
SFR1                 0      0       0       2        0.0%
BITSFR1              0      0       0       2        0.0%
BANK0               50     50      50       5      100.0%
BITBANK0            50      0       0       4        0.0%
SFR0                 0      0       0       1        0.0%
BITSFR0              0      0       0       1        0.0%
COMMON               E      A       D       1       92.9%
BITCOMMON            E      0       0       0        0.0%
CODE                 0      0       0       0        0.0%
DATA                 0      0      C8      12        0.0%
ABS                  0      0      C8       3        0.0%
NULL                 0      0       0       0        0.0%
STACK                0      0       0       2        0.0%
EEDATA             100      0       0       0        0.0%


Microchip Technology PIC Macro Assembler V2.32 build 20210201212658 
Symbol Table                                                                                   Tue Mar 08 21:13:02 2022

               ___fldiv@aexp 0056                 ___fldiv@bexp 0055                            pc 0002  
               ___fldiv@sign 004E           __size_of_I2C_Start 000D                  _SSPSTATbits 0094  
         __size_of_I2C_Write 001C                           l32 12EE            PWM1_Set_Duty@duty 00C0  
                         l35 1303                           l29 12C2                           l38 132F  
                         _Kd 0190                           _Ki 01A4                           _Kp 01A8  
               ___awdiv@sign 0026                           fsr 0004          __Umul8_16@word_mpld 0026  
                        l212 11E1                          l206 110E                          l222 1159  
                        l302 11A8                          l215 11F2                          l311 1236  
                        l224 115D                          l209 1112                          l305 12AD  
                        l226 1166                          l219 1201                          l308 1377  
                        l173 0810                          l191 087A                          l194 1101  
                        l282 13C4                          l274 1671                          l291 141F  
                        l197 1105                          l285 13CB                          l550 1488  
                        l462 149D                          l295 17FF                          l711 0F1D  
                        l703 0FFF                          l472 1525                          l288 1418  
                        l721 0F6B                          l299 094C                          l715 0F49  
                        l571 1544                          l732 0FEF                          l724 0FC9  
                        l805 11BF                          l733 0FFF                          l590 07E8  
                        l830 1696                          l574 15B0                          l807 11D1  
                        l583 07FD                          l575 15C9                          l832 172D  
                        l593 07FD                          l770 0775                          l762 06F3  
                        l746 0601                          l690 0D0D                          l843 16F7  
                        l748 0781                          l844 1703                          l836 16DB  
                        l694 0E0E                          l768 0765                          l792 04D8  
                        l848 1137                          l696 0DD9                          l849 1137  
                        l786 05A4                          l798 0586                          _PR2 0092  
                        _I_L 00E3                          _I_R 00E1                          _Vgo 0194  
                        _abs 1125                          fsr0 0004                          indf 0000  
               ___flmul@aexp 00A5                 ___flmul@bexp 00A6                 ___flmul@sign 00A0  
               ___flmul@temp 00AB                 ___flmul@prod 00A7                 ___fltol@exp1 00BF  
                       l2001 14A1                         l2011 14C3                         l2003 14AC  
                       ?_abs 0020                         l2021 14FD                         l2013 14D0  
                       l2005 14B0                         l2101 05E9                         l2031 151D  
                       l2023 14FE                         l2015 14D4                         l2007 14B8  
                       l2111 0609                         l2103 05EE                         l2025 1507  
                       l2017 14DD                         l2009 14C0                         l2201 0764  
                       l2121 0627                         l2113 0615                         l2105 05F6  
                       l2041 0798                         l2019 14EF                         l2027 150D  
                       l2203 076B                         l2131 0652                         l2115 0619  
                       l2107 05F7                         l2051 07BC                         l2043 07AD  
                       l2035 0782                         l2029 1512                         l2205 076F  
                       l2141 0677                         l2133 065A                         l2125 0630  
                       l2109 05F9                         l2301 048A                         l2221 0062  
                       l2213 0046                         l2045 07AE                         l2037 078F  
                       l2207 0771                         l2151 06A2                         l2143 0678  
                       l2135 065C                         l2127 0642                         l2119 0622  
                       l2071 05A5                         l2311 04AC                         l2303 0490  
                       l2231 0085                         l2223 0069                         l2215 004F  
                       l2047 07B6                         l2161 06BF                         l2137 0661  
                       l2145 0681                         l2153 06A6                         l2129 064A  
                       l2081 05BC                         l2073 05AC                         l2321 04DF  
                       l2313 04AD                         l2305 0491                         l2241 00A6  
                       l2233 008C                         l2225 006E                         l2217 0059  
                       l2065 07DD                         l2057 07C4                         l2049 07B8  
                       l2171 06D7                         l2163 06C3                         l2155 06AC  
                       l2147 0693                         l2139 0673                         l2091 05D4  
                       l2083 05C1                         l2075 05B2                         l2323 04E4  
                       l2331 0531                         l2315 04B1                         l2307 04A0  
                       l2251 00C9                         l2243 00AB                         l2235 0096  
                       l2227 0078                         l2219 005F                         l2067 07ED  
                       l2059 07D6                         l2411 17EF                         l2403 172E  
                       l2181 06F8                         l2173 06D8                         l2165 06C4  
                       l2157 06B4                         l2149 0694                         l2093 05D9  
                       l2085 05C9                         l2077 05B6                         l2341 0564  
                       l2333 053E                         l2325 04F2                         l2317 04D3  
                       l2309 04A8                         l2261 010E                         l2253 00CE  
                       l2245 00B5                         l2237 009C                         l2229 007B  
                       l2069 07F2                         l2405 1739                         l2421 093C  
                       l2413 087B                         l2501 1564                         l2431 0802  
                       l2183 06FD                         l2191 072E                         l2175 06DC  
                       l2167 06CD                         l2159 06B6                         l2095 05DF  
                       l2087 05CA                         l2079 05B7                         l2343 0576  
                       l2335 0549                         l2327 04F6                         l2271 021B  
                       l2263 0143                         l2247 00B8                         l2239 009F  
                       l2407 17E4                         l2415 0886                         l2503 1588  
                       l2433 0806                         l2441 1188                         l2193 073B  
                       l2185 070B                         l2177 06F0                         l2169 06D3  
                       l2097 05E3                         l2089 05CC                         l2345 057A  
                       l2337 0558                         l2329 052B                         l2281 02C2  
                       l2273 022A                         l2265 0173                         l2257 00D9  
                       l2249 00C2                         l2361 169E                         l2353 1675  
                       l2409 17EE                         l2513 12AE                         l2417 0931  
                       l2521 12EF                         l2505 158C                         l2601 165C  
                       l2443 1271                         l2451 1423                         l2435 080A  
                       l2531 133E                         l2195 0749                         l2187 070F  
                       l2099 05E4                         l2347 057B                         l2339 0562  
                       l2291 03CE                         l2283 02E7                         l2275 0240  
                       l2267 01BB                         l2259 00F1                         l2371 16C0  
                       l2355 167A                         l2515 12BD                         l2419 093B  
                       l2523 12FE                         l2507 15C6                         l2445 12A7  
                       l2461 1437                         l2453 1427                         l2437 080D  
                       l2541 136B                         l2533 1343                         l2197 0758  
                       l2189 0728                         l2349 058E                         l2293 040C  
                       l2285 031C                         l2277 0275                         l2269 01EB  
                       l2381 16F1                         l2373 16C4                         l2365 16A7  
                       l2357 167E                         l2517 12C8                         l2525 1309  
                       l2701 0D98                         l2621 0C9A                         l2509 15C8  
                       l2471 144D                         l2463 143B                         l2455 142C  
                       l2439 080E                         l2535 134F                         l2543 1378  
                       l2199 075C                         l2295 0454                         l2287 0369  
                       l2279 028D                         l2391 1724                         l2383 16FB  
                       l2375 16D2                         l2367 16AC                         l2359 168E  
                       l2519 12CC                         l2527 130D                         l2711 0DF0  
                       l2703 0DB5                         l2631 0CB9                         l2623 0CA5  
                       l2481 146D                         l2473 1451                         l2465 143D  
                       l2457 142E                         l2449 1420                         l2537 1359  
                       l2529 1330                         l2545 137C                         l2561 13CC  
                       l2297 0463                         l2289 0381                         l2393 1725  
                       l2385 1705                         l2377 16E2                         l2369 16B9  
                       l2801 0FDB                         l2721 0E17                         l2713 0DF1  
                       l2705 0DDD                         l2641 0CD1                         l2633 0CBE  
                       l2625 0CAF                         l1931 084F                         l1923 0811  
                       l2483 1474                         l2475 1455                         l2467 1443  
                       l2459 1432                         l2539 1362                         l2555 13C6  
                       l2547 13C0                         l2563 13D0                         l2299 047B  
                       l2387 171B                         l2379 16ED                         l2811 0FFA  
                       l2803 0FE0                         l2731 0E3F                         l2715 0E00  
                       l2707 0DEA                         l2651 0CEF                         l2643 0CDA  
                       l2635 0CC6                         l2627 0CB3                         l1933 0866  
                       l1925 0811                         l2477 1466                         l2469 1446  
                       l2485 147A                         l2581 121F                         l2557 13C7  
                       l2549 13C3                         l2573 141A                         l2565 1414  
                       l1941 11B9                         l2389 1720                         l2397 1125  
                       l2813 0FFE                         l2805 0FE1                         l2741 0E62  
                       l2733 0E4C                         l2725 0E20                         l2709 0DEC  
                       l2717 0E06                         l2661 0D03                         l2653 0CF0  
                       l2645 0CE0                         l2637 0CC7                         l2629 0CB4  
                       l2493 1526                         l2821 096F                         l1927 0825  
                       l2487 147F                         l2479 146C                         l2583 1232  
                       l2559 13C8                         l2575 141B                         l2567 1417  
                       l1943 11C8                         l1935 11AC                         l2399 112B  
                       l2807 0FE5                         l2751 0F00                         l2735 0E4E  
                       l2727 0E37                         l2719 0E12                         l2743 0E69  
                       l2671 0D27                         l2655 0CF5                         l2663 0D05  
                       l2647 0CE1                         l2639 0CC9                         l2495 153C  
                       l2831 0983                         l2823 0973                         l2815 094D  
                       l1929 0839                         l1961 11D5                         l1953 10F9  
                       l2489 1484                         l2577 141C                         l1945 11CD  
                       l1937 11AE                         l2809 0FE7                         l2761 0F33  
                       l2745 0E7F                         l2753 0F0F                         l2737 0E52  
                       l2729 0E3B                         l2681 0D4F                         l2673 0D2F  
                       l2665 0D13                         l2657 0CFA                         l2649 0CEB  
                       l2497 1558                         l2841 0AA8                         l2833 0A0E  
                       l2825 0977                         l2817 095C                         l1971 11EE  
                       l1963 11DA                         l1955 10FE                         l2579 1202  
                       l1939 11B5                         l2771 0F52                         l2763 0F42  
                       l2755 0F25                         l2747 0EF1                         l2739 0E53  
                       l2691 0D77                         l2683 0D57                         l2675 0D37  
                       l2667 0D17                         l2659 0D02                         l2499 1560  
                       l2595 1613                         l2587 15CA                         l2851 0B00  
                       l2843 0AAC                         l2835 0A88                         l2827 0979  
                       l2819 096D                         l1981 1200                         l1973 11EF  
                       l1965 11DD                         l1957 1106                         l2781 0F62  
                       l2773 0F57                         l2765 0F48                         l2757 0F2A  
                       l2749 0EFB                         l2693 0D7F                         l2685 0D5F  
                       l2677 0D3F                         l2669 0D1F                         l2597 1655  
                       l2589 160C                         l2861 0C25                         l2853 0B8B  
                       l2845 0ADB                         l2837 0A8C                         l2829 097D  
                       l1975 11F6                         l1967 11DE                         l1959 110B  
                       l1991 1158                         l2791 0F83                         l2783 0F68  
                       l2767 0F4D                         l2775 0F59                         l2695 0D87  
                       l2687 0D67                         l2679 0D47                         l2871 0C87  
                       l2863 0C29                         l2855 0C05                         l2847 0AF6  
                       l2839 0A99                         l1977 11FA                         l1969 11E5  
                       l1993 1163                         l1985 114E                         l2793 0F87  
                       l2769 0F50                         l2777 0F5D                         l2697 0D8F  
                       l2689 0D6F                         l2865 0C58                         l2857 0C09  
                       l2849 0AFA                         l1979 11FF                         l1987 1153  
                       l1995 1489                         l2795 0FC1                         l2787 0F70  
                       l2779 0F5E                         l2699 0D97                         l2867 0C73  
                       l2859 0C16                         l1989 1156                         l1997 148C  
                       l2797 0FCE                         l2789 0F75                         l2869 0C7C  
                       l1999 1490                         l2799 0FD3                         _CREN 00C4  
                       u3000 0428                         u2210 11CD                         u2211 11CC  
                       u3011 043A                         u2140 0825                         u2300 1490  
                       u3100 04E4                         u3012 0445                         u2141 0824  
                       u2301 148F                         u2205 11C0                         u3101 04E3  
                       u3013 0450                         u3005 0423                         u2150 0839  
                       u2230 1105                         u2310 14A1                         u3110 04F6  
                       u2151 0838                         u2231 1104                         u2311 14A0  
                       u3111 04F5                         u2160 084F                         u2240 1112  
                       u2320 14C0                         u3120 0513                         u3040 0490  
                       u2400 078F                         u3200 16BF                         u4000 0F57  
                       u2161 084E                         u2241 1111                         u2321 14BF  
                       u3041 048F                         u3025 0458                         u2401 078E  
                       u3201 16BE                         u4001 0F56                         u2170 0866  
                       u2250 11E5                         u3130 053E                         u2410 07A6  
                       u4010 0F5D                         u2171 0865                         u2251 11E4  
                       u3131 053D                         u3035 047F                         u4011 0F5C  
                       u2180 087A                         u2260 11F6                         u2340 14D4  
                       u2500 05B6                         u3140 0558                         u3060 04AC  
                       u2420 07BC                         u3220 16E1                         u3300 112B  
                       u4100 0FD3                         u4020 0F62                         u2181 0879  
                       u2261 11F5                         u2341 14D3                         u2501 05B5  
                       u3141 0557                         u3125 050E                         u3061 04AB  
                       u2421 07BB                         u3221 16E0                         u3301 112A  
                       u4101 0FD2                         u4021 0F61                         u2270 11FF  
                       u2510 05BC                         u2190 11B9                         u3150 057A  
                       u3070 04B1                         u2430 07C3                         u3310 1739  
                       u4110 0FE0                         u4030 0F68                         u2271 11FE  
                       u2335 14C5                         u2511 05BB                         u2191 11B8  
                       u3151 0579                         u3135 053A                         u3071 04B0  
                       u3055 0495                         u2431 07C2                         u2415 07A1  
                       u3215 16D3                         u3311 1738                         u4111 0FDF  
                       u4031 0F67                         u2280 115D                         u3400 1427  
                       u2360 14EF                         u2520 05C1                         u3080 04D3  
                       u3240 16F1                         u3160 167A                         u3320 1784  
                       u4120 0FE5                         u4040 0F6F                         u2281 115C  
                       u3401 1426                         u2361 14EE                         u2521 05C0  
                       u3145 0554                         u3081 04D2                         u3241 16F0  
                       u3161 1679                         u4121 0FE4                         u4041 0F6E  
                       u2290 1163                         u3410 1432                         u2610 0677  
                       u2530 05E3                         u3090 04DE                         u2450 07D5  
                       u3250 16F7                         u3170 167E                         u3330 17EB  
                       u4130 0FFE                         u4050 0F75                         u2291 1162  
                       u3411 1431                         u2355 14D6                         u2611 0676  
                       u2531 05E2                         u3091 04DD                         u2451 07D4  
                       u3251 16F6                         u3235 16E6                         u3171 167D  
                       u3331 17E7                         u4131 0FFD                         u4051 0F74  
                       u3420 1443                         u2380 150D                         u2700 06DC  
                       u2540 05E9                         u2460 07DC                         u3260 16FB  
                       u3180 169E                         u4060 0F87                         u3500 153C  
                       u4140 0A99           MPU6050_Read@retval 002A                         u3421 1442  
                       u2381 150C                         u2365 14EB                         u2701 06DB  
                       u2605 066C                         u2541 05E8                         u2461 07DB  
                       u2445 07C5                         u3261 16FA                         u3181 169D  
                       u3325 177F                         u4061 0F86                         u3501 153B  
                       u4141 0A98                         u2390 1512                         u2710 06F0  
                       u2630 0693                         u2550 05EE                         u3270 1710  
                       u3350 0886                         u4070 0FA4                         u3510 1558  
                       u4150 0AA8                         u2391 1511                         u2375 14FF  
                       u2711 06EF                         u2631 0692                         u2551 05ED  
                       u3351 0885                         u3511 1557                         u4151 0AA7  
                       u3440 1455                         u2720 06F7                         u2640 06AC  
                       u2560 0609                         u2800 0069                         u2480 07ED  
                       u3280 1720                         u3344 17EE                         u3360 08D1  
                       u3600 1309                         u4080 0FC1                         u3520 1564  
                       u4160 0C16                         u3441 1454                         u2721 06F6  
                       u2641 06AB                         u2625 067A                         u2561 0608  
                       u2801 0068                         u2481 07EC                         u3281 171F  
                       u3601 1308                         u4081 0FC0                         u3521 1563  
                       u4161 0C15                         u4145 0A95                         u3610 1398  
                       u2730 06FD                         u2650 06B4                         u2570 0627  
                       u2810 006E                         u2490 07F2                         u3290 1724  
                       u3370 0938                         u4090 0FCE                         u4170 0C25  
                       u3435 1447                         u2731 06FC                         u2651 06B3  
                       u2635 068F                         u2571 0626                         u2811 006D  
                       u2491 07F1                         u2475 07DF                         u3291 1723  
                       u3275 170B                         u3195 16B1                         u3371 0934  
                       u4091 0FCD                         u4075 0F9F                         u3531 1573  
                       u4171 0C24                         u4155 0AA4                         u3460 1466  
                       u3620 13A1                         u2740 070F                         u2580 0661  
                       u2820 009C                         u3700 0CBE                         u3540 158C  
                       u3532 1574                         u3461 1465                         u2741 070E  
                       u2581 0660                         u2901 0201                         u2821 009B  
                       u3365 08CC                         u3701 0CBD                         u3541 158B  
                       u3533 1579                         u4165 0C12                         u3630 13EC  
                       u2750 071E                         u2670 06C3                         u2902 020C  
                       u2830 00A6                         u3710 0CE0                         u3534 157A  
                       u3455 1456                         u3615 1393                         u2671 06C2  
                       u2903 0217                         u2831 00A5                         u3711 0CDF  
                       u3551 159B                         u3535 157F                         u4175 0C21  
                       u3480 147A                         u3640 13F5                         u2760 073B  
                       u2840 00AB                         u3384 093B                         u3800 0DDD  
                       u3720 0CEF                         u3560 15C6                         u3552 159C  
                       u3536 1580                         u3481 1479                         u3465 1462  
                       u3625 139C                         u2761 073A                         u2665 06B8  
                       u2921 025B                         u2841 00AA                         u3801 0DDC  
                       u3721 0CEE                         u3561 15C5                         u3553 15A1  
                       u3490 147F                         u2770 0758                         u2690 06D7  
                       u2922 0266                         u2850 00C9                         u3570 12BD  
                       u3810 0DF0                         u3730 0CF5                         u3554 15A2  
                       u3650 160C                         u3491 147E                         u3475 146E  
                       u3635 13E7                         u2771 0757                         u2755 0719  
                       u2691 06D6                         u2595 0663                         u2931 02A8  
                       u2923 0271                         u2915 021F                         u2851 00C8  
                       u3571 12BC                         u3811 0DEF                         u3731 0CF4  
                       u3555 15A7                         u3651 160B                         u2780 076F  
                       u2932 02B3                         u2860 00CE                         u3580 12C8  
                       u3740 0CFA                         u3556 15A8                         u3660 1655  
                       u3645 13F0                         u2781 076E                         u2765 0737  
                       u2685 06C6                         u2933 02BE                         u2861 00CD  
                       u3581 12C7                         u3741 0CF9                         u3565 15C2  
                       u3661 1654                         u4277 0C8F                         u2790 005F  
                       u3590 12FE                         u3910 0E7F                         u3830 0E0E  
                       u3750 0D13                         u4287 1338                         u2775 0754  
                       u2951 0302                         u2871 0159                         u2791 005E  
                       u3575 12B9                         u3591 12FD                         u3911 0E7E  
                       u3831 0E0D                         u3751 0D12                         u2952 030D  
                       u2872 0164                         u3840 0E12                         u3760 0D17  
                       u3680 0CB3                         u2961 034F                         u2953 0318  
                       u2945 02C6                         u2881 0189                         u2873 016F  
                       u3921 0EAE                         u3913 0E7B                         u3905 0E57  
                       u3841 0E11                         u3825 0DF5                         u3761 0D16  
                       u3681 0CB2                         u2962 035A                         u2882 0194  
                       u3930 0ED0                         u3922 0EB1                         u3850 0E17  
                       u3770 0DB5                         u3690 0CB9                         u2971 039C  
                       u2963 0365                         u2891 01D1                         u2883 019F  
                       u3595 12FA                         u3931 0ED1                         u3923 0EB8  
                       u3851 0E16                         u3771 0DB4                         u3691 0CB8  
                       _RCIE 0465                         u2980 03E0                         u2972 03A7  
                       u2892 01DC                         u3940 0F00                         u3932 0ED6  
                       u3924 0EBB                         u3780 0DC0                         _RCIF 0065  
                       u2973 03B2                         u2893 01E7                         u3941 0EFF  
                       u3933 0ED7                         u3925 0EC2                         u3861 0E29  
                       u3781 0DBE                         u3950 0F25                         u3926 0EC5  
                       u3870 0E3B                         u3862 0E30                         u3790 0DC1  
                       u2991 03F2                         u3951 0F24                         u3871 0E3A  
                       u3863 0E37                         u3775 0DB1                         u2992 03FD  
                       u3960 0F2A                         u3880 0E3F                         u2993 0408  
                       u2985 03DB                         u3961 0F29                         u3881 0E3E  
                       u3890 0E52                         u3891 0E51                         u3980 0F48  
                       u3981 0F47                         u3990 0F4D                         u3991 0F4C  
                       u3975 0F37                         _TMR2 0011                         _SPEN 00C7  
                       _TRMT 04C1                         _TXEN 04C5                         abs@a 0020  
     __size_of_MPU6050_Write 0024                         _isr1 1237                         _main 094D  
           __end_of_I2C_Idle 087B             __end_of_I2C_Init 0811             __end_of_I2C_Read 1202  
                       btemp 007E             __end_of_I2C_Stop 1113                         start 000E  
            ___fldiv@new_exp 004F   __end_of_UART_Transmit_Text 1185                   _HandleData 10D5  
                      ??_abs 0022              __end_of_Speed_L 12EF              __end_of_Speed_R 1330  
              ___fltol@sign1 00BE              __end_of___aldiv 1526                        ?_isr1 0070  
            __end_of___fladd 1000                        ?_main 0070                        _CCP1X 00BD  
            __end_of___fldiv 0782                        _CCP1Y 00BC                        _CCP2X 00ED  
                      _CCP2Y 00EC              __end_of___awdiv 1489              __end_of___flmul 05A5  
            __end_of___fltol 07FE              ___awdiv@divisor 0020                        i1l120 10EE  
                      i1l123 10F8                        i1l143 1124                        i1l152 1265  
                      i1l129 1184                        i1l138 10DC              ___awdiv@counter 0025  
                      _RCREG 001A             isr1@ReceivedData 0079                        _SPBRG 0099  
                      _TXREG 0019                _PWM_Frequency 00EB                        _Vgo_L 00D7  
                      _Vgo_R 00D5           __size_of_PWM1_Init 0054           __size_of_PWM2_Init 0054  
              ?_MPU6050_Init 0070                ?_MPU6050_Read 0026            __end_of_I2C_Start 1106  
          __end_of_I2C_Write 1167                        pclath 000A                        status 0003  
                      wtemp0 007E              __initialization 0011                 __end_of_isr1 126E  
               __end_of_main 0C9A                _MPU6050_Write 1185                       ??_isr1 0075  
                     ??_main 00C8             _MPU6050_GetAngle 1202            MPU6050_Write@data 0024  
             ??_MPU6050_Init 0026               ??_MPU6050_Read 0028                       _CCPR1L 0015  
                     _CCPR2L 001B             ___awdiv@dividend 0022                       i1l2423 1168  
                     i1l2425 116A                       i1l2427 1175                       i1l2613 1114  
                     i1l2429 1179                       i1l2605 10D6                       i1l2615 1119  
                     i1l2607 1113                       i1l2617 111D                       i1l2619 1123  
                     i1l1951 10F4                       i1l1949 10EE                       i1l2891 1247  
                     i1l2893 124D                       i1l2885 1237                       i1l2895 1255  
                     i1l2887 123D                       i1l2897 125A                       i1l2889 1243  
                     u222_20 10F4                       u222_21 10F3                       u420_20 123D  
                     u420_21 123C                       u421_20 1243                       u421_21 1242  
                     u422_20 124D                       u422_21 124C                       u339_20 1184  
                     u339_21 1183                       u367_20 1123                       u367_21 1122  
                     _SSPADD 0093                       _SSPCON 0014                       _SSPBUF 0013  
           __end_of___xxtofl 172E                       _Offset 00E5                       _MotorL 0198  
                     _MotorR 0196                    ??_Speed_L 0070                    ??_Speed_R 0070  
                     ___flge 1526                       _Output 007A            __end_of_PWM1_Init 13CC  
          __end_of_PWM2_Init 1420                    ??___aldiv 0028                  ?_HandleData 0070  
                  ??___fladd 00AD                    ??___fldiv 0045                    ??___awdiv 0024  
                  ??___flmul 005F                    ??___fltol 00B9                       _inputL 00E9  
             ?_MPU6050_Write 0024                       _inputR 00E7             ___awdiv@quotient 0027  
                  ?_I2C_Idle 0070                    ?_I2C_Init 0070                    ?_I2C_Read 0070  
         __size_of__Umul8_16 0029                    ?_I2C_Stop 0070              I2C_Write@Tvalue 0023  
                     saved_w 007E                 constrain@max 00C6                 constrain@min 00C4  
                 ___flge@ff1 003D                   ___flge@ff2 0041             ??_ClearRX_Buffer 0070  
               ___xxtofl@arg 0039                 ___xxtofl@exp 0038                 ___xxtofl@val 002F  
    __end_of__initialization 0042              MPU6050_Read@add 002C                   ___fltol@f1 00B5  
      __end_of_UART_Transmit 10F9               __pcstackCOMMON 0070        __end_of_PWM1_Set_Duty 1800  
               __pidataBANK1 10D1                 __pidataBANK3 10E5        __end_of_PWM2_Set_Duty 094D  
          PWM2_Set_Duty@duty 00C0                   ??_I2C_Idle 0020                   ??_I2C_Init 0020  
                 ??_I2C_Read 0023                   ??_I2C_Stop 0023          __size_of_HandleData 0008  
                 __pbssBANK1 00D5                   __pbssBANK3 0190           __size_of_constrain 00A8  
             I2C_Read@Rvalue 0024            __end_of__Umul8_16 11D2                   __pmaintext 094D  
                    ?___flge 003D         __end_of_MPU6050_Init 1378         __end_of_MPU6050_Read 12AE  
            ??_MPU6050_Write 0025                   __pintentry 0004                    ?___xxtofl 002F  
         _UART_Transmit_Text 1167                      _SSPCON2 0091          ?_UART_Transmit_Text 0070  
                  _I2C_Start 10F9                    _I2C_Write 114B     __end_of_MPU6050_GetAngle 1237  
                    _Speed_L 12AE                      _Speed_R 12EF                      ___aldiv 1489  
            __size_of___flge 00A4                      ___fladd 0C9A                      _OutputL 00DB  
                    _OutputR 00D9                      ___fldiv 05A5                      ___awdiv 1420  
                    ___flmul 0046                      ___fltol 0782         ??_UART_Transmit_Text 0071  
          __end_of_constrain 1672                      __ptext1 15CA                      __ptext2 1526  
                    __ptext3 0C9A                      __ptext4 12EF                      __ptext5 087B  
                    __ptext6 12AE                      __ptext7 1125                      __ptext8 172E  
                    __ptext9 1672                    _T2CONbits 0012                 __size_of_abs 0013  
                 ??___xxtofl 0033             ___aldiv@dividend 0024                      clrloop0 10DE  
       end_of_initialization 0042                   ?_I2C_Start 0070                   ?_I2C_Write 0070  
             UART_Transmit@c 0070             ___aldiv@quotient 002B                 ??_HandleData 0074  
                  _PWM1_Init 1378                    _PWM2_Init 13CC                    _PORTDbits 0008  
                ___fladd@grs 006F                ___xxtofl@sign 0037                    _TRISCbits 0087  
                  _TRISDbits 0088            __size_of_I2C_Idle 006A            __size_of_I2C_Init 000F  
          __size_of_I2C_Read 0030                  ___fldiv@grs 0051                  ___fldiv@rem 004A  
          __size_of_I2C_Stop 000D           __end_of_HandleData 10DD                  ___flmul@grs 00A1  
                _CCP1CONbits 0017                  _CCP2CONbits 001D        __size_of_MPU6050_Init 0048  
      __size_of_MPU6050_Read 0040                    _RX_Buffer 019A               __end_of___flge 15CA  
                 ?_PWM1_Init 0070                   ?_PWM2_Init 0070              ClearRX_Buffer@i 0071  
                 constrain@a 00C0          start_initialization 0011                  __end_of_abs 1138  
               _MPU6050_Init 1330                 _MPU6050_Read 126E             MPU6050_Write@add 0025  
                ??_I2C_Start 0023                  ??_I2C_Write 0023                     ??___flge 0045  
                 init_fetch0 1138                    __Umul8_16 11A9                  __pdataBANK1 00EB  
                __pdataBANK3 01A4                    ___fladd@a 0068                    ___fladd@b 0064  
                  ___fldiv@a 003D                    ___fldiv@b 0041                    ___flmul@a 005B  
                  ___flmul@b 0057                  __pbssCOMMON 007A                    ___latbits 0002  
     __size_of_UART_Transmit 000C                __pcstackBANK0 0020                __pcstackBANK1 00A0  
          __size_of___xxtofl 00BC       __size_of_PWM1_Set_Duty 00D2       __size_of_PWM2_Set_Duty 00D2  
          ?_MPU6050_GetAngle 002D                  I2C_Read@ACK 0025                    _main$1254 00CD  
                  _main$1255 00D1                     ?_Speed_L 00C6                     ?_Speed_R 00C6  
         ??_MPU6050_GetAngle 002F      __size_of_ClearRX_Buffer 0012                     ?___aldiv 0020  
                   ?___fladd 0064                     ?___fldiv 003D                     ?___awdiv 0020  
                   ?___flmul 0057                     ?___fltol 00B5                   ?__Umul8_16 0020  
      __end_of_MPU6050_Write 11A9                  ??_PWM1_Init 002F                  ??_PWM2_Init 002F  
                   _I2C_Idle 0811                     _I2C_Init 0802                     _I2C_Read 11D2  
                  _constrain 15CA                     _I2C_Stop 1106                 HandleData@RX 0074  
            ___aldiv@divisor 0020            interrupt_function 0004              ___aldiv@counter 0029  
                  clear_ram0 10DD                _UART_Transmit 10ED                     _PIR1bits 000C  
        UART_Transmit_Text@i 0073                _PWM1_Set_Duty 172E  __size_of_UART_Transmit_Text 001E  
              _PWM2_Set_Duty 087B                    main@Angle 00CB                   ?_constrain 00C0  
               Speed_L@speed 00C6                 Speed_R@speed 00C6               ?_UART_Transmit 0070  
             ?_PWM1_Set_Duty 00C0             __size_of_Speed_L 0041             __size_of_Speed_R 0041  
                ??__Umul8_16 0022             __size_of___aldiv 009D             __size_of___fladd 0366  
           __size_of___fldiv 01DD             __size_of___awdiv 0069               ?_PWM2_Set_Duty 00C0  
           __size_of___flmul 055F             __size_of___fltol 007C                     ___xxtofl 1672  
                   __ptext10 0782                     __ptext11 0046                     __ptext20 1202  
                   __ptext12 11A9                     __ptext21 1420                     __ptext13 05A5  
                   __ptext30 1167                     __ptext22 126E                     __ptext14 13CC  
                   __ptext31 10ED                     __ptext23 114B                     __ptext15 1378  
                   __ptext32 1113                     __ptext24 1106                     __ptext16 1489  
                   __ptext25 10F9                     __ptext17 1330                     __ptext26 11D2  
                   __ptext18 1185                     __ptext27 0811                     __ptext19 0802  
                   __ptext28 1237                     __ptext29 10D5                __size_of_isr1 0037  
              __size_of_main 034D               _ClearRX_Buffer 1113                  _input_lastL 00DF  
                _input_lastR 00DD                     _rx_index 007C                  ??_constrain 0070  
                 _INTCONbits 000B                     init_ram0 113C           MPU6050_GetAngle@Ax 0031  
                   intlevel1 0000              ??_UART_Transmit 0070       __end_of_ClearRX_Buffer 1125  
            ??_PWM1_Set_Duty 00C2              ??_PWM2_Set_Duty 00C2        UART_Transmit_Text@str 0072  
     __Umul8_16@multiplicand 0020    __size_of_MPU6050_GetAngle 0035                 ___aldiv@sign 002A  
                _SSPCON2bits 0091                ___fladd@signs 006C                 ___fladd@aexp 006D  
               ___fladd@bexp 006E         __Umul8_16@multiplier 0028                   _SSPCONbits 0014  
            ?_ClearRX_Buffer 0070            __Umul8_16@product 0024  
