

Microchip MPLAB XC8 Assembler V2.32 build 20210201212658 
                                                                                               Sun Jan 23 17:41:10 2022

Microchip MPLAB XC8 C Compiler v2.32 (Free license) build 20210201212658 Og1 
     1                           	processor	16F877A
     2                           	pagewidth 120
     3                           	opt	flic
     4                           	psect	strings,global,class=STRING,delta=2,noexec
     5                           	psect	cinit,global,class=CODE,merge=1,delta=2
     6                           	psect	cstackCOMMON,global,class=COMMON,space=1,delta=1,noexec
     7                           	psect	cstackBANK0,global,class=BANK0,space=1,delta=1,noexec
     8                           	psect	maintext,global,class=CODE,split=1,delta=2
     9                           	psect	text1,local,class=CODE,merge=1,delta=2,group=1
    10                           	psect	text2,local,class=CODE,merge=1,delta=2,group=1
    11                           	psect	text3,local,class=CODE,merge=1,delta=2,group=1
    12                           	psect	text4,local,class=CODE,merge=1,delta=2,group=1
    13                           	psect	text5,local,class=CODE,merge=1,delta=2,group=1
    14                           	psect	text6,local,class=CODE,merge=1,delta=2,group=1
    15                           	psect	text7,local,class=CODE,merge=1,delta=2,group=1
    16                           	psect	text8,local,class=CODE,merge=1,delta=2
    17                           	psect	text9,local,class=CODE,merge=1,delta=2
    18                           	psect	text10,local,class=CODE,merge=1,delta=2
    19                           	psect	text11,local,class=CODE,merge=1,delta=2
    20                           	psect	text12,local,class=CODE,merge=1,delta=2
    21                           	psect	text13,local,class=CODE,merge=1,delta=2
    22                           	psect	text14,local,class=CODE,merge=1,delta=2
    23                           	psect	config,global,abs,ovrld,class=CONFIG,space=4,delta=2,noexec
    24                           	dabs	1,0x7E,2
    25  0000                     
    26                           ; Version 2.32
    27                           ; Generated 02/02/2021 GMT
    28                           ; 
    29                           ; Copyright © 2021, Microchip Technology Inc. and its subsidiaries ("Microchip")
    30                           ; All rights reserved.
    31                           ; 
    32                           ; This software is developed by Microchip Technology Inc. and its subsidiaries ("Microch
      +                          ip").
    33                           ; 
    34                           ; Redistribution and use in source and binary forms, with or without modification, are
    35                           ; permitted provided that the following conditions are met:
    36                           ; 
    37                           ;     1. Redistributions of source code must retain the above copyright notice, this lis
      +                          t of
    38                           ;        conditions and the following disclaimer.
    39                           ; 
    40                           ;     2. Redistributions in binary form must reproduce the above copyright notice, this 
      +                          list
    41                           ;        of conditions and the following disclaimer in the documentation and/or other
    42                           ;        materials provided with the distribution. Publication is not required when
    43                           ;        this file is used in an embedded application.
    44                           ; 
    45                           ;     3. Microchip's name may not be used to endorse or promote products derived from th
      +                          is
    46                           ;        software without specific prior written permission.
    47                           ; 
    48                           ; THIS SOFTWARE IS PROVIDED BY MICROCHIP "AS IS" AND ANY EXPRESS OR IMPLIED WARRANTIES,
    49                           ; INCLUDING, BUT NOT LIMITED TO, THE IMPLIED WARRANTIES OF MERCHANTABILITY AND FITNESS F
      +                          OR
    50                           ; PURPOSE ARE DISCLAIMED.  IN NO EVENT SHALL MICROCHIP BE LIABLE FOR ANY DIRECT, INDIREC
      +                          T,
    51                           ; INCIDENTAL, SPECIAL, EXEMPLARY, OR CONSEQUENTIAL DAMAGES (INCLUDING BUT NOT LIMITED TO
    52                           ; PROCUREMENT OF SUBSTITUTE GOODS OR SERVICES; LOSS OF USE, DATA OR PROFITS; OR BUSINESS
    53                           ; INTERRUPTION) HOWSOEVER CAUSED AND ON ANY THEORY OF LIABILITY, WHETHER IN CONTRACT, ST
      +                          RICT
    54                           ; LIABILITY, OR TORT (INCLUDING NEGLIGENCE OR OTHERWISE) ARISING IN ANY WAY OUT OF THE U
      +                          SE OF
    55                           ; THIS SOFTWARE, EVEN IF ADVISED OF THE POSSIBILITY OF SUCH DAMAGE.
    56                           ; 
    57                           ; 
    58                           ; Code-generator required, PIC16F877A Definitions
    59                           ; 
    60                           ; SFR Addresses
    61  0000                     	;# 
    62  0001                     	;# 
    63  0002                     	;# 
    64  0003                     	;# 
    65  0004                     	;# 
    66  0005                     	;# 
    67  0006                     	;# 
    68  0007                     	;# 
    69  0008                     	;# 
    70  0009                     	;# 
    71  000A                     	;# 
    72  000B                     	;# 
    73  000C                     	;# 
    74  000D                     	;# 
    75  000E                     	;# 
    76  000E                     	;# 
    77  000F                     	;# 
    78  0010                     	;# 
    79  0011                     	;# 
    80  0012                     	;# 
    81  0013                     	;# 
    82  0014                     	;# 
    83  0015                     	;# 
    84  0015                     	;# 
    85  0016                     	;# 
    86  0017                     	;# 
    87  0018                     	;# 
    88  0019                     	;# 
    89  001A                     	;# 
    90  001B                     	;# 
    91  001B                     	;# 
    92  001C                     	;# 
    93  001D                     	;# 
    94  001E                     	;# 
    95  001F                     	;# 
    96  0081                     	;# 
    97  0085                     	;# 
    98  0086                     	;# 
    99  0087                     	;# 
   100  0088                     	;# 
   101  0089                     	;# 
   102  008C                     	;# 
   103  008D                     	;# 
   104  008E                     	;# 
   105  0091                     	;# 
   106  0092                     	;# 
   107  0093                     	;# 
   108  0094                     	;# 
   109  0098                     	;# 
   110  0099                     	;# 
   111  009C                     	;# 
   112  009D                     	;# 
   113  009E                     	;# 
   114  009F                     	;# 
   115  010C                     	;# 
   116  010D                     	;# 
   117  010E                     	;# 
   118  010F                     	;# 
   119  018C                     	;# 
   120  018D                     	;# 
   121  0000                     	;# 
   122  0001                     	;# 
   123  0002                     	;# 
   124  0003                     	;# 
   125  0004                     	;# 
   126  0005                     	;# 
   127  0006                     	;# 
   128  0007                     	;# 
   129  0008                     	;# 
   130  0009                     	;# 
   131  000A                     	;# 
   132  000B                     	;# 
   133  000C                     	;# 
   134  000D                     	;# 
   135  000E                     	;# 
   136  000E                     	;# 
   137  000F                     	;# 
   138  0010                     	;# 
   139  0011                     	;# 
   140  0012                     	;# 
   141  0013                     	;# 
   142  0014                     	;# 
   143  0015                     	;# 
   144  0015                     	;# 
   145  0016                     	;# 
   146  0017                     	;# 
   147  0018                     	;# 
   148  0019                     	;# 
   149  001A                     	;# 
   150  001B                     	;# 
   151  001B                     	;# 
   152  001C                     	;# 
   153  001D                     	;# 
   154  001E                     	;# 
   155  001F                     	;# 
   156  0081                     	;# 
   157  0085                     	;# 
   158  0086                     	;# 
   159  0087                     	;# 
   160  0088                     	;# 
   161  0089                     	;# 
   162  008C                     	;# 
   163  008D                     	;# 
   164  008E                     	;# 
   165  0091                     	;# 
   166  0092                     	;# 
   167  0093                     	;# 
   168  0094                     	;# 
   169  0098                     	;# 
   170  0099                     	;# 
   171  009C                     	;# 
   172  009D                     	;# 
   173  009E                     	;# 
   174  009F                     	;# 
   175  010C                     	;# 
   176  010D                     	;# 
   177  010E                     	;# 
   178  010F                     	;# 
   179  018C                     	;# 
   180  018D                     	;# 
   181  000E                     _TMR1L	set	14
   182  000F                     _TMR1H	set	15
   183  0010                     _T1CONbits	set	16
   184  0007                     _PORTC	set	7
   185  0006                     _PORTBbits	set	6
   186  009F                     _ADCON1	set	159
   187  0087                     _TRISC	set	135
   188  0086                     _TRISBbits	set	134
   189                           
   190                           	psect	strings
   191  0800                     __pstrings:
   192  0800                     stringtab:
   193  0800                     __stringtab:
   194  0800                     stringcode:	
   195                           ;	String table - string pointers are 1 byte each
   196                           
   197  0800                     stringdir:
   198  0800  3008               	movlw	high stringdir
   199  0801  008A               	movwf	10
   200  0802  0804               	movf	4,w
   201  0803  0A84               	incf	4,f
   202  0804  0782               	addwf	2,f
   203  0805                     __stringbase:
   204  0805  3400               	retlw	0
   205  0806                     __end_of__stringtab:
   206  0806                     STR_1:
   207  0806  3444               	retlw	68	;'D'
   208  0807  3469               	retlw	105	;'i'
   209  0808  3473               	retlw	115	;'s'
   210  0809  3474               	retlw	116	;'t'
   211  080A  3461               	retlw	97	;'a'
   212  080B  346E               	retlw	110	;'n'
   213  080C  3463               	retlw	99	;'c'
   214  080D  3465               	retlw	101	;'e'
   215  080E  343A               	retlw	58	;':'
   216  080F  3420               	retlw	32	;' '
   217  0810  3458               	retlw	88	;'X'
   218  0811  3458               	retlw	88	;'X'
   219  0812  3458               	retlw	88	;'X'
   220  0813  3463               	retlw	99	;'c'
   221  0814  346D               	retlw	109	;'m'
   222  0815  3400               	retlw	0
   223  0816                     STR_3:
   224  0816  3440               	retlw	64	;'@'
   225  0817  345F               	retlw	95	;'_'
   226  0818  3440               	retlw	64	;'@'
   227  0819  3400               	retlw	0
   228  081A                     STR_2:
   229  081A  344C               	retlw	76	;'L'
   230  081B  3456               	retlw	86	;'V'
   231  081C  3451               	retlw	81	;'Q'
   232  081D  3400               	retlw	0
   233                           
   234                           	psect	cinit
   235  07FC                     start_initialization:	
   236                           ; #config settings
   237                           
   238  07FC                     __initialization:
   239  07FC                     end_of_initialization:	
   240                           ;End of C runtime variable initialization code
   241                           
   242  07FC                     __end_of__initialization:
   243  07FC  0183               	clrf	3
   244  07FD  120A  118A  2983   	ljmp	_main	;jump to C main() function
   245                           
   246                           	psect	cstackCOMMON
   247  0070                     __pcstackCOMMON:
   248  0070                     ?_LCD_Cmd:
   249  0070                     ??_LCD_Cmd:	
   250                           ; 1 bytes @ 0x0
   251                           
   252  0070                     ?_LCD_Cmd_Init:	
   253                           ; 1 bytes @ 0x0
   254                           
   255  0070                     ??_LCD_Cmd_Init:	
   256                           ; 1 bytes @ 0x0
   257                           
   258  0070                     ?_LCD_Init:	
   259                           ; 1 bytes @ 0x0
   260                           
   261  0070                     ?_LCD_Char:	
   262                           ; 1 bytes @ 0x0
   263                           
   264  0070                     ??_LCD_Char:	
   265                           ; 1 bytes @ 0x0
   266                           
   267  0070                     ?_LCD_String:	
   268                           ; 1 bytes @ 0x0
   269                           
   270  0070                     ?_main:	
   271                           ; 1 bytes @ 0x0
   272                           
   273  0070                     ?__Umul8_16:	
   274                           ; 1 bytes @ 0x0
   275                           
   276  0070                     ?___lwdiv:	
   277                           ; 2 bytes @ 0x0
   278                           
   279  0070                     ?___xxtofl:	
   280                           ; 2 bytes @ 0x0
   281                           
   282  0070                     __Umul8_16@multiplicand:	
   283                           ; 4 bytes @ 0x0
   284                           
   285  0070                     ___lwdiv@divisor:	
   286                           ; 1 bytes @ 0x0
   287                           
   288  0070                     ___xxtofl@val:	
   289                           ; 2 bytes @ 0x0
   290                           
   291                           
   292                           ; 4 bytes @ 0x0
   293  0070                     	ds	1
   294  0071                     LCD_Cmd_Init@cmd:
   295                           
   296                           ; 1 bytes @ 0x1
   297  0071                     	ds	1
   298  0072                     ??__Umul8_16:
   299  0072                     LCD_Cmd@cmd:	
   300                           ; 1 bytes @ 0x2
   301                           
   302  0072                     LCD_Char@c:	
   303                           ; 1 bytes @ 0x2
   304                           
   305  0072                     ___lwdiv@dividend:	
   306                           ; 1 bytes @ 0x2
   307                           
   308                           
   309                           ; 2 bytes @ 0x2
   310  0072                     	ds	1
   311  0073                     ??_LCD_Init:
   312  0073                     ??_LCD_String:	
   313                           ; 1 bytes @ 0x3
   314                           
   315                           
   316                           ; 1 bytes @ 0x3
   317  0073                     	ds	1
   318  0074                     ??___lwdiv:
   319  0074                     ??___xxtofl:	
   320                           ; 1 bytes @ 0x4
   321                           
   322  0074                     LCD_String@str:	
   323                           ; 1 bytes @ 0x4
   324                           
   325  0074                     __Umul8_16@product:	
   326                           ; 1 bytes @ 0x4
   327                           
   328                           
   329                           ; 2 bytes @ 0x4
   330  0074                     	ds	1
   331  0075                     LCD_String@i:
   332  0075                     ___lwdiv@quotient:	
   333                           ; 1 bytes @ 0x5
   334                           
   335                           
   336                           ; 2 bytes @ 0x5
   337  0075                     	ds	1
   338  0076                     ?_LCD_GotoCursor_String:
   339  0076                     LCD_GotoCursor_String@col:	
   340                           ; 1 bytes @ 0x6
   341                           
   342  0076                     __Umul8_16@word_mpld:	
   343                           ; 1 bytes @ 0x6
   344                           
   345                           
   346                           ; 2 bytes @ 0x6
   347  0076                     	ds	1
   348  0077                     LCD_GotoCursor_String@str:
   349  0077                     ___lwdiv@counter:	
   350                           ; 1 bytes @ 0x7
   351                           
   352                           
   353                           ; 1 bytes @ 0x7
   354  0077                     	ds	1
   355  0078                     ?_LCD_GotoCursor_Char:
   356  0078                     ??_LCD_GotoCursor_String:	
   357                           ; 1 bytes @ 0x8
   358                           
   359  0078                     ?___lwmod:	
   360                           ; 1 bytes @ 0x8
   361                           
   362  0078                     LCD_GotoCursor_Char@col:	
   363                           ; 2 bytes @ 0x8
   364                           
   365  0078                     __Umul8_16@multiplier:	
   366                           ; 1 bytes @ 0x8
   367                           
   368  0078                     ___xxtofl@sign:	
   369                           ; 1 bytes @ 0x8
   370                           
   371  0078                     ___lwmod@divisor:	
   372                           ; 1 bytes @ 0x8
   373                           
   374                           
   375                           ; 2 bytes @ 0x8
   376  0078                     	ds	1
   377  0079                     LCD_GotoCursor_Char@c:
   378  0079                     LCD_GotoCursor_String@row:	
   379                           ; 1 bytes @ 0x9
   380                           
   381  0079                     ___xxtofl@exp:	
   382                           ; 1 bytes @ 0x9
   383                           
   384                           
   385                           ; 1 bytes @ 0x9
   386  0079                     	ds	1
   387  007A                     ??_LCD_GotoCursor_Char:
   388  007A                     _LCD_GotoCursor_String$155:	
   389                           ; 1 bytes @ 0xA
   390                           
   391  007A                     ___lwmod@dividend:	
   392                           ; 2 bytes @ 0xA
   393                           
   394  007A                     ___xxtofl@arg:	
   395                           ; 2 bytes @ 0xA
   396                           
   397                           
   398                           ; 4 bytes @ 0xA
   399  007A                     	ds	2
   400  007C                     ??___lwmod:
   401  007C                     LCD_GotoCursor_String@cmd:	
   402                           ; 1 bytes @ 0xC
   403                           
   404                           
   405                           ; 1 bytes @ 0xC
   406  007C                     	ds	1
   407  007D                     ___lwmod@counter:
   408                           
   409                           ; 1 bytes @ 0xD
   410  007D                     	ds	1
   411                           
   412                           	psect	cstackBANK0
   413  0020                     __pcstackBANK0:
   414  0020                     ?___flmul:
   415  0020                     LCD_GotoCursor_Char@row:	
   416                           ; 4 bytes @ 0x0
   417                           
   418  0020                     ___flmul@b:	
   419                           ; 1 bytes @ 0x0
   420                           
   421                           
   422                           ; 4 bytes @ 0x0
   423  0020                     	ds	1
   424  0021                     _LCD_GotoCursor_Char$149:
   425                           
   426                           ; 2 bytes @ 0x1
   427  0021                     	ds	2
   428  0023                     LCD_GotoCursor_Char@cmd:
   429                           
   430                           ; 1 bytes @ 0x3
   431  0023                     	ds	1
   432  0024                     ___flmul@a:
   433                           
   434                           ; 4 bytes @ 0x4
   435  0024                     	ds	4
   436  0028                     ??___flmul:
   437                           
   438                           ; 1 bytes @ 0x8
   439  0028                     	ds	5
   440  002D                     ___flmul@sign:
   441                           
   442                           ; 1 bytes @ 0xD
   443  002D                     	ds	1
   444  002E                     ___flmul@grs:
   445                           
   446                           ; 4 bytes @ 0xE
   447  002E                     	ds	4
   448  0032                     ___flmul@aexp:
   449                           
   450                           ; 1 bytes @ 0x12
   451  0032                     	ds	1
   452  0033                     ___flmul@bexp:
   453                           
   454                           ; 1 bytes @ 0x13
   455  0033                     	ds	1
   456  0034                     ___flmul@prod:
   457                           
   458                           ; 4 bytes @ 0x14
   459  0034                     	ds	4
   460  0038                     ___flmul@temp:
   461                           
   462                           ; 2 bytes @ 0x18
   463  0038                     	ds	2
   464  003A                     ?___fldiv:
   465  003A                     ___fldiv@a:	
   466                           ; 4 bytes @ 0x1A
   467                           
   468                           
   469                           ; 4 bytes @ 0x1A
   470  003A                     	ds	4
   471  003E                     ___fldiv@b:
   472                           
   473                           ; 4 bytes @ 0x1E
   474  003E                     	ds	4
   475  0042                     ??___fldiv:
   476                           
   477                           ; 1 bytes @ 0x22
   478  0042                     	ds	5
   479  0047                     ___fldiv@rem:
   480                           
   481                           ; 4 bytes @ 0x27
   482  0047                     	ds	4
   483  004B                     ___fldiv@sign:
   484                           
   485                           ; 1 bytes @ 0x2B
   486  004B                     	ds	1
   487  004C                     ___fldiv@new_exp:
   488                           
   489                           ; 2 bytes @ 0x2C
   490  004C                     	ds	2
   491  004E                     ___fldiv@grs:
   492                           
   493                           ; 4 bytes @ 0x2E
   494  004E                     	ds	4
   495  0052                     ___fldiv@bexp:
   496                           
   497                           ; 1 bytes @ 0x32
   498  0052                     	ds	1
   499  0053                     ___fldiv@aexp:
   500                           
   501                           ; 1 bytes @ 0x33
   502  0053                     	ds	1
   503  0054                     ?___fltol:
   504  0054                     ___fltol@f1:	
   505                           ; 4 bytes @ 0x34
   506                           
   507                           
   508                           ; 4 bytes @ 0x34
   509  0054                     	ds	4
   510  0058                     ??___fltol:
   511                           
   512                           ; 1 bytes @ 0x38
   513  0058                     	ds	5
   514  005D                     ___fltol@sign1:
   515                           
   516                           ; 1 bytes @ 0x3D
   517  005D                     	ds	1
   518  005E                     ___fltol@exp1:
   519                           
   520                           ; 1 bytes @ 0x3E
   521  005E                     	ds	1
   522  005F                     ??_main:
   523                           
   524                           ; 1 bytes @ 0x3F
   525  005F                     	ds	3
   526  0062                     main@distance:
   527                           
   528                           ; 2 bytes @ 0x42
   529  0062                     	ds	2
   530  0064                     main@time:
   531                           
   532                           ; 2 bytes @ 0x44
   533  0064                     	ds	2
   534                           
   535                           	psect	maintext
   536  0183                     __pmaintext:	
   537 ;;
   538 ;;Main: autosize = 0, tempsize = 3, incstack = 0, save=0
   539 ;;
   540 ;; *************** function _main *****************
   541 ;; Defined at:
   542 ;;		line 146 in file "newmain.c"
   543 ;; Parameters:    Size  Location     Type
   544 ;;		None
   545 ;; Auto vars:     Size  Location     Type
   546 ;;  time            2   68[BANK0 ] unsigned int 
   547 ;;  distance        2   66[BANK0 ] unsigned int 
   548 ;; Return value:  Size  Location     Type
   549 ;;                  1    wreg      void 
   550 ;; Registers used:
   551 ;;		wreg, fsr0l, fsr0h, status,2, status,0, btemp+1, pclath, cstack
   552 ;; Tracked objects:
   553 ;;		On entry : B00/0
   554 ;;		On exit  : 0/0
   555 ;;		Unchanged: 0/0
   556 ;; Data sizes:     COMMON   BANK0   BANK1   BANK3   BANK2
   557 ;;      Params:         0       0       0       0       0
   558 ;;      Locals:         0       4       0       0       0
   559 ;;      Temps:          0       3       0       0       0
   560 ;;      Totals:         0       7       0       0       0
   561 ;;Total ram usage:        7 bytes
   562 ;; Hardware stack levels required when called: 3
   563 ;; This function calls:
   564 ;;		_LCD_Char
   565 ;;		_LCD_GotoCursor_Char
   566 ;;		_LCD_GotoCursor_String
   567 ;;		_LCD_Init
   568 ;;		___fldiv
   569 ;;		___flmul
   570 ;;		___fltol
   571 ;;		___lwdiv
   572 ;;		___lwmod
   573 ;;		___xxtofl
   574 ;; This function is called by:
   575 ;;		Startup code after reset
   576 ;; This function uses a non-reentrant model
   577 ;;
   578                           
   579                           
   580                           ;psect for function _main
   581  0183                     _main:
   582  0183                     l1777:	
   583                           ;incstack = 0
   584                           ; Regs used in _main: [wreg-fsr0h+status,2+status,0+btemp+1+pclath+cstack]
   585                           
   586                           
   587                           ;newmain.c: 148:     LCD_Init();
   588  0183  120A  158A  27BF  120A  118A  	fcall	_LCD_Init
   589  0188                     l1779:
   590                           
   591                           ;newmain.c: 150:     ADCON1 |= 0x07;
   592  0188  3007               	movlw	7
   593  0189  1283               	bcf	3,5	;RP0=0, select bank0
   594  018A  1303               	bcf	3,6	;RP1=0, select bank0
   595  018B  00DF               	movwf	??_main
   596  018C  085F               	movf	??_main,w
   597  018D  1683               	bsf	3,5	;RP0=1, select bank1
   598  018E  1303               	bcf	3,6	;RP1=0, select bank1
   599  018F  049F               	iorwf	31,f	;volatile
   600  0190                     l1781:
   601  0190                     l1783:
   602  0190                     l1785:
   603                           
   604                           ;newmain.c: 153:     TRISBbits.TRISB0 = 0;
   605  0190  1006               	bcf	6,0	;volatile
   606  0191                     l1787:
   607                           
   608                           ;newmain.c: 154:     TRISBbits.TRISB1 = 1;
   609  0191  1486               	bsf	6,1	;volatile
   610  0192                     l1789:
   611                           
   612                           ;newmain.c: 156:     T1CONbits.TMR1CS = 0;
   613  0192  1283               	bcf	3,5	;RP0=0, select bank0
   614  0193  1303               	bcf	3,6	;RP1=0, select bank0
   615  0194  1090               	bcf	16,1	;volatile
   616  0195                     l1791:
   617                           
   618                           ;newmain.c: 157:     T1CONbits.T1CKPS1 = 1;
   619  0195  1690               	bsf	16,5	;volatile
   620  0196                     l1793:
   621                           
   622                           ;newmain.c: 158:     T1CONbits.T1CKPS0 = 0;
   623  0196  1210               	bcf	16,4	;volatile
   624  0197                     l1795:
   625                           
   626                           ;newmain.c: 160:     LCD_GotoCursor_String(1,1,"Distance: XXXcm");
   627  0197  01F6               	clrf	LCD_GotoCursor_String@col
   628  0198  0AF6               	incf	LCD_GotoCursor_String@col,f
   629  0199  3001               	movlw	(low ((STR_1-__stringbase)| (0+32768)))& (0+255)
   630  019A  00DF               	movwf	??_main
   631  019B  085F               	movf	??_main,w
   632  019C  00F7               	movwf	LCD_GotoCursor_String@str
   633  019D  3001               	movlw	1
   634  019E  120A  158A  26EA  120A  118A  	fcall	_LCD_GotoCursor_String
   635  01A3                     l1797:
   636                           
   637                           ;newmain.c: 161:     LCD_GotoCursor_String(2,1, "LVQ");
   638  01A3  01F6               	clrf	LCD_GotoCursor_String@col
   639  01A4  0AF6               	incf	LCD_GotoCursor_String@col,f
   640  01A5  3015               	movlw	(low ((STR_2-__stringbase)| (0+32768)))& (0+255)
   641  01A6  1283               	bcf	3,5	;RP0=0, select bank0
   642  01A7  1303               	bcf	3,6	;RP1=0, select bank0
   643  01A8  00DF               	movwf	??_main
   644  01A9  085F               	movf	??_main,w
   645  01AA  00F7               	movwf	LCD_GotoCursor_String@str
   646  01AB  3002               	movlw	2
   647  01AC  120A  158A  26EA  120A  118A  	fcall	_LCD_GotoCursor_String
   648  01B1                     l1799:
   649                           
   650                           ;newmain.c: 164:     {;newmain.c: 165:         PORTBbits.RB0 = 1;
   651  01B1  1283               	bcf	3,5	;RP0=0, select bank0
   652  01B2  1303               	bcf	3,6	;RP1=0, select bank0
   653  01B3  1406               	bsf	6,0	;volatile
   654  01B4                     l1801:
   655                           
   656                           ;newmain.c: 166:         _delay((unsigned long)((15)*(20000000/4000.0)));
   657  01B4  3062               	movlw	98
   658  01B5  1283               	bcf	3,5	;RP0=0, select bank0
   659  01B6  1303               	bcf	3,6	;RP1=0, select bank0
   660  01B7  00E0               	movwf	??_main+1
   661  01B8  3065               	movlw	101
   662  01B9  00DF               	movwf	??_main
   663  01BA                     u2377:
   664  01BA  0BDF               	decfsz	??_main,f
   665  01BB  29BA               	goto	u2377
   666  01BC  0BE0               	decfsz	??_main+1,f
   667  01BD  29BA               	goto	u2377
   668  01BE                     l1803:
   669                           
   670                           ;newmain.c: 167:         PORTBbits.RB0 = 0;
   671  01BE  1283               	bcf	3,5	;RP0=0, select bank0
   672  01BF  1303               	bcf	3,6	;RP1=0, select bank0
   673  01C0  1006               	bcf	6,0	;volatile
   674  01C1                     l65:	
   675                           ;newmain.c: 169:         while(PORTBbits.RB1 == 0);
   676                           
   677  01C1  1C86               	btfss	6,1	;volatile
   678  01C2  29C4               	goto	u2321
   679  01C3  29C5               	goto	u2320
   680  01C4                     u2321:
   681  01C4  29C1               	goto	l65
   682  01C5                     u2320:
   683  01C5                     l67:
   684                           
   685                           ;newmain.c: 170:         T1CONbits.TMR1ON = 1;
   686  01C5  1410               	bsf	16,0	;volatile
   687  01C6                     l68:	
   688                           ;newmain.c: 171:         while(PORTBbits.RB1 == 1);
   689                           
   690  01C6  1886               	btfsc	6,1	;volatile
   691  01C7  29C9               	goto	u2331
   692  01C8  29CA               	goto	u2330
   693  01C9                     u2331:
   694  01C9  29C6               	goto	l68
   695  01CA                     u2330:
   696  01CA                     l70:
   697                           
   698                           ;newmain.c: 172:         T1CONbits.TMR1ON = 0;
   699  01CA  1010               	bcf	16,0	;volatile
   700  01CB                     l1805:
   701                           
   702                           ;newmain.c: 174:         time = TMR1H;
   703  01CB  080F               	movf	15,w	;volatile
   704  01CC  00DF               	movwf	??_main
   705  01CD  01E0               	clrf	??_main+1
   706  01CE  085F               	movf	??_main,w
   707  01CF  00E4               	movwf	main@time
   708  01D0  0860               	movf	??_main+1,w
   709  01D1  00E5               	movwf	main@time+1
   710                           
   711                           ;newmain.c: 175:         time <<= 8;
   712  01D2  3008               	movlw	8
   713  01D3                     u2345:
   714  01D3  1003               	clrc
   715  01D4  0DE4               	rlf	main@time,f
   716  01D5  0DE5               	rlf	main@time+1,f
   717  01D6  3EFF               	addlw	-1
   718  01D7  1D03               	skipz
   719  01D8  29D3               	goto	u2345
   720                           
   721                           ;newmain.c: 176:         time |= TMR1L;
   722  01D9  080E               	movf	14,w	;volatile
   723  01DA  00DF               	movwf	??_main
   724  01DB  01E0               	clrf	??_main+1
   725  01DC  085F               	movf	??_main,w
   726  01DD  04E4               	iorwf	main@time,f
   727  01DE  0860               	movf	??_main+1,w
   728  01DF  04E5               	iorwf	main@time+1,f
   729                           
   730                           ;newmain.c: 178:         if(time > 125 && time < 31250)
   731  01E0  3000               	movlw	0
   732  01E1  0265               	subwf	main@time+1,w
   733  01E2  307E               	movlw	126
   734  01E3  1903               	skipnz
   735  01E4  0264               	subwf	main@time,w
   736  01E5  1C03               	skipc
   737  01E6  29E8               	goto	u2351
   738  01E7  29E9               	goto	u2350
   739  01E8                     u2351:
   740  01E8  2A99               	goto	l1817
   741  01E9                     u2350:
   742  01E9                     l1807:
   743  01E9  307A               	movlw	122
   744  01EA  0265               	subwf	main@time+1,w
   745  01EB  3012               	movlw	18
   746  01EC  1903               	skipnz
   747  01ED  0264               	subwf	main@time,w
   748  01EE  1803               	skipnc
   749  01EF  29F1               	goto	u2361
   750  01F0  29F2               	goto	u2360
   751  01F1                     u2361:
   752  01F1  2A99               	goto	l1817
   753  01F2                     u2360:
   754  01F2                     l1809:
   755                           
   756                           ;newmain.c: 179:         {;newmain.c: 180:             distance = (time*0.8/58);
   757  01F2  0864               	movf	main@time,w
   758  01F3  00F0               	movwf	___xxtofl@val
   759  01F4  0865               	movf	main@time+1,w
   760  01F5  00F1               	movwf	___xxtofl@val+1
   761  01F6  01F2               	clrf	___xxtofl@val+2
   762  01F7  01F3               	clrf	___xxtofl@val+3
   763  01F8  3000               	movlw	0
   764  01F9  120A  118A  20C9  120A  118A  	fcall	___xxtofl
   765  01FE  0873               	movf	?___xxtofl+3,w
   766  01FF  1283               	bcf	3,5	;RP0=0, select bank0
   767  0200  1303               	bcf	3,6	;RP1=0, select bank0
   768  0201  00A7               	movwf	___flmul@a+3
   769  0202  0872               	movf	?___xxtofl+2,w
   770  0203  00A6               	movwf	___flmul@a+2
   771  0204  0871               	movf	?___xxtofl+1,w
   772  0205  00A5               	movwf	___flmul@a+1
   773  0206  0870               	movf	?___xxtofl,w
   774  0207  00A4               	movwf	___flmul@a
   775  0208  303F               	movlw	63
   776  0209  00A3               	movwf	___flmul@b+3
   777  020A  304C               	movlw	76
   778  020B  00A2               	movwf	___flmul@b+2
   779  020C  30CC               	movlw	204
   780  020D  00A1               	movwf	___flmul@b+1
   781  020E  30CD               	movlw	205
   782  020F  00A0               	movwf	___flmul@b
   783  0210  120A  118A  249B  120A  118A  	fcall	___flmul
   784  0215  1283               	bcf	3,5	;RP0=0, select bank0
   785  0216  1303               	bcf	3,6	;RP1=0, select bank0
   786  0217  0823               	movf	?___flmul+3,w
   787  0218  00C1               	movwf	___fldiv@b+3
   788  0219  0822               	movf	?___flmul+2,w
   789  021A  00C0               	movwf	___fldiv@b+2
   790  021B  0821               	movf	?___flmul+1,w
   791  021C  00BF               	movwf	___fldiv@b+1
   792  021D  0820               	movf	?___flmul,w
   793  021E  00BE               	movwf	___fldiv@b
   794  021F  3042               	movlw	66
   795  0220  00BD               	movwf	___fldiv@a+3
   796  0221  3068               	movlw	104
   797  0222  00BC               	movwf	___fldiv@a+2
   798  0223  3000               	movlw	0
   799  0224  00BB               	movwf	___fldiv@a+1
   800  0225  3000               	movlw	0
   801  0226  00BA               	movwf	___fldiv@a
   802  0227  120A  118A  22BE  120A  118A  	fcall	___fldiv
   803  022C  1283               	bcf	3,5	;RP0=0, select bank0
   804  022D  1303               	bcf	3,6	;RP1=0, select bank0
   805  022E  083D               	movf	?___fldiv+3,w
   806  022F  00D7               	movwf	___fltol@f1+3
   807  0230  083C               	movf	?___fldiv+2,w
   808  0231  00D6               	movwf	___fltol@f1+2
   809  0232  083B               	movf	?___fldiv+1,w
   810  0233  00D5               	movwf	___fltol@f1+1
   811  0234  083A               	movf	?___fldiv,w
   812  0235  00D4               	movwf	___fltol@f1
   813  0236  120A  118A  204D  120A  118A  	fcall	___fltol
   814  023B  1283               	bcf	3,5	;RP0=0, select bank0
   815  023C  1303               	bcf	3,6	;RP1=0, select bank0
   816  023D  0855               	movf	?___fltol+1,w
   817  023E  00E3               	movwf	main@distance+1
   818  023F  0854               	movf	?___fltol,w
   819  0240  00E2               	movwf	main@distance
   820  0241                     l1811:
   821                           
   822                           ;newmain.c: 181:             LCD_GotoCursor_Char(1,11, distance/100+0x30);
   823  0241  300B               	movlw	11
   824  0242  00DF               	movwf	??_main
   825  0243  085F               	movf	??_main,w
   826  0244  00F8               	movwf	LCD_GotoCursor_Char@col
   827  0245  3064               	movlw	100
   828  0246  00F0               	movwf	___lwdiv@divisor
   829  0247  3000               	movlw	0
   830  0248  00F1               	movwf	___lwdiv@divisor+1
   831  0249  0863               	movf	main@distance+1,w
   832  024A  00F3               	movwf	___lwdiv@dividend+1
   833  024B  0862               	movf	main@distance,w
   834  024C  00F2               	movwf	___lwdiv@dividend
   835  024D  120A  118A  2009  120A  118A  	fcall	___lwdiv
   836  0252  0870               	movf	?___lwdiv,w
   837  0253  3E30               	addlw	48
   838  0254  1283               	bcf	3,5	;RP0=0, select bank0
   839  0255  1303               	bcf	3,6	;RP1=0, select bank0
   840  0256  00E0               	movwf	??_main+1
   841  0257  0860               	movf	??_main+1,w
   842  0258  00F9               	movwf	LCD_GotoCursor_Char@c
   843  0259  3001               	movlw	1
   844  025A  120A  158A  270C  120A  118A  	fcall	_LCD_GotoCursor_Char
   845  025F                     l1813:
   846                           
   847                           ;newmain.c: 182:             LCD_Char(distance/10%10+0x30);
   848  025F  300A               	movlw	10
   849  0260  00F8               	movwf	___lwmod@divisor
   850  0261  3000               	movlw	0
   851  0262  00F9               	movwf	___lwmod@divisor+1
   852  0263  300A               	movlw	10
   853  0264  00F0               	movwf	___lwdiv@divisor
   854  0265  3000               	movlw	0
   855  0266  00F1               	movwf	___lwdiv@divisor+1
   856  0267  1283               	bcf	3,5	;RP0=0, select bank0
   857  0268  1303               	bcf	3,6	;RP1=0, select bank0
   858  0269  0863               	movf	main@distance+1,w
   859  026A  00F3               	movwf	___lwdiv@dividend+1
   860  026B  0862               	movf	main@distance,w
   861  026C  00F2               	movwf	___lwdiv@dividend
   862  026D  120A  118A  2009  120A  118A  	fcall	___lwdiv
   863  0272  0871               	movf	?___lwdiv+1,w
   864  0273  00FB               	movwf	___lwmod@dividend+1
   865  0274  0870               	movf	?___lwdiv,w
   866  0275  00FA               	movwf	___lwmod@dividend
   867  0276  120A  158A  2785  120A  118A  	fcall	___lwmod
   868  027B  0878               	movf	?___lwmod,w
   869  027C  3E30               	addlw	48
   870  027D  120A  158A  26AA  120A  118A  	fcall	_LCD_Char
   871  0282                     l1815:
   872                           
   873                           ;newmain.c: 183:             LCD_Char(distance%10+0x30);
   874  0282  300A               	movlw	10
   875  0283  00F8               	movwf	___lwmod@divisor
   876  0284  3000               	movlw	0
   877  0285  00F9               	movwf	___lwmod@divisor+1
   878  0286  1283               	bcf	3,5	;RP0=0, select bank0
   879  0287  1303               	bcf	3,6	;RP1=0, select bank0
   880  0288  0863               	movf	main@distance+1,w
   881  0289  00FB               	movwf	___lwmod@dividend+1
   882  028A  0862               	movf	main@distance,w
   883  028B  00FA               	movwf	___lwmod@dividend
   884  028C  120A  158A  2785  120A  118A  	fcall	___lwmod
   885  0291  0878               	movf	?___lwmod,w
   886  0292  3E30               	addlw	48
   887  0293  120A  158A  26AA  120A  118A  	fcall	_LCD_Char
   888                           
   889                           ;newmain.c: 184:         }
   890  0298  2AA7               	goto	l1819
   891  0299                     l1817:
   892                           
   893                           ;newmain.c: 186:         {;newmain.c: 187:             LCD_GotoCursor_String(1,11, "@_@"
      +                          );
   894  0299  300B               	movlw	11
   895  029A  00DF               	movwf	??_main
   896  029B  085F               	movf	??_main,w
   897  029C  00F6               	movwf	LCD_GotoCursor_String@col
   898  029D  3011               	movlw	(low ((STR_3-__stringbase)| (0+32768)))& (0+255)
   899  029E  00E0               	movwf	??_main+1
   900  029F  0860               	movf	??_main+1,w
   901  02A0  00F7               	movwf	LCD_GotoCursor_String@str
   902  02A1  3001               	movlw	1
   903  02A2  120A  158A  26EA  120A  118A  	fcall	_LCD_GotoCursor_String
   904  02A7                     l1819:
   905                           
   906                           ;newmain.c: 189:         TMR1H = TMR1L = 0;
   907  02A7  1283               	bcf	3,5	;RP0=0, select bank0
   908  02A8  1303               	bcf	3,6	;RP1=0, select bank0
   909  02A9  018E               	clrf	14	;volatile
   910  02AA  018F               	clrf	15	;volatile
   911  02AB                     l1821:
   912                           
   913                           ;newmain.c: 190:         _delay((unsigned long)((500)*(20000000/4000.0)));
   914  02AB  300D               	movlw	13
   915  02AC  1283               	bcf	3,5	;RP0=0, select bank0
   916  02AD  1303               	bcf	3,6	;RP1=0, select bank0
   917  02AE  00E1               	movwf	??_main+2
   918  02AF  30AF               	movlw	175
   919  02B0  00E0               	movwf	??_main+1
   920  02B1  30B5               	movlw	181
   921  02B2  00DF               	movwf	??_main
   922  02B3                     u2387:
   923  02B3  0BDF               	decfsz	??_main,f
   924  02B4  2AB3               	goto	u2387
   925  02B5  0BE0               	decfsz	??_main+1,f
   926  02B6  2AB3               	goto	u2387
   927  02B7  0BE1               	decfsz	??_main+2,f
   928  02B8  2AB3               	goto	u2387
   929  02B9  2ABA               	nop2
   930  02BA  29B1               	goto	l1799
   931  02BB  120A  118A  2800   	ljmp	start
   932  02BE                     __end_of_main:
   933                           
   934                           	psect	text1
   935  00C9                     __ptext1:	
   936 ;; *************** function ___xxtofl *****************
   937 ;; Defined at:
   938 ;;		line 10 in file "D:\File Install MBLAB IDE\XC8\pic\sources\c90\common\xxtofl.c"
   939 ;; Parameters:    Size  Location     Type
   940 ;;  sign            1    wreg     unsigned char 
   941 ;;  val             4    0[COMMON] long 
   942 ;; Auto vars:     Size  Location     Type
   943 ;;  sign            1    8[COMMON] unsigned char 
   944 ;;  arg             4   10[COMMON] unsigned long 
   945 ;;  exp             1    9[COMMON] unsigned char 
   946 ;; Return value:  Size  Location     Type
   947 ;;                  4    0[COMMON] unsigned char 
   948 ;; Registers used:
   949 ;;		wreg, status,2, status,0
   950 ;; Tracked objects:
   951 ;;		On entry : 0/0
   952 ;;		On exit  : 0/0
   953 ;;		Unchanged: 0/0
   954 ;; Data sizes:     COMMON   BANK0   BANK1   BANK3   BANK2
   955 ;;      Params:         4       0       0       0       0
   956 ;;      Locals:         6       0       0       0       0
   957 ;;      Temps:          4       0       0       0       0
   958 ;;      Totals:        14       0       0       0       0
   959 ;;Total ram usage:       14 bytes
   960 ;; Hardware stack levels used: 1
   961 ;; This function calls:
   962 ;;		Nothing
   963 ;; This function is called by:
   964 ;;		_main
   965 ;; This function uses a non-reentrant model
   966 ;;
   967                           
   968                           
   969                           ;psect for function ___xxtofl
   970  00C9                     ___xxtofl:
   971                           
   972                           ;incstack = 0
   973                           ; Regs used in ___xxtofl: [wreg+status,2+status,0]
   974                           ;___xxtofl@sign stored from wreg
   975  00C9  00F8               	movwf	___xxtofl@sign
   976  00CA                     l1723:
   977  00CA  0878               	movf	___xxtofl@sign,w
   978  00CB  1903               	btfsc	3,2
   979  00CC  28CE               	goto	u2171
   980  00CD  28CF               	goto	u2170
   981  00CE                     u2171:
   982  00CE  28E3               	goto	l1729
   983  00CF                     u2170:
   984  00CF                     l1725:
   985  00CF  1FF3               	btfss	___xxtofl@val+3,7
   986  00D0  28D2               	goto	u2181
   987  00D1  28D3               	goto	u2180
   988  00D2                     u2181:
   989  00D2  28E3               	goto	l1729
   990  00D3                     u2180:
   991  00D3                     l1727:
   992  00D3  0970               	comf	___xxtofl@val,w
   993  00D4  00FA               	movwf	___xxtofl@arg
   994  00D5  0971               	comf	___xxtofl@val+1,w
   995  00D6  00FB               	movwf	___xxtofl@arg+1
   996  00D7  0972               	comf	___xxtofl@val+2,w
   997  00D8  00FC               	movwf	___xxtofl@arg+2
   998  00D9  0973               	comf	___xxtofl@val+3,w
   999  00DA  00FD               	movwf	___xxtofl@arg+3
  1000  00DB  0AFA               	incf	___xxtofl@arg,f
  1001  00DC  1903               	skipnz
  1002  00DD  0AFB               	incf	___xxtofl@arg+1,f
  1003  00DE  1903               	skipnz
  1004  00DF  0AFC               	incf	___xxtofl@arg+2,f
  1005  00E0  1903               	skipnz
  1006  00E1  0AFD               	incf	___xxtofl@arg+3,f
  1007  00E2  28EB               	goto	l594
  1008  00E3                     l1729:
  1009  00E3  0873               	movf	___xxtofl@val+3,w
  1010  00E4  00FD               	movwf	___xxtofl@arg+3
  1011  00E5  0872               	movf	___xxtofl@val+2,w
  1012  00E6  00FC               	movwf	___xxtofl@arg+2
  1013  00E7  0871               	movf	___xxtofl@val+1,w
  1014  00E8  00FB               	movwf	___xxtofl@arg+1
  1015  00E9  0870               	movf	___xxtofl@val,w
  1016  00EA  00FA               	movwf	___xxtofl@arg
  1017  00EB                     l594:
  1018  00EB  0873               	movf	___xxtofl@val+3,w
  1019  00EC  0472               	iorwf	___xxtofl@val+2,w
  1020  00ED  0471               	iorwf	___xxtofl@val+1,w
  1021  00EE  0470               	iorwf	___xxtofl@val,w
  1022  00EF  1D03               	skipz
  1023  00F0  28F2               	goto	u2191
  1024  00F1  28F3               	goto	u2190
  1025  00F2                     u2191:
  1026  00F2  28FC               	goto	l1735
  1027  00F3                     u2190:
  1028  00F3                     l1731:
  1029  00F3  3000               	movlw	0
  1030  00F4  00F3               	movwf	?___xxtofl+3
  1031  00F5  3000               	movlw	0
  1032  00F6  00F2               	movwf	?___xxtofl+2
  1033  00F7  3000               	movlw	0
  1034  00F8  00F1               	movwf	?___xxtofl+1
  1035  00F9  3000               	movlw	0
  1036  00FA  00F0               	movwf	?___xxtofl
  1037  00FB  2982               	goto	l596
  1038  00FC                     l1735:
  1039  00FC  3096               	movlw	150
  1040  00FD  00F4               	movwf	??___xxtofl
  1041  00FE  0874               	movf	??___xxtofl,w
  1042  00FF  00F9               	movwf	___xxtofl@exp
  1043  0100  290E               	goto	l1739
  1044  0101                     l1737:
  1045  0101  3001               	movlw	1
  1046  0102  00F4               	movwf	??___xxtofl
  1047  0103  0874               	movf	??___xxtofl,w
  1048  0104  07F9               	addwf	___xxtofl@exp,f
  1049  0105  3001               	movlw	1
  1050  0106                     u2205:
  1051  0106  1003               	clrc
  1052  0107  0CFD               	rrf	___xxtofl@arg+3,f
  1053  0108  0CFC               	rrf	___xxtofl@arg+2,f
  1054  0109  0CFB               	rrf	___xxtofl@arg+1,f
  1055  010A  0CFA               	rrf	___xxtofl@arg,f
  1056  010B  3EFF               	addlw	-1
  1057  010C  1D03               	skipz
  1058  010D  2906               	goto	u2205
  1059  010E                     l1739:
  1060  010E  30FE               	movlw	254
  1061  010F  057D               	andwf	___xxtofl@arg+3,w
  1062  0110  1D03               	btfss	3,2
  1063  0111  2913               	goto	u2211
  1064  0112  2914               	goto	u2210
  1065  0113                     u2211:
  1066  0113  2901               	goto	l1737
  1067  0114                     u2210:
  1068  0114  2930               	goto	l600
  1069  0115                     l1741:
  1070  0115  3001               	movlw	1
  1071  0116  00F4               	movwf	??___xxtofl
  1072  0117  0874               	movf	??___xxtofl,w
  1073  0118  07F9               	addwf	___xxtofl@exp,f
  1074  0119                     l1743:
  1075  0119  3001               	movlw	1
  1076  011A  07FA               	addwf	___xxtofl@arg,f
  1077  011B  3000               	movlw	0
  1078  011C  1803               	skipnc
  1079  011D  3001               	movlw	1
  1080  011E  07FB               	addwf	___xxtofl@arg+1,f
  1081  011F  3000               	movlw	0
  1082  0120  1803               	skipnc
  1083  0121  3001               	movlw	1
  1084  0122  07FC               	addwf	___xxtofl@arg+2,f
  1085  0123  3000               	movlw	0
  1086  0124  1803               	skipnc
  1087  0125  3001               	movlw	1
  1088  0126  07FD               	addwf	___xxtofl@arg+3,f
  1089  0127                     l1745:
  1090  0127  3001               	movlw	1
  1091  0128                     u2225:
  1092  0128  1003               	clrc
  1093  0129  0CFD               	rrf	___xxtofl@arg+3,f
  1094  012A  0CFC               	rrf	___xxtofl@arg+2,f
  1095  012B  0CFB               	rrf	___xxtofl@arg+1,f
  1096  012C  0CFA               	rrf	___xxtofl@arg,f
  1097  012D  3EFF               	addlw	-1
  1098  012E  1D03               	skipz
  1099  012F  2928               	goto	u2225
  1100  0130                     l600:
  1101  0130  30FF               	movlw	255
  1102  0131  057D               	andwf	___xxtofl@arg+3,w
  1103  0132  1D03               	btfss	3,2
  1104  0133  2935               	goto	u2231
  1105  0134  2936               	goto	u2230
  1106  0135                     u2231:
  1107  0135  2915               	goto	l1741
  1108  0136                     u2230:
  1109  0136  2942               	goto	l1749
  1110  0137                     l1747:
  1111  0137  3001               	movlw	1
  1112  0138  02F9               	subwf	___xxtofl@exp,f
  1113  0139  3001               	movlw	1
  1114  013A  00F4               	movwf	??___xxtofl
  1115  013B                     u2245:
  1116  013B  1003               	clrc
  1117  013C  0DFA               	rlf	___xxtofl@arg,f
  1118  013D  0DFB               	rlf	___xxtofl@arg+1,f
  1119  013E  0DFC               	rlf	___xxtofl@arg+2,f
  1120  013F  0DFD               	rlf	___xxtofl@arg+3,f
  1121  0140  0BF4               	decfsz	??___xxtofl,f
  1122  0141  293B               	goto	u2245
  1123  0142                     l1749:
  1124  0142  1BFC               	btfsc	___xxtofl@arg+2,7
  1125  0143  2945               	goto	u2251
  1126  0144  2946               	goto	u2250
  1127  0145                     u2251:
  1128  0145  294C               	goto	l607
  1129  0146                     u2250:
  1130  0146                     l1751:
  1131  0146  3002               	movlw	2
  1132  0147  0279               	subwf	___xxtofl@exp,w
  1133  0148  1803               	skipnc
  1134  0149  294B               	goto	u2261
  1135  014A  294C               	goto	u2260
  1136  014B                     u2261:
  1137  014B  2937               	goto	l1747
  1138  014C                     u2260:
  1139  014C                     l607:
  1140  014C  1879               	btfsc	___xxtofl@exp,0
  1141  014D  294F               	goto	u2271
  1142  014E  2950               	goto	u2270
  1143  014F                     u2271:
  1144  014F  2958               	goto	l608
  1145  0150                     u2270:
  1146  0150                     l1753:
  1147  0150  30FF               	movlw	255
  1148  0151  05FA               	andwf	___xxtofl@arg,f
  1149  0152  30FF               	movlw	255
  1150  0153  05FB               	andwf	___xxtofl@arg+1,f
  1151  0154  307F               	movlw	127
  1152  0155  05FC               	andwf	___xxtofl@arg+2,f
  1153  0156  30FF               	movlw	255
  1154  0157  05FD               	andwf	___xxtofl@arg+3,f
  1155  0158                     l608:
  1156  0158  1003               	clrc
  1157  0159  0CF9               	rrf	___xxtofl@exp,f
  1158  015A                     l1755:
  1159  015A  0879               	movf	___xxtofl@exp,w
  1160  015B  00F4               	movwf	??___xxtofl
  1161  015C  01F5               	clrf	??___xxtofl+1
  1162  015D  01F6               	clrf	??___xxtofl+2
  1163  015E  01F7               	clrf	??___xxtofl+3
  1164  015F  3018               	movlw	24
  1165  0160                     u2285:
  1166  0160  1003               	clrc
  1167  0161  0DF4               	rlf	??___xxtofl,f
  1168  0162  0DF5               	rlf	??___xxtofl+1,f
  1169  0163  0DF6               	rlf	??___xxtofl+2,f
  1170  0164  0DF7               	rlf	??___xxtofl+3,f
  1171  0165                     u2280:
  1172  0165  3EFF               	addlw	-1
  1173  0166  1D03               	skipz
  1174  0167  2960               	goto	u2285
  1175  0168  0874               	movf	??___xxtofl,w
  1176  0169  04FA               	iorwf	___xxtofl@arg,f
  1177  016A  0875               	movf	??___xxtofl+1,w
  1178  016B  04FB               	iorwf	___xxtofl@arg+1,f
  1179  016C  0876               	movf	??___xxtofl+2,w
  1180  016D  04FC               	iorwf	___xxtofl@arg+2,f
  1181  016E  0877               	movf	??___xxtofl+3,w
  1182  016F  04FD               	iorwf	___xxtofl@arg+3,f
  1183  0170                     l1757:
  1184  0170  0878               	movf	___xxtofl@sign,w
  1185  0171  1903               	btfsc	3,2
  1186  0172  2974               	goto	u2291
  1187  0173  2975               	goto	u2290
  1188  0174                     u2291:
  1189  0174  297A               	goto	l1763
  1190  0175                     u2290:
  1191  0175                     l1759:
  1192  0175  1FF3               	btfss	___xxtofl@val+3,7
  1193  0176  2978               	goto	u2301
  1194  0177  2979               	goto	u2300
  1195  0178                     u2301:
  1196  0178  297A               	goto	l1763
  1197  0179                     u2300:
  1198  0179                     l1761:
  1199  0179  17FD               	bsf	___xxtofl@arg+3,7
  1200  017A                     l1763:
  1201  017A  087D               	movf	___xxtofl@arg+3,w
  1202  017B  00F3               	movwf	?___xxtofl+3
  1203  017C  087C               	movf	___xxtofl@arg+2,w
  1204  017D  00F2               	movwf	?___xxtofl+2
  1205  017E  087B               	movf	___xxtofl@arg+1,w
  1206  017F  00F1               	movwf	?___xxtofl+1
  1207  0180  087A               	movf	___xxtofl@arg,w
  1208  0181  00F0               	movwf	?___xxtofl
  1209  0182                     l596:
  1210  0182  0008               	return
  1211  0183                     __end_of___xxtofl:
  1212                           
  1213                           	psect	text2
  1214  0F85                     __ptext2:	
  1215 ;; *************** function ___lwmod *****************
  1216 ;; Defined at:
  1217 ;;		line 5 in file "D:\File Install MBLAB IDE\XC8\pic\sources\c90\common\lwmod.c"
  1218 ;; Parameters:    Size  Location     Type
  1219 ;;  divisor         2    8[COMMON] unsigned int 
  1220 ;;  dividend        2   10[COMMON] unsigned int 
  1221 ;; Auto vars:     Size  Location     Type
  1222 ;;  counter         1   13[COMMON] unsigned char 
  1223 ;; Return value:  Size  Location     Type
  1224 ;;                  2    8[COMMON] unsigned int 
  1225 ;; Registers used:
  1226 ;;		wreg, status,2, status,0
  1227 ;; Tracked objects:
  1228 ;;		On entry : 0/0
  1229 ;;		On exit  : 0/0
  1230 ;;		Unchanged: 0/0
  1231 ;; Data sizes:     COMMON   BANK0   BANK1   BANK3   BANK2
  1232 ;;      Params:         4       0       0       0       0
  1233 ;;      Locals:         1       0       0       0       0
  1234 ;;      Temps:          1       0       0       0       0
  1235 ;;      Totals:         6       0       0       0       0
  1236 ;;Total ram usage:        6 bytes
  1237 ;; Hardware stack levels used: 1
  1238 ;; This function calls:
  1239 ;;		Nothing
  1240 ;; This function is called by:
  1241 ;;		_main
  1242 ;; This function uses a non-reentrant model
  1243 ;;
  1244                           
  1245                           
  1246                           ;psect for function ___lwmod
  1247  0F85                     ___lwmod:
  1248  0F85                     l1419:	
  1249                           ;incstack = 0
  1250                           ; Regs used in ___lwmod: [wreg+status,2+status,0]
  1251                           
  1252  0F85  0878               	movf	___lwmod@divisor,w
  1253  0F86  0479               	iorwf	___lwmod@divisor+1,w
  1254  0F87  1903               	btfsc	3,2
  1255  0F88  2F8A               	goto	u1451
  1256  0F89  2F8B               	goto	u1450
  1257  0F8A                     u1451:
  1258  0F8A  2FBA               	goto	l1437
  1259  0F8B                     u1450:
  1260  0F8B                     l1421:
  1261  0F8B  01FD               	clrf	___lwmod@counter
  1262  0F8C  0AFD               	incf	___lwmod@counter,f
  1263  0F8D  2F99               	goto	l1427
  1264  0F8E                     l1423:
  1265  0F8E  3001               	movlw	1
  1266  0F8F                     u1465:
  1267  0F8F  1003               	clrc
  1268  0F90  0DF8               	rlf	___lwmod@divisor,f
  1269  0F91  0DF9               	rlf	___lwmod@divisor+1,f
  1270  0F92  3EFF               	addlw	-1
  1271  0F93  1D03               	skipz
  1272  0F94  2F8F               	goto	u1465
  1273  0F95                     l1425:
  1274  0F95  3001               	movlw	1
  1275  0F96  00FC               	movwf	??___lwmod
  1276  0F97  087C               	movf	??___lwmod,w
  1277  0F98  07FD               	addwf	___lwmod@counter,f
  1278  0F99                     l1427:
  1279  0F99  1FF9               	btfss	___lwmod@divisor+1,7
  1280  0F9A  2F9C               	goto	u1471
  1281  0F9B  2F9D               	goto	u1470
  1282  0F9C                     u1471:
  1283  0F9C  2F8E               	goto	l1423
  1284  0F9D                     u1470:
  1285  0F9D                     l1429:
  1286  0F9D  0879               	movf	___lwmod@divisor+1,w
  1287  0F9E  027B               	subwf	___lwmod@dividend+1,w
  1288  0F9F  1D03               	skipz
  1289  0FA0  2FA3               	goto	u1485
  1290  0FA1  0878               	movf	___lwmod@divisor,w
  1291  0FA2  027A               	subwf	___lwmod@dividend,w
  1292  0FA3                     u1485:
  1293  0FA3  1C03               	skipc
  1294  0FA4  2FA6               	goto	u1481
  1295  0FA5  2FA7               	goto	u1480
  1296  0FA6                     u1481:
  1297  0FA6  2FAD               	goto	l1433
  1298  0FA7                     u1480:
  1299  0FA7                     l1431:
  1300  0FA7  0878               	movf	___lwmod@divisor,w
  1301  0FA8  02FA               	subwf	___lwmod@dividend,f
  1302  0FA9  0879               	movf	___lwmod@divisor+1,w
  1303  0FAA  1C03               	skipc
  1304  0FAB  03FB               	decf	___lwmod@dividend+1,f
  1305  0FAC  02FB               	subwf	___lwmod@dividend+1,f
  1306  0FAD                     l1433:
  1307  0FAD  3001               	movlw	1
  1308  0FAE                     u1495:
  1309  0FAE  1003               	clrc
  1310  0FAF  0CF9               	rrf	___lwmod@divisor+1,f
  1311  0FB0  0CF8               	rrf	___lwmod@divisor,f
  1312  0FB1  3EFF               	addlw	-1
  1313  0FB2  1D03               	skipz
  1314  0FB3  2FAE               	goto	u1495
  1315  0FB4                     l1435:
  1316  0FB4  3001               	movlw	1
  1317  0FB5  02FD               	subwf	___lwmod@counter,f
  1318  0FB6  1D03               	btfss	3,2
  1319  0FB7  2FB9               	goto	u1501
  1320  0FB8  2FBA               	goto	u1500
  1321  0FB9                     u1501:
  1322  0FB9  2F9D               	goto	l1429
  1323  0FBA                     u1500:
  1324  0FBA                     l1437:
  1325  0FBA  087B               	movf	___lwmod@dividend+1,w
  1326  0FBB  00F9               	movwf	?___lwmod+1
  1327  0FBC  087A               	movf	___lwmod@dividend,w
  1328  0FBD  00F8               	movwf	?___lwmod
  1329  0FBE                     l443:
  1330  0FBE  0008               	return
  1331  0FBF                     __end_of___lwmod:
  1332                           
  1333                           	psect	text3
  1334  0009                     __ptext3:	
  1335 ;; *************** function ___lwdiv *****************
  1336 ;; Defined at:
  1337 ;;		line 5 in file "D:\File Install MBLAB IDE\XC8\pic\sources\c90\common\lwdiv.c"
  1338 ;; Parameters:    Size  Location     Type
  1339 ;;  divisor         2    0[COMMON] unsigned int 
  1340 ;;  dividend        2    2[COMMON] unsigned int 
  1341 ;; Auto vars:     Size  Location     Type
  1342 ;;  quotient        2    5[COMMON] unsigned int 
  1343 ;;  counter         1    7[COMMON] unsigned char 
  1344 ;; Return value:  Size  Location     Type
  1345 ;;                  2    0[COMMON] unsigned int 
  1346 ;; Registers used:
  1347 ;;		wreg, status,2, status,0
  1348 ;; Tracked objects:
  1349 ;;		On entry : 0/0
  1350 ;;		On exit  : 0/0
  1351 ;;		Unchanged: 0/0
  1352 ;; Data sizes:     COMMON   BANK0   BANK1   BANK3   BANK2
  1353 ;;      Params:         4       0       0       0       0
  1354 ;;      Locals:         3       0       0       0       0
  1355 ;;      Temps:          1       0       0       0       0
  1356 ;;      Totals:         8       0       0       0       0
  1357 ;;Total ram usage:        8 bytes
  1358 ;; Hardware stack levels used: 1
  1359 ;; This function calls:
  1360 ;;		Nothing
  1361 ;; This function is called by:
  1362 ;;		_main
  1363 ;; This function uses a non-reentrant model
  1364 ;;
  1365                           
  1366                           
  1367                           ;psect for function ___lwdiv
  1368  0009                     ___lwdiv:
  1369  0009                     l1393:	
  1370                           ;incstack = 0
  1371                           ; Regs used in ___lwdiv: [wreg+status,2+status,0]
  1372                           
  1373  0009  01F5               	clrf	___lwdiv@quotient
  1374  000A  01F6               	clrf	___lwdiv@quotient+1
  1375  000B                     l1395:
  1376  000B  0870               	movf	___lwdiv@divisor,w
  1377  000C  0471               	iorwf	___lwdiv@divisor+1,w
  1378  000D  1903               	btfsc	3,2
  1379  000E  2810               	goto	u1381
  1380  000F  2811               	goto	u1380
  1381  0010                     u1381:
  1382  0010  2848               	goto	l1415
  1383  0011                     u1380:
  1384  0011                     l1397:
  1385  0011  01F7               	clrf	___lwdiv@counter
  1386  0012  0AF7               	incf	___lwdiv@counter,f
  1387  0013  281F               	goto	l1403
  1388  0014                     l1399:
  1389  0014  3001               	movlw	1
  1390  0015                     u1395:
  1391  0015  1003               	clrc
  1392  0016  0DF0               	rlf	___lwdiv@divisor,f
  1393  0017  0DF1               	rlf	___lwdiv@divisor+1,f
  1394  0018  3EFF               	addlw	-1
  1395  0019  1D03               	skipz
  1396  001A  2815               	goto	u1395
  1397  001B                     l1401:
  1398  001B  3001               	movlw	1
  1399  001C  00F4               	movwf	??___lwdiv
  1400  001D  0874               	movf	??___lwdiv,w
  1401  001E  07F7               	addwf	___lwdiv@counter,f
  1402  001F                     l1403:
  1403  001F  1FF1               	btfss	___lwdiv@divisor+1,7
  1404  0020  2822               	goto	u1401
  1405  0021  2823               	goto	u1400
  1406  0022                     u1401:
  1407  0022  2814               	goto	l1399
  1408  0023                     u1400:
  1409  0023                     l1405:
  1410  0023  3001               	movlw	1
  1411  0024                     u1415:
  1412  0024  1003               	clrc
  1413  0025  0DF5               	rlf	___lwdiv@quotient,f
  1414  0026  0DF6               	rlf	___lwdiv@quotient+1,f
  1415  0027  3EFF               	addlw	-1
  1416  0028  1D03               	skipz
  1417  0029  2824               	goto	u1415
  1418  002A  0871               	movf	___lwdiv@divisor+1,w
  1419  002B  0273               	subwf	___lwdiv@dividend+1,w
  1420  002C  1D03               	skipz
  1421  002D  2830               	goto	u1425
  1422  002E  0870               	movf	___lwdiv@divisor,w
  1423  002F  0272               	subwf	___lwdiv@dividend,w
  1424  0030                     u1425:
  1425  0030  1C03               	skipc
  1426  0031  2833               	goto	u1421
  1427  0032  2834               	goto	u1420
  1428  0033                     u1421:
  1429  0033  283B               	goto	l1411
  1430  0034                     u1420:
  1431  0034                     l1407:
  1432  0034  0870               	movf	___lwdiv@divisor,w
  1433  0035  02F2               	subwf	___lwdiv@dividend,f
  1434  0036  0871               	movf	___lwdiv@divisor+1,w
  1435  0037  1C03               	skipc
  1436  0038  03F3               	decf	___lwdiv@dividend+1,f
  1437  0039  02F3               	subwf	___lwdiv@dividend+1,f
  1438  003A                     l1409:
  1439  003A  1475               	bsf	___lwdiv@quotient,0
  1440  003B                     l1411:
  1441  003B  3001               	movlw	1
  1442  003C                     u1435:
  1443  003C  1003               	clrc
  1444  003D  0CF1               	rrf	___lwdiv@divisor+1,f
  1445  003E  0CF0               	rrf	___lwdiv@divisor,f
  1446  003F  3EFF               	addlw	-1
  1447  0040  1D03               	skipz
  1448  0041  283C               	goto	u1435
  1449  0042                     l1413:
  1450  0042  3001               	movlw	1
  1451  0043  02F7               	subwf	___lwdiv@counter,f
  1452  0044  1D03               	btfss	3,2
  1453  0045  2847               	goto	u1441
  1454  0046  2848               	goto	u1440
  1455  0047                     u1441:
  1456  0047  2823               	goto	l1405
  1457  0048                     u1440:
  1458  0048                     l1415:
  1459  0048  0876               	movf	___lwdiv@quotient+1,w
  1460  0049  00F1               	movwf	?___lwdiv+1
  1461  004A  0875               	movf	___lwdiv@quotient,w
  1462  004B  00F0               	movwf	?___lwdiv
  1463  004C                     l433:
  1464  004C  0008               	return
  1465  004D                     __end_of___lwdiv:
  1466                           
  1467                           	psect	text4
  1468  004D                     __ptext4:	
  1469 ;; *************** function ___fltol *****************
  1470 ;; Defined at:
  1471 ;;		line 43 in file "D:\File Install MBLAB IDE\XC8\pic\sources\c90\common\fltol.c"
  1472 ;; Parameters:    Size  Location     Type
  1473 ;;  f1              4   52[BANK0 ] unsigned int 
  1474 ;; Auto vars:     Size  Location     Type
  1475 ;;  exp1            1   62[BANK0 ] unsigned char 
  1476 ;;  sign1           1   61[BANK0 ] unsigned char 
  1477 ;; Return value:  Size  Location     Type
  1478 ;;                  4   52[BANK0 ] long 
  1479 ;; Registers used:
  1480 ;;		wreg, status,2, status,0
  1481 ;; Tracked objects:
  1482 ;;		On entry : 0/0
  1483 ;;		On exit  : 0/0
  1484 ;;		Unchanged: 0/0
  1485 ;; Data sizes:     COMMON   BANK0   BANK1   BANK3   BANK2
  1486 ;;      Params:         0       4       0       0       0
  1487 ;;      Locals:         0       2       0       0       0
  1488 ;;      Temps:          0       5       0       0       0
  1489 ;;      Totals:         0      11       0       0       0
  1490 ;;Total ram usage:       11 bytes
  1491 ;; Hardware stack levels used: 1
  1492 ;; This function calls:
  1493 ;;		Nothing
  1494 ;; This function is called by:
  1495 ;;		_main
  1496 ;; This function uses a non-reentrant model
  1497 ;;
  1498                           
  1499                           
  1500                           ;psect for function ___fltol
  1501  004D                     ___fltol:
  1502  004D                     l1357:	
  1503                           ;incstack = 0
  1504                           ; Regs used in ___fltol: [wreg+status,2+status,0]
  1505                           
  1506  004D  1003               	clrc
  1507  004E  1283               	bcf	3,5	;RP0=0, select bank0
  1508  004F  1303               	bcf	3,6	;RP1=0, select bank0
  1509  0050  0D56               	rlf	___fltol@f1+2,w
  1510  0051  0D57               	rlf	___fltol@f1+3,w
  1511  0052  00D8               	movwf	??___fltol
  1512  0053  0858               	movf	??___fltol,w
  1513  0054  00DE               	movwf	___fltol@exp1
  1514  0055  085E               	movf	___fltol@exp1,w
  1515  0056  1D03               	btfss	3,2
  1516  0057  2859               	goto	u1281
  1517  0058  285A               	goto	u1280
  1518  0059                     u1281:
  1519  0059  2863               	goto	l1363
  1520  005A                     u1280:
  1521  005A                     l1359:
  1522  005A  3000               	movlw	0
  1523  005B  00D7               	movwf	?___fltol+3
  1524  005C  3000               	movlw	0
  1525  005D  00D6               	movwf	?___fltol+2
  1526  005E  3000               	movlw	0
  1527  005F  00D5               	movwf	?___fltol+1
  1528  0060  3000               	movlw	0
  1529  0061  00D4               	movwf	?___fltol
  1530  0062  28C8               	goto	l347
  1531  0063                     l1363:
  1532  0063  0854               	movf	___fltol@f1,w
  1533  0064  00D8               	movwf	??___fltol
  1534  0065  0855               	movf	___fltol@f1+1,w
  1535  0066  00D9               	movwf	??___fltol+1
  1536  0067  0856               	movf	___fltol@f1+2,w
  1537  0068  00DA               	movwf	??___fltol+2
  1538  0069  0857               	movf	___fltol@f1+3,w
  1539  006A  00DB               	movwf	??___fltol+3
  1540  006B  301F               	movlw	31
  1541  006C                     u1295:
  1542  006C  1003               	clrc
  1543  006D  0CDB               	rrf	??___fltol+3,f
  1544  006E  0CDA               	rrf	??___fltol+2,f
  1545  006F  0CD9               	rrf	??___fltol+1,f
  1546  0070  0CD8               	rrf	??___fltol,f
  1547  0071                     u1290:
  1548  0071  3EFF               	addlw	-1
  1549  0072  1D03               	skipz
  1550  0073  286C               	goto	u1295
  1551  0074  0858               	movf	??___fltol,w
  1552  0075  00DC               	movwf	??___fltol+4
  1553  0076  085C               	movf	??___fltol+4,w
  1554  0077  00DD               	movwf	___fltol@sign1
  1555  0078                     l1365:
  1556  0078  17D6               	bsf	___fltol@f1+2,7
  1557  0079                     l1367:
  1558  0079  30FF               	movlw	255
  1559  007A  05D4               	andwf	___fltol@f1,f
  1560  007B  30FF               	movlw	255
  1561  007C  05D5               	andwf	___fltol@f1+1,f
  1562  007D  30FF               	movlw	255
  1563  007E  05D6               	andwf	___fltol@f1+2,f
  1564  007F  3000               	movlw	0
  1565  0080  05D7               	andwf	___fltol@f1+3,f
  1566  0081                     l1369:
  1567  0081  3096               	movlw	150
  1568  0082  02DE               	subwf	___fltol@exp1,f
  1569  0083                     l1371:
  1570  0083  1FDE               	btfss	___fltol@exp1,7
  1571  0084  2886               	goto	u1301
  1572  0085  2887               	goto	u1300
  1573  0086                     u1301:
  1574  0086  28A1               	goto	l1381
  1575  0087                     u1300:
  1576  0087                     l1373:
  1577  0087  085E               	movf	___fltol@exp1,w
  1578  0088  3A80               	xorlw	128
  1579  0089  3E97               	addlw	151
  1580  008A  1803               	skipnc
  1581  008B  288D               	goto	u1311
  1582  008C  288E               	goto	u1310
  1583  008D                     u1311:
  1584  008D  288F               	goto	l1379
  1585  008E                     u1310:
  1586  008E  285A               	goto	l1359
  1587  008F                     l1379:
  1588  008F  3001               	movlw	1
  1589  0090                     u1325:
  1590  0090  1003               	clrc
  1591  0091  0CD7               	rrf	___fltol@f1+3,f
  1592  0092  0CD6               	rrf	___fltol@f1+2,f
  1593  0093  0CD5               	rrf	___fltol@f1+1,f
  1594  0094  0CD4               	rrf	___fltol@f1,f
  1595  0095  3EFF               	addlw	-1
  1596  0096  1D03               	skipz
  1597  0097  2890               	goto	u1325
  1598  0098  3001               	movlw	1
  1599  0099  00D8               	movwf	??___fltol
  1600  009A  0858               	movf	??___fltol,w
  1601  009B  07DE               	addwf	___fltol@exp1,f
  1602  009C  1D03               	btfss	3,2
  1603  009D  289F               	goto	u1331
  1604  009E  28A0               	goto	u1330
  1605  009F                     u1331:
  1606  009F  288F               	goto	l1379
  1607  00A0                     u1330:
  1608  00A0  28B8               	goto	l1389
  1609  00A1                     l1381:
  1610  00A1  3020               	movlw	32
  1611  00A2  025E               	subwf	___fltol@exp1,w
  1612  00A3  1C03               	skipc
  1613  00A4  28A6               	goto	u1341
  1614  00A5  28A7               	goto	u1340
  1615  00A6                     u1341:
  1616  00A6  28B3               	goto	l354
  1617  00A7                     u1340:
  1618  00A7  285A               	goto	l1359
  1619  00A8                     l1387:
  1620  00A8  3001               	movlw	1
  1621  00A9  00D8               	movwf	??___fltol
  1622  00AA                     u1355:
  1623  00AA  1003               	clrc
  1624  00AB  0DD4               	rlf	___fltol@f1,f
  1625  00AC  0DD5               	rlf	___fltol@f1+1,f
  1626  00AD  0DD6               	rlf	___fltol@f1+2,f
  1627  00AE  0DD7               	rlf	___fltol@f1+3,f
  1628  00AF  0BD8               	decfsz	??___fltol,f
  1629  00B0  28AA               	goto	u1355
  1630  00B1  3001               	movlw	1
  1631  00B2  02DE               	subwf	___fltol@exp1,f
  1632  00B3                     l354:
  1633  00B3  085E               	movf	___fltol@exp1,w
  1634  00B4  1D03               	btfss	3,2
  1635  00B5  28B7               	goto	u1361
  1636  00B6  28B8               	goto	u1360
  1637  00B7                     u1361:
  1638  00B7  28A8               	goto	l1387
  1639  00B8                     u1360:
  1640  00B8                     l1389:
  1641  00B8  085D               	movf	___fltol@sign1,w
  1642  00B9  1903               	btfsc	3,2
  1643  00BA  28BC               	goto	u1371
  1644  00BB  28BD               	goto	u1370
  1645  00BC                     u1371:
  1646  00BC  28C8               	goto	l357
  1647  00BD                     u1370:
  1648  00BD                     l1391:
  1649  00BD  09D4               	comf	___fltol@f1,f
  1650  00BE  09D5               	comf	___fltol@f1+1,f
  1651  00BF  09D6               	comf	___fltol@f1+2,f
  1652  00C0  09D7               	comf	___fltol@f1+3,f
  1653  00C1  0AD4               	incf	___fltol@f1,f
  1654  00C2  1903               	skipnz
  1655  00C3  0AD5               	incf	___fltol@f1+1,f
  1656  00C4  1903               	skipnz
  1657  00C5  0AD6               	incf	___fltol@f1+2,f
  1658  00C6  1903               	skipnz
  1659  00C7  0AD7               	incf	___fltol@f1+3,f
  1660  00C8                     l357:
  1661  00C8                     l347:
  1662  00C8  0008               	return
  1663  00C9                     __end_of___fltol:
  1664                           
  1665                           	psect	text5
  1666  049B                     __ptext5:	
  1667 ;; *************** function ___flmul *****************
  1668 ;; Defined at:
  1669 ;;		line 8 in file "D:\File Install MBLAB IDE\XC8\pic\sources\c90\common\sprcmul.c"
  1670 ;; Parameters:    Size  Location     Type
  1671 ;;  b               4    0[BANK0 ] long 
  1672 ;;  a               4    4[BANK0 ] long 
  1673 ;; Auto vars:     Size  Location     Type
  1674 ;;  prod            4   20[BANK0 ] struct .
  1675 ;;  grs             4   14[BANK0 ] unsigned long 
  1676 ;;  temp            2   24[BANK0 ] struct .
  1677 ;;  bexp            1   19[BANK0 ] unsigned char 
  1678 ;;  aexp            1   18[BANK0 ] unsigned char 
  1679 ;;  sign            1   13[BANK0 ] unsigned char 
  1680 ;; Return value:  Size  Location     Type
  1681 ;;                  4    0[BANK0 ] unsigned char 
  1682 ;; Registers used:
  1683 ;;		wreg, status,2, status,0, btemp+1, pclath, cstack
  1684 ;; Tracked objects:
  1685 ;;		On entry : 0/0
  1686 ;;		On exit  : 0/0
  1687 ;;		Unchanged: 0/0
  1688 ;; Data sizes:     COMMON   BANK0   BANK1   BANK3   BANK2
  1689 ;;      Params:         0       8       0       0       0
  1690 ;;      Locals:         0      13       0       0       0
  1691 ;;      Temps:          0       5       0       0       0
  1692 ;;      Totals:         0      26       0       0       0
  1693 ;;Total ram usage:       26 bytes
  1694 ;; Hardware stack levels used: 1
  1695 ;; Hardware stack levels required when called: 1
  1696 ;; This function calls:
  1697 ;;		__Umul8_16
  1698 ;; This function is called by:
  1699 ;;		_main
  1700 ;; This function uses a non-reentrant model
  1701 ;;
  1702                           
  1703                           
  1704                           ;psect for function ___flmul
  1705  049B                     ___flmul:
  1706  049B                     l1583:	
  1707                           ;incstack = 0
  1708                           ; Regs used in ___flmul: [wreg+status,2+status,0+btemp+1+pclath+cstack]
  1709                           
  1710  049B  1283               	bcf	3,5	;RP0=0, select bank0
  1711  049C  1303               	bcf	3,6	;RP1=0, select bank0
  1712  049D  0823               	movf	___flmul@b+3,w
  1713  049E  3980               	andlw	128
  1714  049F  00A8               	movwf	??___flmul
  1715  04A0  0828               	movf	??___flmul,w
  1716  04A1  00AD               	movwf	___flmul@sign
  1717  04A2                     l1585:
  1718  04A2  0823               	movf	___flmul@b+3,w
  1719  04A3  00A8               	movwf	??___flmul
  1720  04A4  0728               	addwf	??___flmul,w
  1721  04A5  00A9               	movwf	??___flmul+1
  1722  04A6  0829               	movf	??___flmul+1,w
  1723  04A7  00B3               	movwf	___flmul@bexp
  1724  04A8                     l1587:
  1725  04A8  1FA2               	btfss	___flmul@b+2,7
  1726  04A9  2CAB               	goto	u1801
  1727  04AA  2CAC               	goto	u1800
  1728  04AB                     u1801:
  1729  04AB  2CAD               	goto	l1591
  1730  04AC                     u1800:
  1731  04AC                     l1589:
  1732  04AC  1433               	bsf	___flmul@bexp,0
  1733  04AD                     l1591:
  1734  04AD  0833               	movf	___flmul@bexp,w
  1735  04AE  1903               	btfsc	3,2
  1736  04AF  2CB1               	goto	u1811
  1737  04B0  2CB2               	goto	u1810
  1738  04B1                     u1811:
  1739  04B1  2CC1               	goto	l1599
  1740  04B2                     u1810:
  1741  04B2                     l1593:
  1742  04B2  0A33               	incf	___flmul@bexp,w
  1743  04B3  1D03               	btfss	3,2
  1744  04B4  2CB6               	goto	u1821
  1745  04B5  2CB7               	goto	u1820
  1746  04B6                     u1821:
  1747  04B6  2CBF               	goto	l1597
  1748  04B7                     u1820:
  1749  04B7                     l1595:
  1750  04B7  3000               	movlw	0
  1751  04B8  00A3               	movwf	___flmul@b+3
  1752  04B9  3000               	movlw	0
  1753  04BA  00A2               	movwf	___flmul@b+2
  1754  04BB  3000               	movlw	0
  1755  04BC  00A1               	movwf	___flmul@b+1
  1756  04BD  3000               	movlw	0
  1757  04BE  00A0               	movwf	___flmul@b
  1758  04BF                     l1597:
  1759  04BF  17A2               	bsf	___flmul@b+2,7
  1760  04C0  2CC9               	goto	l1601
  1761  04C1                     l1599:
  1762  04C1  3000               	movlw	0
  1763  04C2  00A3               	movwf	___flmul@b+3
  1764  04C3  3000               	movlw	0
  1765  04C4  00A2               	movwf	___flmul@b+2
  1766  04C5  3000               	movlw	0
  1767  04C6  00A1               	movwf	___flmul@b+1
  1768  04C7  3000               	movlw	0
  1769  04C8  00A0               	movwf	___flmul@b
  1770  04C9                     l1601:
  1771  04C9  0827               	movf	___flmul@a+3,w
  1772  04CA  3980               	andlw	128
  1773  04CB  00A8               	movwf	??___flmul
  1774  04CC  0828               	movf	??___flmul,w
  1775  04CD  06AD               	xorwf	___flmul@sign,f
  1776  04CE                     l1603:
  1777  04CE  0827               	movf	___flmul@a+3,w
  1778  04CF  00A8               	movwf	??___flmul
  1779  04D0  0728               	addwf	??___flmul,w
  1780  04D1  00A9               	movwf	??___flmul+1
  1781  04D2  0829               	movf	??___flmul+1,w
  1782  04D3  00B2               	movwf	___flmul@aexp
  1783  04D4                     l1605:
  1784  04D4  1FA6               	btfss	___flmul@a+2,7
  1785  04D5  2CD7               	goto	u1831
  1786  04D6  2CD8               	goto	u1830
  1787  04D7                     u1831:
  1788  04D7  2CD9               	goto	l1609
  1789  04D8                     u1830:
  1790  04D8                     l1607:
  1791  04D8  1432               	bsf	___flmul@aexp,0
  1792  04D9                     l1609:
  1793  04D9  0832               	movf	___flmul@aexp,w
  1794  04DA  1903               	btfsc	3,2
  1795  04DB  2CDD               	goto	u1841
  1796  04DC  2CDE               	goto	u1840
  1797  04DD                     u1841:
  1798  04DD  2CED               	goto	l1617
  1799  04DE                     u1840:
  1800  04DE                     l1611:
  1801  04DE  0A32               	incf	___flmul@aexp,w
  1802  04DF  1D03               	btfss	3,2
  1803  04E0  2CE2               	goto	u1851
  1804  04E1  2CE3               	goto	u1850
  1805  04E2                     u1851:
  1806  04E2  2CEB               	goto	l1615
  1807  04E3                     u1850:
  1808  04E3                     l1613:
  1809  04E3  3000               	movlw	0
  1810  04E4  00A7               	movwf	___flmul@a+3
  1811  04E5  3000               	movlw	0
  1812  04E6  00A6               	movwf	___flmul@a+2
  1813  04E7  3000               	movlw	0
  1814  04E8  00A5               	movwf	___flmul@a+1
  1815  04E9  3000               	movlw	0
  1816  04EA  00A4               	movwf	___flmul@a
  1817  04EB                     l1615:
  1818  04EB  17A6               	bsf	___flmul@a+2,7
  1819  04EC  2CF5               	goto	l1619
  1820  04ED                     l1617:
  1821  04ED  3000               	movlw	0
  1822  04EE  00A7               	movwf	___flmul@a+3
  1823  04EF  3000               	movlw	0
  1824  04F0  00A6               	movwf	___flmul@a+2
  1825  04F1  3000               	movlw	0
  1826  04F2  00A5               	movwf	___flmul@a+1
  1827  04F3  3000               	movlw	0
  1828  04F4  00A4               	movwf	___flmul@a
  1829  04F5                     l1619:
  1830  04F5  0832               	movf	___flmul@aexp,w
  1831  04F6  1903               	btfsc	3,2
  1832  04F7  2CF9               	goto	u1861
  1833  04F8  2CFA               	goto	u1860
  1834  04F9                     u1861:
  1835  04F9  2CFF               	goto	l1623
  1836  04FA                     u1860:
  1837  04FA                     l1621:
  1838  04FA  0833               	movf	___flmul@bexp,w
  1839  04FB  1D03               	btfss	3,2
  1840  04FC  2CFE               	goto	u1871
  1841  04FD  2CFF               	goto	u1870
  1842  04FE                     u1871:
  1843  04FE  2D08               	goto	l1627
  1844  04FF                     u1870:
  1845  04FF                     l1623:
  1846  04FF  3000               	movlw	0
  1847  0500  00A3               	movwf	?___flmul+3
  1848  0501  3000               	movlw	0
  1849  0502  00A2               	movwf	?___flmul+2
  1850  0503  3000               	movlw	0
  1851  0504  00A1               	movwf	?___flmul+1
  1852  0505  3000               	movlw	0
  1853  0506  00A0               	movwf	?___flmul
  1854  0507  2FFB               	goto	l550
  1855  0508                     l1627:
  1856  0508  0820               	movf	___flmul@b,w
  1857  0509  00A8               	movwf	??___flmul
  1858  050A  0828               	movf	??___flmul,w
  1859  050B  00F0               	movwf	__Umul8_16@multiplicand
  1860  050C  0826               	movf	___flmul@a+2,w
  1861  050D  120A  158A  2730  120A  118A  	fcall	__Umul8_16
  1862  0512  0871               	movf	?__Umul8_16+1,w
  1863  0513  1283               	bcf	3,5	;RP0=0, select bank0
  1864  0514  1303               	bcf	3,6	;RP1=0, select bank0
  1865  0515  00B9               	movwf	___flmul@temp+1
  1866  0516  0870               	movf	?__Umul8_16,w
  1867  0517  00B8               	movwf	___flmul@temp
  1868  0518                     l1629:
  1869  0518  0838               	movf	___flmul@temp,w
  1870  0519  00A8               	movwf	??___flmul
  1871  051A  01A9               	clrf	??___flmul+1
  1872  051B  01AA               	clrf	??___flmul+2
  1873  051C  01AB               	clrf	??___flmul+3
  1874  051D  082B               	movf	??___flmul+3,w
  1875  051E  00B1               	movwf	___flmul@grs+3
  1876  051F  082A               	movf	??___flmul+2,w
  1877  0520  00B0               	movwf	___flmul@grs+2
  1878  0521  0829               	movf	??___flmul+1,w
  1879  0522  00AF               	movwf	___flmul@grs+1
  1880  0523  0828               	movf	??___flmul,w
  1881  0524  00AE               	movwf	___flmul@grs
  1882  0525                     l1631:
  1883  0525  0839               	movf	___flmul@temp+1,w
  1884  0526  00A8               	movwf	??___flmul
  1885  0527  01A9               	clrf	??___flmul+1
  1886  0528  01AA               	clrf	??___flmul+2
  1887  0529  01AB               	clrf	??___flmul+3
  1888  052A  082B               	movf	??___flmul+3,w
  1889  052B  00B7               	movwf	___flmul@prod+3
  1890  052C  082A               	movf	??___flmul+2,w
  1891  052D  00B6               	movwf	___flmul@prod+2
  1892  052E  0829               	movf	??___flmul+1,w
  1893  052F  00B5               	movwf	___flmul@prod+1
  1894  0530  0828               	movf	??___flmul,w
  1895  0531  00B4               	movwf	___flmul@prod
  1896  0532  0821               	movf	___flmul@b+1,w
  1897  0533  00A8               	movwf	??___flmul
  1898  0534  0828               	movf	??___flmul,w
  1899  0535  00F0               	movwf	__Umul8_16@multiplicand
  1900  0536  0825               	movf	___flmul@a+1,w
  1901  0537  120A  158A  2730  120A  118A  	fcall	__Umul8_16
  1902  053C  0871               	movf	?__Umul8_16+1,w
  1903  053D  1283               	bcf	3,5	;RP0=0, select bank0
  1904  053E  1303               	bcf	3,6	;RP1=0, select bank0
  1905  053F  00B9               	movwf	___flmul@temp+1
  1906  0540  0870               	movf	?__Umul8_16,w
  1907  0541  00B8               	movwf	___flmul@temp
  1908  0542                     l1633:
  1909  0542  0838               	movf	___flmul@temp,w
  1910  0543  00A8               	movwf	??___flmul
  1911  0544  01A9               	clrf	??___flmul+1
  1912  0545  01AA               	clrf	??___flmul+2
  1913  0546  01AB               	clrf	??___flmul+3
  1914  0547  0828               	movf	??___flmul,w
  1915  0548  07AE               	addwf	___flmul@grs,f
  1916  0549  0829               	movf	??___flmul+1,w
  1917  054A  1103               	clrz
  1918  054B  1803               	skipnc
  1919  054C  3E01               	addlw	1
  1920  054D  1903               	skipnz
  1921  054E  2D50               	goto	u1881
  1922  054F  07AF               	addwf	___flmul@grs+1,f
  1923  0550                     u1881:
  1924  0550  082A               	movf	??___flmul+2,w
  1925  0551  1103               	clrz
  1926  0552  1803               	skipnc
  1927  0553  3E01               	addlw	1
  1928  0554  1903               	skipnz
  1929  0555  2D57               	goto	u1882
  1930  0556  07B0               	addwf	___flmul@grs+2,f
  1931  0557                     u1882:
  1932  0557  082B               	movf	??___flmul+3,w
  1933  0558  1103               	clrz
  1934  0559  1803               	skipnc
  1935  055A  3E01               	addlw	1
  1936  055B  1903               	skipnz
  1937  055C  2D5E               	goto	u1883
  1938  055D  07B1               	addwf	___flmul@grs+3,f
  1939  055E                     u1883:
  1940  055E                     l1635:
  1941  055E  0839               	movf	___flmul@temp+1,w
  1942  055F  00A8               	movwf	??___flmul
  1943  0560  01A9               	clrf	??___flmul+1
  1944  0561  01AA               	clrf	??___flmul+2
  1945  0562  01AB               	clrf	??___flmul+3
  1946  0563  0828               	movf	??___flmul,w
  1947  0564  07B4               	addwf	___flmul@prod,f
  1948  0565  0829               	movf	??___flmul+1,w
  1949  0566  1103               	clrz
  1950  0567  1803               	skipnc
  1951  0568  3E01               	addlw	1
  1952  0569  1903               	skipnz
  1953  056A  2D6C               	goto	u1891
  1954  056B  07B5               	addwf	___flmul@prod+1,f
  1955  056C                     u1891:
  1956  056C  082A               	movf	??___flmul+2,w
  1957  056D  1103               	clrz
  1958  056E  1803               	skipnc
  1959  056F  3E01               	addlw	1
  1960  0570  1903               	skipnz
  1961  0571  2D73               	goto	u1892
  1962  0572  07B6               	addwf	___flmul@prod+2,f
  1963  0573                     u1892:
  1964  0573  082B               	movf	??___flmul+3,w
  1965  0574  1103               	clrz
  1966  0575  1803               	skipnc
  1967  0576  3E01               	addlw	1
  1968  0577  1903               	skipnz
  1969  0578  2D7A               	goto	u1893
  1970  0579  07B7               	addwf	___flmul@prod+3,f
  1971  057A                     u1893:
  1972  057A  0822               	movf	___flmul@b+2,w
  1973  057B  00A8               	movwf	??___flmul
  1974  057C  0828               	movf	??___flmul,w
  1975  057D  00F0               	movwf	__Umul8_16@multiplicand
  1976  057E  0824               	movf	___flmul@a,w
  1977  057F  120A  158A  2730  120A  118A  	fcall	__Umul8_16
  1978  0584  0871               	movf	?__Umul8_16+1,w
  1979  0585  1283               	bcf	3,5	;RP0=0, select bank0
  1980  0586  1303               	bcf	3,6	;RP1=0, select bank0
  1981  0587  00B9               	movwf	___flmul@temp+1
  1982  0588  0870               	movf	?__Umul8_16,w
  1983  0589  00B8               	movwf	___flmul@temp
  1984  058A                     l1637:
  1985  058A  0838               	movf	___flmul@temp,w
  1986  058B  00A8               	movwf	??___flmul
  1987  058C  01A9               	clrf	??___flmul+1
  1988  058D  01AA               	clrf	??___flmul+2
  1989  058E  01AB               	clrf	??___flmul+3
  1990  058F  0828               	movf	??___flmul,w
  1991  0590  07AE               	addwf	___flmul@grs,f
  1992  0591  0829               	movf	??___flmul+1,w
  1993  0592  1103               	clrz
  1994  0593  1803               	skipnc
  1995  0594  3E01               	addlw	1
  1996  0595  1903               	skipnz
  1997  0596  2D98               	goto	u1901
  1998  0597  07AF               	addwf	___flmul@grs+1,f
  1999  0598                     u1901:
  2000  0598  082A               	movf	??___flmul+2,w
  2001  0599  1103               	clrz
  2002  059A  1803               	skipnc
  2003  059B  3E01               	addlw	1
  2004  059C  1903               	skipnz
  2005  059D  2D9F               	goto	u1902
  2006  059E  07B0               	addwf	___flmul@grs+2,f
  2007  059F                     u1902:
  2008  059F  082B               	movf	??___flmul+3,w
  2009  05A0  1103               	clrz
  2010  05A1  1803               	skipnc
  2011  05A2  3E01               	addlw	1
  2012  05A3  1903               	skipnz
  2013  05A4  2DA6               	goto	u1903
  2014  05A5  07B1               	addwf	___flmul@grs+3,f
  2015  05A6                     u1903:
  2016  05A6                     l1639:
  2017  05A6  0839               	movf	___flmul@temp+1,w
  2018  05A7  00A8               	movwf	??___flmul
  2019  05A8  01A9               	clrf	??___flmul+1
  2020  05A9  01AA               	clrf	??___flmul+2
  2021  05AA  01AB               	clrf	??___flmul+3
  2022  05AB  0828               	movf	??___flmul,w
  2023  05AC  07B4               	addwf	___flmul@prod,f
  2024  05AD  0829               	movf	??___flmul+1,w
  2025  05AE  1103               	clrz
  2026  05AF  1803               	skipnc
  2027  05B0  3E01               	addlw	1
  2028  05B1  1903               	skipnz
  2029  05B2  2DB4               	goto	u1911
  2030  05B3  07B5               	addwf	___flmul@prod+1,f
  2031  05B4                     u1911:
  2032  05B4  082A               	movf	??___flmul+2,w
  2033  05B5  1103               	clrz
  2034  05B6  1803               	skipnc
  2035  05B7  3E01               	addlw	1
  2036  05B8  1903               	skipnz
  2037  05B9  2DBB               	goto	u1912
  2038  05BA  07B6               	addwf	___flmul@prod+2,f
  2039  05BB                     u1912:
  2040  05BB  082B               	movf	??___flmul+3,w
  2041  05BC  1103               	clrz
  2042  05BD  1803               	skipnc
  2043  05BE  3E01               	addlw	1
  2044  05BF  1903               	skipnz
  2045  05C0  2DC2               	goto	u1913
  2046  05C1  07B7               	addwf	___flmul@prod+3,f
  2047  05C2                     u1913:
  2048  05C2                     l1641:
  2049  05C2  3008               	movlw	8
  2050  05C3  00A8               	movwf	??___flmul
  2051  05C4                     u1925:
  2052  05C4  1003               	clrc
  2053  05C5  0DAE               	rlf	___flmul@grs,f
  2054  05C6  0DAF               	rlf	___flmul@grs+1,f
  2055  05C7  0DB0               	rlf	___flmul@grs+2,f
  2056  05C8  0DB1               	rlf	___flmul@grs+3,f
  2057  05C9  0BA8               	decfsz	??___flmul,f
  2058  05CA  2DC4               	goto	u1925
  2059  05CB                     l1643:
  2060  05CB  0821               	movf	___flmul@b+1,w
  2061  05CC  00A8               	movwf	??___flmul
  2062  05CD  0828               	movf	??___flmul,w
  2063  05CE  00F0               	movwf	__Umul8_16@multiplicand
  2064  05CF  0824               	movf	___flmul@a,w
  2065  05D0  120A  158A  2730  120A  118A  	fcall	__Umul8_16
  2066  05D5  0871               	movf	?__Umul8_16+1,w
  2067  05D6  1283               	bcf	3,5	;RP0=0, select bank0
  2068  05D7  1303               	bcf	3,6	;RP1=0, select bank0
  2069  05D8  00B9               	movwf	___flmul@temp+1
  2070  05D9  0870               	movf	?__Umul8_16,w
  2071  05DA  00B8               	movwf	___flmul@temp
  2072  05DB                     l1645:
  2073  05DB  0838               	movf	___flmul@temp,w
  2074  05DC  00A8               	movwf	??___flmul
  2075  05DD  0839               	movf	___flmul@temp+1,w
  2076  05DE  00A9               	movwf	??___flmul+1
  2077  05DF  01AA               	clrf	??___flmul+2
  2078  05E0  01AB               	clrf	??___flmul+3
  2079  05E1  0828               	movf	??___flmul,w
  2080  05E2  07AE               	addwf	___flmul@grs,f
  2081  05E3  0829               	movf	??___flmul+1,w
  2082  05E4  1103               	clrz
  2083  05E5  1803               	skipnc
  2084  05E6  3E01               	addlw	1
  2085  05E7  1903               	skipnz
  2086  05E8  2DEA               	goto	u1931
  2087  05E9  07AF               	addwf	___flmul@grs+1,f
  2088  05EA                     u1931:
  2089  05EA  082A               	movf	??___flmul+2,w
  2090  05EB  1103               	clrz
  2091  05EC  1803               	skipnc
  2092  05ED  3E01               	addlw	1
  2093  05EE  1903               	skipnz
  2094  05EF  2DF1               	goto	u1932
  2095  05F0  07B0               	addwf	___flmul@grs+2,f
  2096  05F1                     u1932:
  2097  05F1  082B               	movf	??___flmul+3,w
  2098  05F2  1103               	clrz
  2099  05F3  1803               	skipnc
  2100  05F4  3E01               	addlw	1
  2101  05F5  1903               	skipnz
  2102  05F6  2DF8               	goto	u1933
  2103  05F7  07B1               	addwf	___flmul@grs+3,f
  2104  05F8                     u1933:
  2105  05F8                     l1647:
  2106  05F8  0820               	movf	___flmul@b,w
  2107  05F9  00A8               	movwf	??___flmul
  2108  05FA  0828               	movf	??___flmul,w
  2109  05FB  00F0               	movwf	__Umul8_16@multiplicand
  2110  05FC  0825               	movf	___flmul@a+1,w
  2111  05FD  120A  158A  2730  120A  118A  	fcall	__Umul8_16
  2112  0602  0871               	movf	?__Umul8_16+1,w
  2113  0603  1283               	bcf	3,5	;RP0=0, select bank0
  2114  0604  1303               	bcf	3,6	;RP1=0, select bank0
  2115  0605  00B9               	movwf	___flmul@temp+1
  2116  0606  0870               	movf	?__Umul8_16,w
  2117  0607  00B8               	movwf	___flmul@temp
  2118  0608                     l1649:
  2119  0608  0838               	movf	___flmul@temp,w
  2120  0609  00A8               	movwf	??___flmul
  2121  060A  0839               	movf	___flmul@temp+1,w
  2122  060B  00A9               	movwf	??___flmul+1
  2123  060C  01AA               	clrf	??___flmul+2
  2124  060D  01AB               	clrf	??___flmul+3
  2125  060E  0828               	movf	??___flmul,w
  2126  060F  07AE               	addwf	___flmul@grs,f
  2127  0610  0829               	movf	??___flmul+1,w
  2128  0611  1103               	clrz
  2129  0612  1803               	skipnc
  2130  0613  3E01               	addlw	1
  2131  0614  1903               	skipnz
  2132  0615  2E17               	goto	u1941
  2133  0616  07AF               	addwf	___flmul@grs+1,f
  2134  0617                     u1941:
  2135  0617  082A               	movf	??___flmul+2,w
  2136  0618  1103               	clrz
  2137  0619  1803               	skipnc
  2138  061A  3E01               	addlw	1
  2139  061B  1903               	skipnz
  2140  061C  2E1E               	goto	u1942
  2141  061D  07B0               	addwf	___flmul@grs+2,f
  2142  061E                     u1942:
  2143  061E  082B               	movf	??___flmul+3,w
  2144  061F  1103               	clrz
  2145  0620  1803               	skipnc
  2146  0621  3E01               	addlw	1
  2147  0622  1903               	skipnz
  2148  0623  2E25               	goto	u1943
  2149  0624  07B1               	addwf	___flmul@grs+3,f
  2150  0625                     u1943:
  2151  0625                     l1651:
  2152  0625  3008               	movlw	8
  2153  0626  00A8               	movwf	??___flmul
  2154  0627                     u1955:
  2155  0627  1003               	clrc
  2156  0628  0DAE               	rlf	___flmul@grs,f
  2157  0629  0DAF               	rlf	___flmul@grs+1,f
  2158  062A  0DB0               	rlf	___flmul@grs+2,f
  2159  062B  0DB1               	rlf	___flmul@grs+3,f
  2160  062C  0BA8               	decfsz	??___flmul,f
  2161  062D  2E27               	goto	u1955
  2162  062E  0820               	movf	___flmul@b,w
  2163  062F  00A8               	movwf	??___flmul
  2164  0630  0828               	movf	??___flmul,w
  2165  0631  00F0               	movwf	__Umul8_16@multiplicand
  2166  0632  0824               	movf	___flmul@a,w
  2167  0633  120A  158A  2730  120A  118A  	fcall	__Umul8_16
  2168  0638  0871               	movf	?__Umul8_16+1,w
  2169  0639  1283               	bcf	3,5	;RP0=0, select bank0
  2170  063A  1303               	bcf	3,6	;RP1=0, select bank0
  2171  063B  00B9               	movwf	___flmul@temp+1
  2172  063C  0870               	movf	?__Umul8_16,w
  2173  063D  00B8               	movwf	___flmul@temp
  2174  063E                     l1653:
  2175  063E  0838               	movf	___flmul@temp,w
  2176  063F  00A8               	movwf	??___flmul
  2177  0640  0839               	movf	___flmul@temp+1,w
  2178  0641  00A9               	movwf	??___flmul+1
  2179  0642  01AA               	clrf	??___flmul+2
  2180  0643  01AB               	clrf	??___flmul+3
  2181  0644  0828               	movf	??___flmul,w
  2182  0645  07AE               	addwf	___flmul@grs,f
  2183  0646  0829               	movf	??___flmul+1,w
  2184  0647  1103               	clrz
  2185  0648  1803               	skipnc
  2186  0649  3E01               	addlw	1
  2187  064A  1903               	skipnz
  2188  064B  2E4D               	goto	u1961
  2189  064C  07AF               	addwf	___flmul@grs+1,f
  2190  064D                     u1961:
  2191  064D  082A               	movf	??___flmul+2,w
  2192  064E  1103               	clrz
  2193  064F  1803               	skipnc
  2194  0650  3E01               	addlw	1
  2195  0651  1903               	skipnz
  2196  0652  2E54               	goto	u1962
  2197  0653  07B0               	addwf	___flmul@grs+2,f
  2198  0654                     u1962:
  2199  0654  082B               	movf	??___flmul+3,w
  2200  0655  1103               	clrz
  2201  0656  1803               	skipnc
  2202  0657  3E01               	addlw	1
  2203  0658  1903               	skipnz
  2204  0659  2E5B               	goto	u1963
  2205  065A  07B1               	addwf	___flmul@grs+3,f
  2206  065B                     u1963:
  2207  065B                     l1655:
  2208  065B  0821               	movf	___flmul@b+1,w
  2209  065C  00A8               	movwf	??___flmul
  2210  065D  0828               	movf	??___flmul,w
  2211  065E  00F0               	movwf	__Umul8_16@multiplicand
  2212  065F  0826               	movf	___flmul@a+2,w
  2213  0660  120A  158A  2730  120A  118A  	fcall	__Umul8_16
  2214  0665  0871               	movf	?__Umul8_16+1,w
  2215  0666  1283               	bcf	3,5	;RP0=0, select bank0
  2216  0667  1303               	bcf	3,6	;RP1=0, select bank0
  2217  0668  00B9               	movwf	___flmul@temp+1
  2218  0669  0870               	movf	?__Umul8_16,w
  2219  066A  00B8               	movwf	___flmul@temp
  2220  066B  0838               	movf	___flmul@temp,w
  2221  066C  00A8               	movwf	??___flmul
  2222  066D  0839               	movf	___flmul@temp+1,w
  2223  066E  00A9               	movwf	??___flmul+1
  2224  066F  01AA               	clrf	??___flmul+2
  2225  0670  01AB               	clrf	??___flmul+3
  2226  0671  0828               	movf	??___flmul,w
  2227  0672  07B4               	addwf	___flmul@prod,f
  2228  0673  0829               	movf	??___flmul+1,w
  2229  0674  1103               	clrz
  2230  0675  1803               	skipnc
  2231  0676  3E01               	addlw	1
  2232  0677  1903               	skipnz
  2233  0678  2E7A               	goto	u1971
  2234  0679  07B5               	addwf	___flmul@prod+1,f
  2235  067A                     u1971:
  2236  067A  082A               	movf	??___flmul+2,w
  2237  067B  1103               	clrz
  2238  067C  1803               	skipnc
  2239  067D  3E01               	addlw	1
  2240  067E  1903               	skipnz
  2241  067F  2E81               	goto	u1972
  2242  0680  07B6               	addwf	___flmul@prod+2,f
  2243  0681                     u1972:
  2244  0681  082B               	movf	??___flmul+3,w
  2245  0682  1103               	clrz
  2246  0683  1803               	skipnc
  2247  0684  3E01               	addlw	1
  2248  0685  1903               	skipnz
  2249  0686  2E88               	goto	u1973
  2250  0687  07B7               	addwf	___flmul@prod+3,f
  2251  0688                     u1973:
  2252  0688                     l1657:
  2253  0688  0822               	movf	___flmul@b+2,w
  2254  0689  00A8               	movwf	??___flmul
  2255  068A  0828               	movf	??___flmul,w
  2256  068B  00F0               	movwf	__Umul8_16@multiplicand
  2257  068C  0825               	movf	___flmul@a+1,w
  2258  068D  120A  158A  2730  120A  118A  	fcall	__Umul8_16
  2259  0692  0871               	movf	?__Umul8_16+1,w
  2260  0693  1283               	bcf	3,5	;RP0=0, select bank0
  2261  0694  1303               	bcf	3,6	;RP1=0, select bank0
  2262  0695  00B9               	movwf	___flmul@temp+1
  2263  0696  0870               	movf	?__Umul8_16,w
  2264  0697  00B8               	movwf	___flmul@temp
  2265  0698                     l1659:
  2266  0698  0838               	movf	___flmul@temp,w
  2267  0699  00A8               	movwf	??___flmul
  2268  069A  0839               	movf	___flmul@temp+1,w
  2269  069B  00A9               	movwf	??___flmul+1
  2270  069C  01AA               	clrf	??___flmul+2
  2271  069D  01AB               	clrf	??___flmul+3
  2272  069E  0828               	movf	??___flmul,w
  2273  069F  07B4               	addwf	___flmul@prod,f
  2274  06A0  0829               	movf	??___flmul+1,w
  2275  06A1  1103               	clrz
  2276  06A2  1803               	skipnc
  2277  06A3  3E01               	addlw	1
  2278  06A4  1903               	skipnz
  2279  06A5  2EA7               	goto	u1981
  2280  06A6  07B5               	addwf	___flmul@prod+1,f
  2281  06A7                     u1981:
  2282  06A7  082A               	movf	??___flmul+2,w
  2283  06A8  1103               	clrz
  2284  06A9  1803               	skipnc
  2285  06AA  3E01               	addlw	1
  2286  06AB  1903               	skipnz
  2287  06AC  2EAE               	goto	u1982
  2288  06AD  07B6               	addwf	___flmul@prod+2,f
  2289  06AE                     u1982:
  2290  06AE  082B               	movf	??___flmul+3,w
  2291  06AF  1103               	clrz
  2292  06B0  1803               	skipnc
  2293  06B1  3E01               	addlw	1
  2294  06B2  1903               	skipnz
  2295  06B3  2EB5               	goto	u1983
  2296  06B4  07B7               	addwf	___flmul@prod+3,f
  2297  06B5                     u1983:
  2298  06B5  0822               	movf	___flmul@b+2,w
  2299  06B6  00A8               	movwf	??___flmul
  2300  06B7  0828               	movf	??___flmul,w
  2301  06B8  00F0               	movwf	__Umul8_16@multiplicand
  2302  06B9  0826               	movf	___flmul@a+2,w
  2303  06BA  120A  158A  2730  120A  118A  	fcall	__Umul8_16
  2304  06BF  0871               	movf	?__Umul8_16+1,w
  2305  06C0  1283               	bcf	3,5	;RP0=0, select bank0
  2306  06C1  1303               	bcf	3,6	;RP1=0, select bank0
  2307  06C2  00B9               	movwf	___flmul@temp+1
  2308  06C3  0870               	movf	?__Umul8_16,w
  2309  06C4  00B8               	movwf	___flmul@temp
  2310  06C5                     l1661:
  2311  06C5  0838               	movf	___flmul@temp,w
  2312  06C6  00A8               	movwf	??___flmul
  2313  06C7  0839               	movf	___flmul@temp+1,w
  2314  06C8  00A9               	movwf	??___flmul+1
  2315  06C9  01AA               	clrf	??___flmul+2
  2316  06CA  01AB               	clrf	??___flmul+3
  2317  06CB  3008               	movlw	8
  2318  06CC                     u1995:
  2319  06CC  1003               	clrc
  2320  06CD  0DA8               	rlf	??___flmul,f
  2321  06CE  0DA9               	rlf	??___flmul+1,f
  2322  06CF  0DAA               	rlf	??___flmul+2,f
  2323  06D0  0DAB               	rlf	??___flmul+3,f
  2324  06D1                     u1990:
  2325  06D1  3EFF               	addlw	-1
  2326  06D2  1D03               	skipz
  2327  06D3  2ECC               	goto	u1995
  2328  06D4  0828               	movf	??___flmul,w
  2329  06D5  07B4               	addwf	___flmul@prod,f
  2330  06D6  0829               	movf	??___flmul+1,w
  2331  06D7  1103               	clrz
  2332  06D8  1803               	skipnc
  2333  06D9  3E01               	addlw	1
  2334  06DA  1903               	skipnz
  2335  06DB  2EDD               	goto	u2001
  2336  06DC  07B5               	addwf	___flmul@prod+1,f
  2337  06DD                     u2001:
  2338  06DD  082A               	movf	??___flmul+2,w
  2339  06DE  1103               	clrz
  2340  06DF  1803               	skipnc
  2341  06E0  3E01               	addlw	1
  2342  06E1  1903               	skipnz
  2343  06E2  2EE4               	goto	u2002
  2344  06E3  07B6               	addwf	___flmul@prod+2,f
  2345  06E4                     u2002:
  2346  06E4  082B               	movf	??___flmul+3,w
  2347  06E5  1103               	clrz
  2348  06E6  1803               	skipnc
  2349  06E7  3E01               	addlw	1
  2350  06E8  1903               	skipnz
  2351  06E9  2EEB               	goto	u2003
  2352  06EA  07B7               	addwf	___flmul@prod+3,f
  2353  06EB                     u2003:
  2354  06EB                     l1663:
  2355  06EB  082E               	movf	___flmul@grs,w
  2356  06EC  00A8               	movwf	??___flmul
  2357  06ED  082F               	movf	___flmul@grs+1,w
  2358  06EE  00A9               	movwf	??___flmul+1
  2359  06EF  0830               	movf	___flmul@grs+2,w
  2360  06F0  00AA               	movwf	??___flmul+2
  2361  06F1  0831               	movf	___flmul@grs+3,w
  2362  06F2  00AB               	movwf	??___flmul+3
  2363  06F3  3018               	movlw	24
  2364  06F4                     u2015:
  2365  06F4  1003               	clrc
  2366  06F5  0CAB               	rrf	??___flmul+3,f
  2367  06F6  0CAA               	rrf	??___flmul+2,f
  2368  06F7  0CA9               	rrf	??___flmul+1,f
  2369  06F8  0CA8               	rrf	??___flmul,f
  2370  06F9                     u2010:
  2371  06F9  3EFF               	addlw	-1
  2372  06FA  1D03               	skipz
  2373  06FB  2EF4               	goto	u2015
  2374  06FC  0828               	movf	??___flmul,w
  2375  06FD  07B4               	addwf	___flmul@prod,f
  2376  06FE  0829               	movf	??___flmul+1,w
  2377  06FF  1103               	clrz
  2378  0700  1803               	skipnc
  2379  0701  3E01               	addlw	1
  2380  0702  1903               	skipnz
  2381  0703  2F05               	goto	u2021
  2382  0704  07B5               	addwf	___flmul@prod+1,f
  2383  0705                     u2021:
  2384  0705  082A               	movf	??___flmul+2,w
  2385  0706  1103               	clrz
  2386  0707  1803               	skipnc
  2387  0708  3E01               	addlw	1
  2388  0709  1903               	skipnz
  2389  070A  2F0C               	goto	u2022
  2390  070B  07B6               	addwf	___flmul@prod+2,f
  2391  070C                     u2022:
  2392  070C  082B               	movf	??___flmul+3,w
  2393  070D  1103               	clrz
  2394  070E  1803               	skipnc
  2395  070F  3E01               	addlw	1
  2396  0710  1903               	skipnz
  2397  0711  2F13               	goto	u2023
  2398  0712  07B7               	addwf	___flmul@prod+3,f
  2399  0713                     u2023:
  2400  0713                     l1665:
  2401  0713  3008               	movlw	8
  2402  0714  00A8               	movwf	??___flmul
  2403  0715                     u2035:
  2404  0715  1003               	clrc
  2405  0716  0DAE               	rlf	___flmul@grs,f
  2406  0717  0DAF               	rlf	___flmul@grs+1,f
  2407  0718  0DB0               	rlf	___flmul@grs+2,f
  2408  0719  0DB1               	rlf	___flmul@grs+3,f
  2409  071A  0BA8               	decfsz	??___flmul,f
  2410  071B  2F15               	goto	u2035
  2411  071C                     l1667:
  2412  071C  0833               	movf	___flmul@bexp,w
  2413  071D  0732               	addwf	___flmul@aexp,w
  2414  071E  00A8               	movwf	??___flmul
  2415  071F  01A9               	clrf	??___flmul+1
  2416  0720  0DA9               	rlf	??___flmul+1,f
  2417  0721  0828               	movf	??___flmul,w
  2418  0722  3E82               	addlw	130
  2419  0723  00B8               	movwf	___flmul@temp
  2420  0724  0829               	movf	??___flmul+1,w
  2421  0725  1803               	skipnc
  2422  0726  3E01               	addlw	1
  2423  0727  3EFF               	addlw	255
  2424  0728  00B9               	movwf	___flmul@temp+1
  2425  0729  2F47               	goto	l1679
  2426  072A                     l1669:
  2427  072A  3001               	movlw	1
  2428  072B  00A8               	movwf	??___flmul
  2429  072C                     u2045:
  2430  072C  1003               	clrc
  2431  072D  0DB4               	rlf	___flmul@prod,f
  2432  072E  0DB5               	rlf	___flmul@prod+1,f
  2433  072F  0DB6               	rlf	___flmul@prod+2,f
  2434  0730  0DB7               	rlf	___flmul@prod+3,f
  2435  0731  0BA8               	decfsz	??___flmul,f
  2436  0732  2F2C               	goto	u2045
  2437  0733                     l1671:
  2438  0733  1FB1               	btfss	___flmul@grs+3,7
  2439  0734  2F36               	goto	u2051
  2440  0735  2F37               	goto	u2050
  2441  0736                     u2051:
  2442  0736  2F38               	goto	l1675
  2443  0737                     u2050:
  2444  0737                     l1673:
  2445  0737  1434               	bsf	___flmul@prod,0
  2446  0738                     l1675:
  2447  0738  3001               	movlw	1
  2448  0739  00A8               	movwf	??___flmul
  2449  073A                     u2065:
  2450  073A  1003               	clrc
  2451  073B  0DAE               	rlf	___flmul@grs,f
  2452  073C  0DAF               	rlf	___flmul@grs+1,f
  2453  073D  0DB0               	rlf	___flmul@grs+2,f
  2454  073E  0DB1               	rlf	___flmul@grs+3,f
  2455  073F  0BA8               	decfsz	??___flmul,f
  2456  0740  2F3A               	goto	u2065
  2457  0741                     l1677:
  2458  0741  30FF               	movlw	255
  2459  0742  07B8               	addwf	___flmul@temp,f
  2460  0743  1803               	skipnc
  2461  0744  0AB9               	incf	___flmul@temp+1,f
  2462  0745  30FF               	movlw	255
  2463  0746  07B9               	addwf	___flmul@temp+1,f
  2464  0747                     l1679:
  2465  0747  1FB6               	btfss	___flmul@prod+2,7
  2466  0748  2F4A               	goto	u2071
  2467  0749  2F4B               	goto	u2070
  2468  074A                     u2071:
  2469  074A  2F2A               	goto	l1669
  2470  074B                     u2070:
  2471  074B                     l1681:
  2472  074B  01B2               	clrf	___flmul@aexp
  2473  074C                     l1683:
  2474  074C  1FB1               	btfss	___flmul@grs+3,7
  2475  074D  2F4F               	goto	u2081
  2476  074E  2F50               	goto	u2080
  2477  074F                     u2081:
  2478  074F  2F6C               	goto	l1691
  2479  0750                     u2080:
  2480  0750                     l1685:
  2481  0750  30FF               	movlw	255
  2482  0751  052E               	andwf	___flmul@grs,w
  2483  0752  00A8               	movwf	??___flmul
  2484  0753  30FF               	movlw	255
  2485  0754  052F               	andwf	___flmul@grs+1,w
  2486  0755  00A9               	movwf	??___flmul+1
  2487  0756  30FF               	movlw	255
  2488  0757  0530               	andwf	___flmul@grs+2,w
  2489  0758  00AA               	movwf	??___flmul+2
  2490  0759  307F               	movlw	127
  2491  075A  0531               	andwf	___flmul@grs+3,w
  2492  075B  00AB               	movwf	??___flmul+3
  2493  075C  082B               	movf	??___flmul+3,w
  2494  075D  042A               	iorwf	??___flmul+2,w
  2495  075E  0429               	iorwf	??___flmul+1,w
  2496  075F  0428               	iorwf	??___flmul,w
  2497  0760  1903               	skipnz
  2498  0761  2F63               	goto	u2091
  2499  0762  2F64               	goto	u2090
  2500  0763                     u2091:
  2501  0763  2F67               	goto	l556
  2502  0764                     u2090:
  2503  0764                     l1687:
  2504  0764  01B2               	clrf	___flmul@aexp
  2505  0765  0AB2               	incf	___flmul@aexp,f
  2506  0766  2F6C               	goto	l1691
  2507  0767                     l556:
  2508  0767  1C34               	btfss	___flmul@prod,0
  2509  0768  2F6A               	goto	u2101
  2510  0769  2F6B               	goto	u2100
  2511  076A                     u2101:
  2512  076A  2F6C               	goto	l1691
  2513  076B                     u2100:
  2514  076B  2F64               	goto	l1687
  2515  076C                     l1691:
  2516  076C  0832               	movf	___flmul@aexp,w
  2517  076D  1903               	btfsc	3,2
  2518  076E  2F70               	goto	u2111
  2519  076F  2F71               	goto	u2110
  2520  0770                     u2111:
  2521  0770  2FA2               	goto	l1701
  2522  0771                     u2110:
  2523  0771                     l1693:
  2524  0771  3001               	movlw	1
  2525  0772  07B4               	addwf	___flmul@prod,f
  2526  0773  3000               	movlw	0
  2527  0774  1803               	skipnc
  2528  0775  3001               	movlw	1
  2529  0776  07B5               	addwf	___flmul@prod+1,f
  2530  0777  3000               	movlw	0
  2531  0778  1803               	skipnc
  2532  0779  3001               	movlw	1
  2533  077A  07B6               	addwf	___flmul@prod+2,f
  2534  077B  3000               	movlw	0
  2535  077C  1803               	skipnc
  2536  077D  3001               	movlw	1
  2537  077E  07B7               	addwf	___flmul@prod+3,f
  2538  077F                     l1695:
  2539  077F  1C37               	btfss	___flmul@prod+3,0
  2540  0780  2F82               	goto	u2121
  2541  0781  2F83               	goto	u2120
  2542  0782                     u2121:
  2543  0782  2FA2               	goto	l1701
  2544  0783                     u2120:
  2545  0783                     l1697:
  2546  0783  0834               	movf	___flmul@prod,w
  2547  0784  00A8               	movwf	??___flmul
  2548  0785  0835               	movf	___flmul@prod+1,w
  2549  0786  00A9               	movwf	??___flmul+1
  2550  0787  0836               	movf	___flmul@prod+2,w
  2551  0788  00AA               	movwf	??___flmul+2
  2552  0789  0837               	movf	___flmul@prod+3,w
  2553  078A  00AB               	movwf	??___flmul+3
  2554  078B  3001               	movlw	1
  2555  078C  00AC               	movwf	??___flmul+4
  2556  078D                     u2135:
  2557  078D  0D2B               	rlf	??___flmul+3,w
  2558  078E  0CAB               	rrf	??___flmul+3,f
  2559  078F  0CAA               	rrf	??___flmul+2,f
  2560  0790  0CA9               	rrf	??___flmul+1,f
  2561  0791  0CA8               	rrf	??___flmul,f
  2562  0792                     u2130:
  2563  0792  0BAC               	decfsz	??___flmul+4,f
  2564  0793  2F8D               	goto	u2135
  2565  0794  082B               	movf	??___flmul+3,w
  2566  0795  00B7               	movwf	___flmul@prod+3
  2567  0796  082A               	movf	??___flmul+2,w
  2568  0797  00B6               	movwf	___flmul@prod+2
  2569  0798  0829               	movf	??___flmul+1,w
  2570  0799  00B5               	movwf	___flmul@prod+1
  2571  079A  0828               	movf	??___flmul,w
  2572  079B  00B4               	movwf	___flmul@prod
  2573  079C                     l1699:
  2574  079C  3001               	movlw	1
  2575  079D  07B8               	addwf	___flmul@temp,f
  2576  079E  1803               	skipnc
  2577  079F  0AB9               	incf	___flmul@temp+1,f
  2578  07A0  3000               	movlw	0
  2579  07A1  07B9               	addwf	___flmul@temp+1,f
  2580  07A2                     l1701:
  2581  07A2  0839               	movf	___flmul@temp+1,w
  2582  07A3  3A80               	xorlw	128
  2583  07A4  00FF               	movwf	btemp+1
  2584  07A5  3080               	movlw	128
  2585  07A6  027F               	subwf	btemp+1,w
  2586  07A7  1D03               	skipz
  2587  07A8  2FAB               	goto	u2145
  2588  07A9  30FF               	movlw	255
  2589  07AA  0238               	subwf	___flmul@temp,w
  2590  07AB                     u2145:
  2591  07AB  1C03               	skipc
  2592  07AC  2FAE               	goto	u2141
  2593  07AD  2FAF               	goto	u2140
  2594  07AE                     u2141:
  2595  07AE  2FBA               	goto	l1705
  2596  07AF                     u2140:
  2597  07AF                     l1703:
  2598  07AF  307F               	movlw	127
  2599  07B0  1283               	bcf	3,5	;RP0=0, select bank0
  2600  07B1  1303               	bcf	3,6	;RP1=0, select bank0
  2601  07B2  00B7               	movwf	___flmul@prod+3
  2602  07B3  3080               	movlw	128
  2603  07B4  00B6               	movwf	___flmul@prod+2
  2604  07B5  3000               	movlw	0
  2605  07B6  00B5               	movwf	___flmul@prod+1
  2606  07B7  3000               	movlw	0
  2607  07B8  00B4               	movwf	___flmul@prod
  2608  07B9  2FEF               	goto	l562
  2609  07BA                     l1705:
  2610  07BA  1283               	bcf	3,5	;RP0=0, select bank0
  2611  07BB  1303               	bcf	3,6	;RP1=0, select bank0
  2612  07BC  0839               	movf	___flmul@temp+1,w
  2613  07BD  3A80               	xorlw	128
  2614  07BE  00FF               	movwf	btemp+1
  2615  07BF  3080               	movlw	128
  2616  07C0  027F               	subwf	btemp+1,w
  2617  07C1  1D03               	skipz
  2618  07C2  2FC5               	goto	u2155
  2619  07C3  3001               	movlw	1
  2620  07C4  0238               	subwf	___flmul@temp,w
  2621  07C5                     u2155:
  2622  07C5  1803               	skipnc
  2623  07C6  2FC8               	goto	u2151
  2624  07C7  2FC9               	goto	u2150
  2625  07C8                     u2151:
  2626  07C8  2FD5               	goto	l1711
  2627  07C9                     u2150:
  2628  07C9                     l1707:
  2629  07C9  3000               	movlw	0
  2630  07CA  1283               	bcf	3,5	;RP0=0, select bank0
  2631  07CB  1303               	bcf	3,6	;RP1=0, select bank0
  2632  07CC  00B7               	movwf	___flmul@prod+3
  2633  07CD  3000               	movlw	0
  2634  07CE  00B6               	movwf	___flmul@prod+2
  2635  07CF  3000               	movlw	0
  2636  07D0  00B5               	movwf	___flmul@prod+1
  2637  07D1  3000               	movlw	0
  2638  07D2  00B4               	movwf	___flmul@prod
  2639  07D3                     l1709:
  2640  07D3  01AD               	clrf	___flmul@sign
  2641  07D4  2FEF               	goto	l562
  2642  07D5                     l1711:
  2643  07D5  1283               	bcf	3,5	;RP0=0, select bank0
  2644  07D6  1303               	bcf	3,6	;RP1=0, select bank0
  2645  07D7  0838               	movf	___flmul@temp,w
  2646  07D8  00A8               	movwf	??___flmul
  2647  07D9  0828               	movf	??___flmul,w
  2648  07DA  00B3               	movwf	___flmul@bexp
  2649  07DB  30FF               	movlw	255
  2650  07DC  05B4               	andwf	___flmul@prod,f
  2651  07DD  30FF               	movlw	255
  2652  07DE  05B5               	andwf	___flmul@prod+1,f
  2653  07DF  307F               	movlw	127
  2654  07E0  05B6               	andwf	___flmul@prod+2,f
  2655  07E1  3000               	movlw	0
  2656  07E2  05B7               	andwf	___flmul@prod+3,f
  2657  07E3                     l1713:
  2658  07E3  1C33               	btfss	___flmul@bexp,0
  2659  07E4  2FE6               	goto	u2161
  2660  07E5  2FE7               	goto	u2160
  2661  07E6                     u2161:
  2662  07E6  2FE8               	goto	l1717
  2663  07E7                     u2160:
  2664  07E7                     l1715:
  2665  07E7  17B6               	bsf	___flmul@prod+2,7
  2666  07E8                     l1717:
  2667  07E8  0833               	movf	___flmul@bexp,w
  2668  07E9  00A8               	movwf	??___flmul
  2669  07EA  1003               	clrc
  2670  07EB  0C28               	rrf	??___flmul,w
  2671  07EC  00A9               	movwf	??___flmul+1
  2672  07ED  0829               	movf	??___flmul+1,w
  2673  07EE  00B7               	movwf	___flmul@prod+3
  2674  07EF                     l562:
  2675  07EF  082D               	movf	___flmul@sign,w
  2676  07F0  00A8               	movwf	??___flmul
  2677  07F1  0828               	movf	??___flmul,w
  2678  07F2  04B7               	iorwf	___flmul@prod+3,f
  2679  07F3                     l1719:
  2680  07F3  0837               	movf	___flmul@prod+3,w
  2681  07F4  00A3               	movwf	?___flmul+3
  2682  07F5  0836               	movf	___flmul@prod+2,w
  2683  07F6  00A2               	movwf	?___flmul+2
  2684  07F7  0835               	movf	___flmul@prod+1,w
  2685  07F8  00A1               	movwf	?___flmul+1
  2686  07F9  0834               	movf	___flmul@prod,w
  2687  07FA  00A0               	movwf	?___flmul
  2688  07FB                     l550:
  2689  07FB  0008               	return
  2690  07FC                     __end_of___flmul:
  2691                           
  2692                           	psect	text6
  2693  0F30                     __ptext6:	
  2694 ;; *************** function __Umul8_16 *****************
  2695 ;; Defined at:
  2696 ;;		line 4 in file "D:\File Install MBLAB IDE\XC8\pic\sources\c90\common\Umul8_16.c"
  2697 ;; Parameters:    Size  Location     Type
  2698 ;;  multiplier      1    wreg     unsigned char 
  2699 ;;  multiplicand    1    0[COMMON] unsigned char 
  2700 ;; Auto vars:     Size  Location     Type
  2701 ;;  multiplier      1    8[COMMON] unsigned char 
  2702 ;;  word_mpld       2    6[COMMON] unsigned int 
  2703 ;;  product         2    4[COMMON] unsigned int 
  2704 ;; Return value:  Size  Location     Type
  2705 ;;                  2    0[COMMON] unsigned int 
  2706 ;; Registers used:
  2707 ;;		wreg, status,2, status,0
  2708 ;; Tracked objects:
  2709 ;;		On entry : 0/0
  2710 ;;		On exit  : 0/0
  2711 ;;		Unchanged: 0/0
  2712 ;; Data sizes:     COMMON   BANK0   BANK1   BANK3   BANK2
  2713 ;;      Params:         2       0       0       0       0
  2714 ;;      Locals:         5       0       0       0       0
  2715 ;;      Temps:          2       0       0       0       0
  2716 ;;      Totals:         9       0       0       0       0
  2717 ;;Total ram usage:        9 bytes
  2718 ;; Hardware stack levels used: 1
  2719 ;; This function calls:
  2720 ;;		Nothing
  2721 ;; This function is called by:
  2722 ;;		___flmul
  2723 ;; This function uses a non-reentrant model
  2724 ;;
  2725                           
  2726                           
  2727                           ;psect for function __Umul8_16
  2728  0F30                     __Umul8_16:
  2729                           
  2730                           ;incstack = 0
  2731                           ; Regs used in __Umul8_16: [wreg+status,2+status,0]
  2732                           ;__Umul8_16@multiplier stored from wreg
  2733  0F30  00F8               	movwf	__Umul8_16@multiplier
  2734  0F31                     l1297:
  2735  0F31  01F4               	clrf	__Umul8_16@product
  2736  0F32  01F5               	clrf	__Umul8_16@product+1
  2737  0F33                     l1299:
  2738  0F33  0870               	movf	__Umul8_16@multiplicand,w
  2739  0F34  00F2               	movwf	??__Umul8_16
  2740  0F35  01F3               	clrf	??__Umul8_16+1
  2741  0F36  0872               	movf	??__Umul8_16,w
  2742  0F37  00F6               	movwf	__Umul8_16@word_mpld
  2743  0F38  0873               	movf	??__Umul8_16+1,w
  2744  0F39  00F7               	movwf	__Umul8_16@word_mpld+1
  2745  0F3A                     l1301:
  2746  0F3A  1C78               	btfss	__Umul8_16@multiplier,0
  2747  0F3B  2F3D               	goto	u1231
  2748  0F3C  2F3E               	goto	u1230
  2749  0F3D                     u1231:
  2750  0F3D  2F44               	goto	l569
  2751  0F3E                     u1230:
  2752  0F3E                     l1303:
  2753  0F3E  0876               	movf	__Umul8_16@word_mpld,w
  2754  0F3F  07F4               	addwf	__Umul8_16@product,f
  2755  0F40  1803               	skipnc
  2756  0F41  0AF5               	incf	__Umul8_16@product+1,f
  2757  0F42  0877               	movf	__Umul8_16@word_mpld+1,w
  2758  0F43  07F5               	addwf	__Umul8_16@product+1,f
  2759  0F44                     l569:
  2760  0F44  3001               	movlw	1
  2761  0F45                     u1245:
  2762  0F45  1003               	clrc
  2763  0F46  0DF6               	rlf	__Umul8_16@word_mpld,f
  2764  0F47  0DF7               	rlf	__Umul8_16@word_mpld+1,f
  2765  0F48  3EFF               	addlw	-1
  2766  0F49  1D03               	skipz
  2767  0F4A  2F45               	goto	u1245
  2768  0F4B  1003               	clrc
  2769  0F4C  0CF8               	rrf	__Umul8_16@multiplier,f
  2770  0F4D                     l1305:
  2771  0F4D  0878               	movf	__Umul8_16@multiplier,w
  2772  0F4E  1D03               	btfss	3,2
  2773  0F4F  2F51               	goto	u1251
  2774  0F50  2F52               	goto	u1250
  2775  0F51                     u1251:
  2776  0F51  2F3A               	goto	l1301
  2777  0F52                     u1250:
  2778  0F52                     l1307:
  2779  0F52  0875               	movf	__Umul8_16@product+1,w
  2780  0F53  00F1               	movwf	?__Umul8_16+1
  2781  0F54  0874               	movf	__Umul8_16@product,w
  2782  0F55  00F0               	movwf	?__Umul8_16
  2783  0F56                     l571:
  2784  0F56  0008               	return
  2785  0F57                     __end_of__Umul8_16:
  2786                           
  2787                           	psect	text7
  2788  02BE                     __ptext7:	
  2789 ;; *************** function ___fldiv *****************
  2790 ;; Defined at:
  2791 ;;		line 8 in file "D:\File Install MBLAB IDE\XC8\pic\sources\c90\common\sprcdiv.c"
  2792 ;; Parameters:    Size  Location     Type
  2793 ;;  a               4   26[BANK0 ] unsigned int 
  2794 ;;  b               4   30[BANK0 ] unsigned int 
  2795 ;; Auto vars:     Size  Location     Type
  2796 ;;  grs             4   46[BANK0 ] unsigned long 
  2797 ;;  rem             4   39[BANK0 ] unsigned long 
  2798 ;;  new_exp         2   44[BANK0 ] int 
  2799 ;;  aexp            1   51[BANK0 ] unsigned char 
  2800 ;;  bexp            1   50[BANK0 ] unsigned char 
  2801 ;;  sign            1   43[BANK0 ] unsigned char 
  2802 ;; Return value:  Size  Location     Type
  2803 ;;                  4   26[BANK0 ] unsigned char 
  2804 ;; Registers used:
  2805 ;;		wreg, status,2, status,0, btemp+1
  2806 ;; Tracked objects:
  2807 ;;		On entry : 0/0
  2808 ;;		On exit  : 0/0
  2809 ;;		Unchanged: 0/0
  2810 ;; Data sizes:     COMMON   BANK0   BANK1   BANK3   BANK2
  2811 ;;      Params:         0       8       0       0       0
  2812 ;;      Locals:         0      13       0       0       0
  2813 ;;      Temps:          0       5       0       0       0
  2814 ;;      Totals:         0      26       0       0       0
  2815 ;;Total ram usage:       26 bytes
  2816 ;; Hardware stack levels used: 1
  2817 ;; This function calls:
  2818 ;;		Nothing
  2819 ;; This function is called by:
  2820 ;;		_main
  2821 ;; This function uses a non-reentrant model
  2822 ;;
  2823                           
  2824                           
  2825                           ;psect for function ___fldiv
  2826  02BE                     ___fldiv:
  2827  02BE                     l1441:	
  2828                           ;incstack = 0
  2829                           ; Regs used in ___fldiv: [wreg+status,2+status,0+btemp+1]
  2830                           
  2831  02BE  1283               	bcf	3,5	;RP0=0, select bank0
  2832  02BF  1303               	bcf	3,6	;RP1=0, select bank0
  2833  02C0  0841               	movf	___fldiv@b+3,w
  2834  02C1  3980               	andlw	128
  2835  02C2  00C2               	movwf	??___fldiv
  2836  02C3  0842               	movf	??___fldiv,w
  2837  02C4  00CB               	movwf	___fldiv@sign
  2838  02C5                     l1443:
  2839  02C5  0841               	movf	___fldiv@b+3,w
  2840  02C6  00C2               	movwf	??___fldiv
  2841  02C7  0742               	addwf	??___fldiv,w
  2842  02C8  00C3               	movwf	??___fldiv+1
  2843  02C9  0843               	movf	??___fldiv+1,w
  2844  02CA  00D2               	movwf	___fldiv@bexp
  2845  02CB                     l1445:
  2846  02CB  1FC0               	btfss	___fldiv@b+2,7
  2847  02CC  2ACE               	goto	u1511
  2848  02CD  2ACF               	goto	u1510
  2849  02CE                     u1511:
  2850  02CE  2AD0               	goto	l1449
  2851  02CF                     u1510:
  2852  02CF                     l1447:
  2853  02CF  1452               	bsf	___fldiv@bexp,0
  2854  02D0                     l1449:
  2855  02D0  0852               	movf	___fldiv@bexp,w
  2856  02D1  1903               	btfsc	3,2
  2857  02D2  2AD4               	goto	u1521
  2858  02D3  2AD5               	goto	u1520
  2859  02D4                     u1521:
  2860  02D4  2AE5               	goto	l1459
  2861  02D5                     u1520:
  2862  02D5                     l1451:
  2863  02D5  0A52               	incf	___fldiv@bexp,w
  2864  02D6  1D03               	btfss	3,2
  2865  02D7  2AD9               	goto	u1531
  2866  02D8  2ADA               	goto	u1530
  2867  02D9                     u1531:
  2868  02D9  2AE2               	goto	l1455
  2869  02DA                     u1530:
  2870  02DA                     l1453:
  2871  02DA  3000               	movlw	0
  2872  02DB  00C1               	movwf	___fldiv@b+3
  2873  02DC  3000               	movlw	0
  2874  02DD  00C0               	movwf	___fldiv@b+2
  2875  02DE  3000               	movlw	0
  2876  02DF  00BF               	movwf	___fldiv@b+1
  2877  02E0  3000               	movlw	0
  2878  02E1  00BE               	movwf	___fldiv@b
  2879  02E2                     l1455:
  2880  02E2  17C0               	bsf	___fldiv@b+2,7
  2881  02E3                     l1457:
  2882  02E3  01C1               	clrf	___fldiv@b+3
  2883  02E4  2AED               	goto	l1461
  2884  02E5                     l1459:
  2885  02E5  3000               	movlw	0
  2886  02E6  00C1               	movwf	___fldiv@b+3
  2887  02E7  3000               	movlw	0
  2888  02E8  00C0               	movwf	___fldiv@b+2
  2889  02E9  3000               	movlw	0
  2890  02EA  00BF               	movwf	___fldiv@b+1
  2891  02EB  3000               	movlw	0
  2892  02EC  00BE               	movwf	___fldiv@b
  2893  02ED                     l1461:
  2894  02ED  083D               	movf	___fldiv@a+3,w
  2895  02EE  3980               	andlw	128
  2896  02EF  00C2               	movwf	??___fldiv
  2897  02F0  0842               	movf	??___fldiv,w
  2898  02F1  06CB               	xorwf	___fldiv@sign,f
  2899  02F2                     l1463:
  2900  02F2  083D               	movf	___fldiv@a+3,w
  2901  02F3  00C2               	movwf	??___fldiv
  2902  02F4  0742               	addwf	??___fldiv,w
  2903  02F5  00C3               	movwf	??___fldiv+1
  2904  02F6  0843               	movf	??___fldiv+1,w
  2905  02F7  00D3               	movwf	___fldiv@aexp
  2906  02F8                     l1465:
  2907  02F8  1FBC               	btfss	___fldiv@a+2,7
  2908  02F9  2AFB               	goto	u1541
  2909  02FA  2AFC               	goto	u1540
  2910  02FB                     u1541:
  2911  02FB  2AFD               	goto	l1469
  2912  02FC                     u1540:
  2913  02FC                     l1467:
  2914  02FC  1453               	bsf	___fldiv@aexp,0
  2915  02FD                     l1469:
  2916  02FD  0853               	movf	___fldiv@aexp,w
  2917  02FE  1903               	btfsc	3,2
  2918  02FF  2B01               	goto	u1551
  2919  0300  2B02               	goto	u1550
  2920  0301                     u1551:
  2921  0301  2B12               	goto	l1479
  2922  0302                     u1550:
  2923  0302                     l1471:
  2924  0302  0A53               	incf	___fldiv@aexp,w
  2925  0303  1D03               	btfss	3,2
  2926  0304  2B06               	goto	u1561
  2927  0305  2B07               	goto	u1560
  2928  0306                     u1561:
  2929  0306  2B0F               	goto	l1475
  2930  0307                     u1560:
  2931  0307                     l1473:
  2932  0307  3000               	movlw	0
  2933  0308  00BD               	movwf	___fldiv@a+3
  2934  0309  3000               	movlw	0
  2935  030A  00BC               	movwf	___fldiv@a+2
  2936  030B  3000               	movlw	0
  2937  030C  00BB               	movwf	___fldiv@a+1
  2938  030D  3000               	movlw	0
  2939  030E  00BA               	movwf	___fldiv@a
  2940  030F                     l1475:
  2941  030F  17BC               	bsf	___fldiv@a+2,7
  2942  0310                     l1477:
  2943  0310  01BD               	clrf	___fldiv@a+3
  2944  0311  2B1A               	goto	l510
  2945  0312                     l1479:
  2946  0312  3000               	movlw	0
  2947  0313  00BD               	movwf	___fldiv@a+3
  2948  0314  3000               	movlw	0
  2949  0315  00BC               	movwf	___fldiv@a+2
  2950  0316  3000               	movlw	0
  2951  0317  00BB               	movwf	___fldiv@a+1
  2952  0318  3000               	movlw	0
  2953  0319  00BA               	movwf	___fldiv@a
  2954  031A                     l510:
  2955  031A  083D               	movf	___fldiv@a+3,w
  2956  031B  043C               	iorwf	___fldiv@a+2,w
  2957  031C  043B               	iorwf	___fldiv@a+1,w
  2958  031D  043A               	iorwf	___fldiv@a,w
  2959  031E  1D03               	skipz
  2960  031F  2B21               	goto	u1571
  2961  0320  2B22               	goto	u1570
  2962  0321                     u1571:
  2963  0321  2B3B               	goto	l1489
  2964  0322                     u1570:
  2965  0322                     l1481:
  2966  0322  3000               	movlw	0
  2967  0323  00C1               	movwf	___fldiv@b+3
  2968  0324  3000               	movlw	0
  2969  0325  00C0               	movwf	___fldiv@b+2
  2970  0326  3000               	movlw	0
  2971  0327  00BF               	movwf	___fldiv@b+1
  2972  0328  3000               	movlw	0
  2973  0329  00BE               	movwf	___fldiv@b
  2974  032A  3080               	movlw	128
  2975  032B  04C0               	iorwf	___fldiv@b+2,f
  2976  032C  307F               	movlw	127
  2977  032D  04C1               	iorwf	___fldiv@b+3,f
  2978  032E                     l1483:
  2979  032E  084B               	movf	___fldiv@sign,w
  2980  032F  00C2               	movwf	??___fldiv
  2981  0330  0842               	movf	??___fldiv,w
  2982  0331  04C1               	iorwf	___fldiv@b+3,f
  2983  0332                     l1485:
  2984  0332  0841               	movf	___fldiv@b+3,w
  2985  0333  00BD               	movwf	?___fldiv+3
  2986  0334  0840               	movf	___fldiv@b+2,w
  2987  0335  00BC               	movwf	?___fldiv+2
  2988  0336  083F               	movf	___fldiv@b+1,w
  2989  0337  00BB               	movwf	?___fldiv+1
  2990  0338  083E               	movf	___fldiv@b,w
  2991  0339  00BA               	movwf	?___fldiv
  2992  033A  2C9A               	goto	l512
  2993  033B                     l1489:
  2994  033B  0852               	movf	___fldiv@bexp,w
  2995  033C  1D03               	btfss	3,2
  2996  033D  2B3F               	goto	u1581
  2997  033E  2B40               	goto	u1580
  2998  033F                     u1581:
  2999  033F  2B49               	goto	l1495
  3000  0340                     u1580:
  3001  0340                     l1491:
  3002  0340  3000               	movlw	0
  3003  0341  00BD               	movwf	?___fldiv+3
  3004  0342  3000               	movlw	0
  3005  0343  00BC               	movwf	?___fldiv+2
  3006  0344  3000               	movlw	0
  3007  0345  00BB               	movwf	?___fldiv+1
  3008  0346  3000               	movlw	0
  3009  0347  00BA               	movwf	?___fldiv
  3010  0348  2C9A               	goto	l512
  3011  0349                     l1495:
  3012  0349  0852               	movf	___fldiv@bexp,w
  3013  034A  00C2               	movwf	??___fldiv
  3014  034B  01C3               	clrf	??___fldiv+1
  3015  034C  0843               	movf	??___fldiv+1,w
  3016  034D  00C5               	movwf	??___fldiv+3
  3017  034E  0853               	movf	___fldiv@aexp,w
  3018  034F  0242               	subwf	??___fldiv,w
  3019  0350  00C4               	movwf	??___fldiv+2
  3020  0351  1C03               	skipc
  3021  0352  03C5               	decf	??___fldiv+3,f
  3022  0353  0844               	movf	??___fldiv+2,w
  3023  0354  3E7F               	addlw	127
  3024  0355  00CC               	movwf	___fldiv@new_exp
  3025  0356  0845               	movf	??___fldiv+3,w
  3026  0357  1803               	skipnc
  3027  0358  3E01               	addlw	1
  3028  0359  3E00               	addlw	0
  3029  035A  00CD               	movwf	___fldiv@new_exp+1
  3030  035B                     l1497:
  3031  035B  0841               	movf	___fldiv@b+3,w
  3032  035C  00CA               	movwf	___fldiv@rem+3
  3033  035D  0840               	movf	___fldiv@b+2,w
  3034  035E  00C9               	movwf	___fldiv@rem+2
  3035  035F  083F               	movf	___fldiv@b+1,w
  3036  0360  00C8               	movwf	___fldiv@rem+1
  3037  0361  083E               	movf	___fldiv@b,w
  3038  0362  00C7               	movwf	___fldiv@rem
  3039  0363                     l1499:
  3040  0363  3000               	movlw	0
  3041  0364  00C1               	movwf	___fldiv@b+3
  3042  0365  3000               	movlw	0
  3043  0366  00C0               	movwf	___fldiv@b+2
  3044  0367  3000               	movlw	0
  3045  0368  00BF               	movwf	___fldiv@b+1
  3046  0369  3000               	movlw	0
  3047  036A  00BE               	movwf	___fldiv@b
  3048  036B                     l1501:
  3049  036B  3000               	movlw	0
  3050  036C  00D1               	movwf	___fldiv@grs+3
  3051  036D  3000               	movlw	0
  3052  036E  00D0               	movwf	___fldiv@grs+2
  3053  036F  3000               	movlw	0
  3054  0370  00CF               	movwf	___fldiv@grs+1
  3055  0371  3000               	movlw	0
  3056  0372  00CE               	movwf	___fldiv@grs
  3057  0373                     l1503:
  3058  0373  01D3               	clrf	___fldiv@aexp
  3059  0374  2BBF               	goto	l1523
  3060  0375                     l1505:
  3061  0375  0853               	movf	___fldiv@aexp,w
  3062  0376  1903               	btfsc	3,2
  3063  0377  2B79               	goto	u1591
  3064  0378  2B7A               	goto	u1590
  3065  0379                     u1591:
  3066  0379  2B9A               	goto	l1515
  3067  037A                     u1590:
  3068  037A                     l1507:
  3069  037A  3001               	movlw	1
  3070  037B  00C2               	movwf	??___fldiv
  3071  037C                     u1605:
  3072  037C  1003               	clrc
  3073  037D  0DC7               	rlf	___fldiv@rem,f
  3074  037E  0DC8               	rlf	___fldiv@rem+1,f
  3075  037F  0DC9               	rlf	___fldiv@rem+2,f
  3076  0380  0DCA               	rlf	___fldiv@rem+3,f
  3077  0381  0BC2               	decfsz	??___fldiv,f
  3078  0382  2B7C               	goto	u1605
  3079  0383  3001               	movlw	1
  3080  0384  00C2               	movwf	??___fldiv
  3081  0385                     u1615:
  3082  0385  1003               	clrc
  3083  0386  0DBE               	rlf	___fldiv@b,f
  3084  0387  0DBF               	rlf	___fldiv@b+1,f
  3085  0388  0DC0               	rlf	___fldiv@b+2,f
  3086  0389  0DC1               	rlf	___fldiv@b+3,f
  3087  038A  0BC2               	decfsz	??___fldiv,f
  3088  038B  2B85               	goto	u1615
  3089  038C                     l1509:
  3090  038C  1FD1               	btfss	___fldiv@grs+3,7
  3091  038D  2B8F               	goto	u1621
  3092  038E  2B90               	goto	u1620
  3093  038F                     u1621:
  3094  038F  2B91               	goto	l1513
  3095  0390                     u1620:
  3096  0390                     l1511:
  3097  0390  143E               	bsf	___fldiv@b,0
  3098  0391                     l1513:
  3099  0391  3001               	movlw	1
  3100  0392  00C2               	movwf	??___fldiv
  3101  0393                     u1635:
  3102  0393  1003               	clrc
  3103  0394  0DCE               	rlf	___fldiv@grs,f
  3104  0395  0DCF               	rlf	___fldiv@grs+1,f
  3105  0396  0DD0               	rlf	___fldiv@grs+2,f
  3106  0397  0DD1               	rlf	___fldiv@grs+3,f
  3107  0398  0BC2               	decfsz	??___fldiv,f
  3108  0399  2B93               	goto	u1635
  3109  039A                     l1515:
  3110  039A  083D               	movf	___fldiv@a+3,w
  3111  039B  024A               	subwf	___fldiv@rem+3,w
  3112  039C  1D03               	skipz
  3113  039D  2BA8               	goto	u1645
  3114  039E  083C               	movf	___fldiv@a+2,w
  3115  039F  0249               	subwf	___fldiv@rem+2,w
  3116  03A0  1D03               	skipz
  3117  03A1  2BA8               	goto	u1645
  3118  03A2  083B               	movf	___fldiv@a+1,w
  3119  03A3  0248               	subwf	___fldiv@rem+1,w
  3120  03A4  1D03               	skipz
  3121  03A5  2BA8               	goto	u1645
  3122  03A6  083A               	movf	___fldiv@a,w
  3123  03A7  0247               	subwf	___fldiv@rem,w
  3124  03A8                     u1645:
  3125  03A8  1C03               	skipc
  3126  03A9  2BAB               	goto	u1641
  3127  03AA  2BAC               	goto	u1640
  3128  03AB                     u1641:
  3129  03AB  2BBB               	goto	l1521
  3130  03AC                     u1640:
  3131  03AC                     l1517:
  3132  03AC  1751               	bsf	___fldiv@grs+3,6
  3133  03AD                     l1519:
  3134  03AD  083A               	movf	___fldiv@a,w
  3135  03AE  02C7               	subwf	___fldiv@rem,f
  3136  03AF  083B               	movf	___fldiv@a+1,w
  3137  03B0  1C03               	skipc
  3138  03B1  0F3B               	incfsz	___fldiv@a+1,w
  3139  03B2  02C8               	subwf	___fldiv@rem+1,f
  3140  03B3  083C               	movf	___fldiv@a+2,w
  3141  03B4  1C03               	skipc
  3142  03B5  0F3C               	incfsz	___fldiv@a+2,w
  3143  03B6  02C9               	subwf	___fldiv@rem+2,f
  3144  03B7  083D               	movf	___fldiv@a+3,w
  3145  03B8  1C03               	skipc
  3146  03B9  0F3D               	incfsz	___fldiv@a+3,w
  3147  03BA  02CA               	subwf	___fldiv@rem+3,f
  3148  03BB                     l1521:
  3149  03BB  3001               	movlw	1
  3150  03BC  00C2               	movwf	??___fldiv
  3151  03BD  0842               	movf	??___fldiv,w
  3152  03BE  07D3               	addwf	___fldiv@aexp,f
  3153  03BF                     l1523:
  3154  03BF  301A               	movlw	26
  3155  03C0  0253               	subwf	___fldiv@aexp,w
  3156  03C1  1C03               	skipc
  3157  03C2  2BC4               	goto	u1651
  3158  03C3  2BC5               	goto	u1650
  3159  03C4                     u1651:
  3160  03C4  2B75               	goto	l1505
  3161  03C5                     u1650:
  3162  03C5                     l1525:
  3163  03C5  084A               	movf	___fldiv@rem+3,w
  3164  03C6  0449               	iorwf	___fldiv@rem+2,w
  3165  03C7  0448               	iorwf	___fldiv@rem+1,w
  3166  03C8  0447               	iorwf	___fldiv@rem,w
  3167  03C9  1903               	skipnz
  3168  03CA  2BCC               	goto	u1661
  3169  03CB  2BCD               	goto	u1660
  3170  03CC                     u1661:
  3171  03CC  2BEC               	goto	l1539
  3172  03CD                     u1660:
  3173  03CD                     l1527:
  3174  03CD  144E               	bsf	___fldiv@grs,0
  3175  03CE  2BEC               	goto	l1539
  3176  03CF                     l1529:
  3177  03CF  3001               	movlw	1
  3178  03D0  00C2               	movwf	??___fldiv
  3179  03D1                     u1675:
  3180  03D1  1003               	clrc
  3181  03D2  0DBE               	rlf	___fldiv@b,f
  3182  03D3  0DBF               	rlf	___fldiv@b+1,f
  3183  03D4  0DC0               	rlf	___fldiv@b+2,f
  3184  03D5  0DC1               	rlf	___fldiv@b+3,f
  3185  03D6  0BC2               	decfsz	??___fldiv,f
  3186  03D7  2BD1               	goto	u1675
  3187  03D8                     l1531:
  3188  03D8  1FD1               	btfss	___fldiv@grs+3,7
  3189  03D9  2BDB               	goto	u1681
  3190  03DA  2BDC               	goto	u1680
  3191  03DB                     u1681:
  3192  03DB  2BDD               	goto	l1535
  3193  03DC                     u1680:
  3194  03DC                     l1533:
  3195  03DC  143E               	bsf	___fldiv@b,0
  3196  03DD                     l1535:
  3197  03DD  3001               	movlw	1
  3198  03DE  00C2               	movwf	??___fldiv
  3199  03DF                     u1695:
  3200  03DF  1003               	clrc
  3201  03E0  0DCE               	rlf	___fldiv@grs,f
  3202  03E1  0DCF               	rlf	___fldiv@grs+1,f
  3203  03E2  0DD0               	rlf	___fldiv@grs+2,f
  3204  03E3  0DD1               	rlf	___fldiv@grs+3,f
  3205  03E4  0BC2               	decfsz	??___fldiv,f
  3206  03E5  2BDF               	goto	u1695
  3207  03E6                     l1537:
  3208  03E6  30FF               	movlw	255
  3209  03E7  07CC               	addwf	___fldiv@new_exp,f
  3210  03E8  1803               	skipnc
  3211  03E9  0ACD               	incf	___fldiv@new_exp+1,f
  3212  03EA  30FF               	movlw	255
  3213  03EB  07CD               	addwf	___fldiv@new_exp+1,f
  3214  03EC                     l1539:
  3215  03EC  1FC0               	btfss	___fldiv@b+2,7
  3216  03ED  2BEF               	goto	u1701
  3217  03EE  2BF0               	goto	u1700
  3218  03EF                     u1701:
  3219  03EF  2BCF               	goto	l1529
  3220  03F0                     u1700:
  3221  03F0                     l1541:
  3222  03F0  01D3               	clrf	___fldiv@aexp
  3223  03F1                     l1543:
  3224  03F1  1FD1               	btfss	___fldiv@grs+3,7
  3225  03F2  2BF4               	goto	u1711
  3226  03F3  2BF5               	goto	u1710
  3227  03F4                     u1711:
  3228  03F4  2C11               	goto	l1551
  3229  03F5                     u1710:
  3230  03F5                     l1545:
  3231  03F5  30FF               	movlw	255
  3232  03F6  054E               	andwf	___fldiv@grs,w
  3233  03F7  00C2               	movwf	??___fldiv
  3234  03F8  30FF               	movlw	255
  3235  03F9  054F               	andwf	___fldiv@grs+1,w
  3236  03FA  00C3               	movwf	??___fldiv+1
  3237  03FB  30FF               	movlw	255
  3238  03FC  0550               	andwf	___fldiv@grs+2,w
  3239  03FD  00C4               	movwf	??___fldiv+2
  3240  03FE  307F               	movlw	127
  3241  03FF  0551               	andwf	___fldiv@grs+3,w
  3242  0400  00C5               	movwf	??___fldiv+3
  3243  0401  0845               	movf	??___fldiv+3,w
  3244  0402  0444               	iorwf	??___fldiv+2,w
  3245  0403  0443               	iorwf	??___fldiv+1,w
  3246  0404  0442               	iorwf	??___fldiv,w
  3247  0405  1903               	skipnz
  3248  0406  2C08               	goto	u1721
  3249  0407  2C09               	goto	u1720
  3250  0408                     u1721:
  3251  0408  2C0C               	goto	l526
  3252  0409                     u1720:
  3253  0409                     l1547:
  3254  0409  01D3               	clrf	___fldiv@aexp
  3255  040A  0AD3               	incf	___fldiv@aexp,f
  3256  040B  2C11               	goto	l1551
  3257  040C                     l526:
  3258  040C  1C3E               	btfss	___fldiv@b,0
  3259  040D  2C0F               	goto	u1731
  3260  040E  2C10               	goto	u1730
  3261  040F                     u1731:
  3262  040F  2C11               	goto	l1551
  3263  0410                     u1730:
  3264  0410  2C09               	goto	l1547
  3265  0411                     l1551:
  3266  0411  0853               	movf	___fldiv@aexp,w
  3267  0412  1903               	btfsc	3,2
  3268  0413  2C15               	goto	u1741
  3269  0414  2C16               	goto	u1740
  3270  0415                     u1741:
  3271  0415  2C47               	goto	l1561
  3272  0416                     u1740:
  3273  0416                     l1553:
  3274  0416  3001               	movlw	1
  3275  0417  07BE               	addwf	___fldiv@b,f
  3276  0418  3000               	movlw	0
  3277  0419  1803               	skipnc
  3278  041A  3001               	movlw	1
  3279  041B  07BF               	addwf	___fldiv@b+1,f
  3280  041C  3000               	movlw	0
  3281  041D  1803               	skipnc
  3282  041E  3001               	movlw	1
  3283  041F  07C0               	addwf	___fldiv@b+2,f
  3284  0420  3000               	movlw	0
  3285  0421  1803               	skipnc
  3286  0422  3001               	movlw	1
  3287  0423  07C1               	addwf	___fldiv@b+3,f
  3288  0424                     l1555:
  3289  0424  1C41               	btfss	___fldiv@b+3,0
  3290  0425  2C27               	goto	u1751
  3291  0426  2C28               	goto	u1750
  3292  0427                     u1751:
  3293  0427  2C47               	goto	l1561
  3294  0428                     u1750:
  3295  0428                     l1557:
  3296  0428  083E               	movf	___fldiv@b,w
  3297  0429  00C2               	movwf	??___fldiv
  3298  042A  083F               	movf	___fldiv@b+1,w
  3299  042B  00C3               	movwf	??___fldiv+1
  3300  042C  0840               	movf	___fldiv@b+2,w
  3301  042D  00C4               	movwf	??___fldiv+2
  3302  042E  0841               	movf	___fldiv@b+3,w
  3303  042F  00C5               	movwf	??___fldiv+3
  3304  0430  3001               	movlw	1
  3305  0431  00C6               	movwf	??___fldiv+4
  3306  0432                     u1765:
  3307  0432  0D45               	rlf	??___fldiv+3,w
  3308  0433  0CC5               	rrf	??___fldiv+3,f
  3309  0434  0CC4               	rrf	??___fldiv+2,f
  3310  0435  0CC3               	rrf	??___fldiv+1,f
  3311  0436  0CC2               	rrf	??___fldiv,f
  3312  0437                     u1760:
  3313  0437  0BC6               	decfsz	??___fldiv+4,f
  3314  0438  2C32               	goto	u1765
  3315  0439  0845               	movf	??___fldiv+3,w
  3316  043A  00C1               	movwf	___fldiv@b+3
  3317  043B  0844               	movf	??___fldiv+2,w
  3318  043C  00C0               	movwf	___fldiv@b+2
  3319  043D  0843               	movf	??___fldiv+1,w
  3320  043E  00BF               	movwf	___fldiv@b+1
  3321  043F  0842               	movf	??___fldiv,w
  3322  0440  00BE               	movwf	___fldiv@b
  3323  0441                     l1559:
  3324  0441  3001               	movlw	1
  3325  0442  07CC               	addwf	___fldiv@new_exp,f
  3326  0443  1803               	skipnc
  3327  0444  0ACD               	incf	___fldiv@new_exp+1,f
  3328  0445  3000               	movlw	0
  3329  0446  07CD               	addwf	___fldiv@new_exp+1,f
  3330  0447                     l1561:
  3331  0447  084D               	movf	___fldiv@new_exp+1,w
  3332  0448  3A80               	xorlw	128
  3333  0449  00FF               	movwf	btemp+1
  3334  044A  3080               	movlw	128
  3335  044B  027F               	subwf	btemp+1,w
  3336  044C  1D03               	skipz
  3337  044D  2C50               	goto	u1775
  3338  044E  30FF               	movlw	255
  3339  044F  024C               	subwf	___fldiv@new_exp,w
  3340  0450                     u1775:
  3341  0450  1C03               	skipc
  3342  0451  2C53               	goto	u1771
  3343  0452  2C54               	goto	u1770
  3344  0453                     u1771:
  3345  0453  2C62               	goto	l1565
  3346  0454                     u1770:
  3347  0454                     l1563:
  3348  0454  30FF               	movlw	255
  3349  0455  1283               	bcf	3,5	;RP0=0, select bank0
  3350  0456  1303               	bcf	3,6	;RP1=0, select bank0
  3351  0457  00CC               	movwf	___fldiv@new_exp
  3352  0458  3000               	movlw	0
  3353  0459  00CD               	movwf	___fldiv@new_exp+1
  3354  045A  3000               	movlw	0
  3355  045B  00C1               	movwf	___fldiv@b+3
  3356  045C  3000               	movlw	0
  3357  045D  00C0               	movwf	___fldiv@b+2
  3358  045E  3000               	movlw	0
  3359  045F  00BF               	movwf	___fldiv@b+1
  3360  0460  3000               	movlw	0
  3361  0461  00BE               	movwf	___fldiv@b
  3362  0462                     l1565:
  3363  0462  1283               	bcf	3,5	;RP0=0, select bank0
  3364  0463  1303               	bcf	3,6	;RP1=0, select bank0
  3365  0464  084D               	movf	___fldiv@new_exp+1,w
  3366  0465  3A80               	xorlw	128
  3367  0466  00FF               	movwf	btemp+1
  3368  0467  3080               	movlw	128
  3369  0468  027F               	subwf	btemp+1,w
  3370  0469  1D03               	skipz
  3371  046A  2C6D               	goto	u1785
  3372  046B  3001               	movlw	1
  3373  046C  024C               	subwf	___fldiv@new_exp,w
  3374  046D                     u1785:
  3375  046D  1803               	skipnc
  3376  046E  2C70               	goto	u1781
  3377  046F  2C71               	goto	u1780
  3378  0470                     u1781:
  3379  0470  2C7E               	goto	l532
  3380  0471                     u1780:
  3381  0471                     l1567:
  3382  0471  1283               	bcf	3,5	;RP0=0, select bank0
  3383  0472  1303               	bcf	3,6	;RP1=0, select bank0
  3384  0473  01CC               	clrf	___fldiv@new_exp
  3385  0474  01CD               	clrf	___fldiv@new_exp+1
  3386  0475                     l1569:
  3387  0475  3000               	movlw	0
  3388  0476  00C1               	movwf	___fldiv@b+3
  3389  0477  3000               	movlw	0
  3390  0478  00C0               	movwf	___fldiv@b+2
  3391  0479  3000               	movlw	0
  3392  047A  00BF               	movwf	___fldiv@b+1
  3393  047B  3000               	movlw	0
  3394  047C  00BE               	movwf	___fldiv@b
  3395  047D                     l1571:
  3396  047D  01CB               	clrf	___fldiv@sign
  3397  047E                     l532:
  3398  047E  1283               	bcf	3,5	;RP0=0, select bank0
  3399  047F  1303               	bcf	3,6	;RP1=0, select bank0
  3400  0480  084C               	movf	___fldiv@new_exp,w
  3401  0481  00C2               	movwf	??___fldiv
  3402  0482  0842               	movf	??___fldiv,w
  3403  0483  00D2               	movwf	___fldiv@bexp
  3404  0484                     l1573:
  3405  0484  1C52               	btfss	___fldiv@bexp,0
  3406  0485  2C87               	goto	u1791
  3407  0486  2C88               	goto	u1790
  3408  0487                     u1791:
  3409  0487  2C8A               	goto	l1577
  3410  0488                     u1790:
  3411  0488                     l1575:
  3412  0488  17C0               	bsf	___fldiv@b+2,7
  3413  0489  2C8E               	goto	l534
  3414  048A                     l1577:
  3415  048A  307F               	movlw	127
  3416  048B  00C2               	movwf	??___fldiv
  3417  048C  0842               	movf	??___fldiv,w
  3418  048D  05C0               	andwf	___fldiv@b+2,f
  3419  048E                     l534:
  3420  048E  0852               	movf	___fldiv@bexp,w
  3421  048F  00C2               	movwf	??___fldiv
  3422  0490  1003               	clrc
  3423  0491  0C42               	rrf	??___fldiv,w
  3424  0492  00C3               	movwf	??___fldiv+1
  3425  0493  0843               	movf	??___fldiv+1,w
  3426  0494  00C1               	movwf	___fldiv@b+3
  3427  0495  084B               	movf	___fldiv@sign,w
  3428  0496  00C2               	movwf	??___fldiv
  3429  0497  0842               	movf	??___fldiv,w
  3430  0498  04C1               	iorwf	___fldiv@b+3,f
  3431  0499  2B32               	goto	l1485
  3432  049A                     l512:
  3433  049A  0008               	return
  3434  049B                     __end_of___fldiv:
  3435                           
  3436                           	psect	text8
  3437  0FBF                     __ptext8:	
  3438 ;; *************** function _LCD_Init *****************
  3439 ;; Defined at:
  3440 ;;		line 68 in file "newmain.c"
  3441 ;; Parameters:    Size  Location     Type
  3442 ;;		None
  3443 ;; Auto vars:     Size  Location     Type
  3444 ;;		None
  3445 ;; Return value:  Size  Location     Type
  3446 ;;                  1    wreg      void 
  3447 ;; Registers used:
  3448 ;;		wreg, status,2, status,0, pclath, cstack
  3449 ;; Tracked objects:
  3450 ;;		On entry : 0/0
  3451 ;;		On exit  : 0/0
  3452 ;;		Unchanged: 0/0
  3453 ;; Data sizes:     COMMON   BANK0   BANK1   BANK3   BANK2
  3454 ;;      Params:         0       0       0       0       0
  3455 ;;      Locals:         0       0       0       0       0
  3456 ;;      Temps:          2       0       0       0       0
  3457 ;;      Totals:         2       0       0       0       0
  3458 ;;Total ram usage:        2 bytes
  3459 ;; Hardware stack levels used: 1
  3460 ;; Hardware stack levels required when called: 1
  3461 ;; This function calls:
  3462 ;;		_LCD_Cmd
  3463 ;;		_LCD_Cmd_Init
  3464 ;; This function is called by:
  3465 ;;		_main
  3466 ;; This function uses a non-reentrant model
  3467 ;;
  3468                           
  3469                           
  3470                           ;psect for function _LCD_Init
  3471  0FBF                     _LCD_Init:
  3472  0FBF                     l1311:	
  3473                           ;incstack = 0
  3474                           ; Regs used in _LCD_Init: [wreg+status,2+status,0+pclath+cstack]
  3475                           
  3476                           
  3477                           ;newmain.c: 70:     TRISBbits.TRISB6 = 0;
  3478  0FBF  1683               	bsf	3,5	;RP0=1, select bank1
  3479  0FC0  1303               	bcf	3,6	;RP1=0, select bank1
  3480  0FC1  1306               	bcf	6,6	;volatile
  3481                           
  3482                           ;newmain.c: 71:     TRISBbits.TRISB7 = 0;
  3483  0FC2  1386               	bcf	6,7	;volatile
  3484  0FC3                     l1313:
  3485                           
  3486                           ;newmain.c: 72:     TRISC = 0;
  3487  0FC3  0187               	clrf	7	;volatile
  3488  0FC4                     l1315:
  3489                           
  3490                           ;newmain.c: 75:  LCD_Cmd_Init(0x30);
  3491  0FC4  3030               	movlw	48
  3492  0FC5  120A  158A  269C  120A  158A  	fcall	_LCD_Cmd_Init
  3493  0FCA                     l1317:
  3494                           
  3495                           ;newmain.c: 76:  _delay((unsigned long)((5)*(20000000/4000.0)));
  3496  0FCA  3021               	movlw	33
  3497  0FCB  00F4               	movwf	??_LCD_Init+1
  3498  0FCC  3076               	movlw	118
  3499  0FCD  00F3               	movwf	??_LCD_Init
  3500  0FCE                     u2397:
  3501  0FCE  0BF3               	decfsz	??_LCD_Init,f
  3502  0FCF  2FCE               	goto	u2397
  3503  0FD0  0BF4               	decfsz	??_LCD_Init+1,f
  3504  0FD1  2FCE               	goto	u2397
  3505  0FD2  0000               	nop
  3506  0FD3                     l1319:
  3507                           
  3508                           ;newmain.c: 77:  LCD_Cmd_Init(0x30);
  3509  0FD3  3030               	movlw	48
  3510  0FD4  120A  158A  269C  120A  158A  	fcall	_LCD_Cmd_Init
  3511  0FD9                     l1321:
  3512                           
  3513                           ;newmain.c: 78:  _delay((unsigned long)((1)*(20000000/4000.0)));
  3514  0FD9  3007               	movlw	7
  3515  0FDA  00F4               	movwf	??_LCD_Init+1
  3516  0FDB  307D               	movlw	125
  3517  0FDC  00F3               	movwf	??_LCD_Init
  3518  0FDD                     u2407:
  3519  0FDD  0BF3               	decfsz	??_LCD_Init,f
  3520  0FDE  2FDD               	goto	u2407
  3521  0FDF  0BF4               	decfsz	??_LCD_Init+1,f
  3522  0FE0  2FDD               	goto	u2407
  3523  0FE1                     l1323:
  3524                           
  3525                           ;newmain.c: 79:  LCD_Cmd_Init(0x30);
  3526  0FE1  3030               	movlw	48
  3527  0FE2  120A  158A  269C  120A  158A  	fcall	_LCD_Cmd_Init
  3528  0FE7                     l1325:
  3529                           
  3530                           ;newmain.c: 83:     LCD_Cmd_Init(0x28);
  3531  0FE7  3028               	movlw	40
  3532  0FE8  120A  158A  269C  120A  158A  	fcall	_LCD_Cmd_Init
  3533  0FED                     l1327:
  3534                           
  3535                           ;newmain.c: 86:  LCD_Cmd(0x28);
  3536  0FED  3028               	movlw	40
  3537  0FEE  120A  158A  2757  120A  158A  	fcall	_LCD_Cmd
  3538  0FF3                     l1329:
  3539                           
  3540                           ;newmain.c: 97:  LCD_Cmd(0x01);
  3541  0FF3  3001               	movlw	1
  3542  0FF4  120A  158A  2757  120A  158A  	fcall	_LCD_Cmd
  3543  0FF9                     l1331:
  3544                           
  3545                           ;newmain.c: 103:     LCD_Cmd(0x0E);
  3546  0FF9  300E               	movlw	14
  3547  0FFA  120A  158A  2757  120A  158A  	fcall	_LCD_Cmd
  3548  0FFF                     l29:
  3549  0FFF  0008               	return
  3550  1000                     __end_of_LCD_Init:
  3551                           
  3552                           	psect	text9
  3553  0E9C                     __ptext9:	
  3554 ;; *************** function _LCD_Cmd_Init *****************
  3555 ;; Defined at:
  3556 ;;		line 60 in file "newmain.c"
  3557 ;; Parameters:    Size  Location     Type
  3558 ;;  cmd             1    wreg     unsigned char 
  3559 ;; Auto vars:     Size  Location     Type
  3560 ;;  cmd             1    1[COMMON] unsigned char 
  3561 ;; Return value:  Size  Location     Type
  3562 ;;                  1    wreg      void 
  3563 ;; Registers used:
  3564 ;;		wreg
  3565 ;; Tracked objects:
  3566 ;;		On entry : 0/0
  3567 ;;		On exit  : 0/0
  3568 ;;		Unchanged: 0/0
  3569 ;; Data sizes:     COMMON   BANK0   BANK1   BANK3   BANK2
  3570 ;;      Params:         0       0       0       0       0
  3571 ;;      Locals:         1       0       0       0       0
  3572 ;;      Temps:          1       0       0       0       0
  3573 ;;      Totals:         2       0       0       0       0
  3574 ;;Total ram usage:        2 bytes
  3575 ;; Hardware stack levels used: 1
  3576 ;; This function calls:
  3577 ;;		Nothing
  3578 ;; This function is called by:
  3579 ;;		_LCD_Init
  3580 ;; This function uses a non-reentrant model
  3581 ;;
  3582                           
  3583                           
  3584                           ;psect for function _LCD_Cmd_Init
  3585  0E9C                     _LCD_Cmd_Init:
  3586                           
  3587                           ;incstack = 0
  3588                           ; Regs used in _LCD_Cmd_Init: [wreg]
  3589                           ;LCD_Cmd_Init@cmd stored from wreg
  3590  0E9C  00F1               	movwf	LCD_Cmd_Init@cmd
  3591  0E9D                     l1281:
  3592                           
  3593                           ;newmain.c: 60: void LCD_Cmd_Init(unsigned char cmd);newmain.c: 61: {;newmain.c: 62:  PO
      +                          RTBbits.RB6 = 0;
  3594  0E9D  1283               	bcf	3,5	;RP0=0, select bank0
  3595  0E9E  1303               	bcf	3,6	;RP1=0, select bank0
  3596  0E9F  1306               	bcf	6,6	;volatile
  3597  0EA0                     l1283:
  3598                           
  3599                           ;newmain.c: 63:  PORTC = cmd;
  3600  0EA0  0871               	movf	LCD_Cmd_Init@cmd,w
  3601  0EA1  0087               	movwf	7	;volatile
  3602  0EA2                     l1285:
  3603                           
  3604                           ;newmain.c: 64:  PORTBbits.RB7 = 1;
  3605  0EA2  1786               	bsf	6,7	;volatile
  3606  0EA3                     l1287:
  3607                           
  3608                           ;newmain.c: 65:  PORTBbits.RB7 = 0;
  3609  0EA3  1386               	bcf	6,7	;volatile
  3610                           
  3611                           ;newmain.c: 66:     _delay((unsigned long)((40)*(20000000/4000000.0)));
  3612  0EA4  3042               	movlw	66
  3613  0EA5  00F0               	movwf	??_LCD_Cmd_Init
  3614  0EA6                     u2417:
  3615  0EA6  0BF0               	decfsz	??_LCD_Cmd_Init,f
  3616  0EA7  2EA6               	goto	u2417
  3617  0EA8  0000               	nop
  3618  0EA9                     l26:
  3619  0EA9  0008               	return
  3620  0EAA                     __end_of_LCD_Cmd_Init:
  3621                           
  3622                           	psect	text10
  3623  0EEA                     __ptext10:	
  3624 ;; *************** function _LCD_GotoCursor_String *****************
  3625 ;; Defined at:
  3626 ;;		line 138 in file "newmain.c"
  3627 ;; Parameters:    Size  Location     Type
  3628 ;;  row             1    wreg     unsigned char 
  3629 ;;  col             1    6[COMMON] unsigned char 
  3630 ;;  str             1    7[COMMON] PTR unsigned char 
  3631 ;;		 -> STR_3(4), STR_2(4), STR_1(16), 
  3632 ;; Auto vars:     Size  Location     Type
  3633 ;;  row             1    9[COMMON] unsigned char 
  3634 ;;  cmd             1   12[COMMON] unsigned char 
  3635 ;; Return value:  Size  Location     Type
  3636 ;;                  1    wreg      void 
  3637 ;; Registers used:
  3638 ;;		wreg, fsr0l, fsr0h, status,2, status,0, pclath, cstack
  3639 ;; Tracked objects:
  3640 ;;		On entry : 0/0
  3641 ;;		On exit  : 0/0
  3642 ;;		Unchanged: 0/0
  3643 ;; Data sizes:     COMMON   BANK0   BANK1   BANK3   BANK2
  3644 ;;      Params:         2       0       0       0       0
  3645 ;;      Locals:         4       0       0       0       0
  3646 ;;      Temps:          1       0       0       0       0
  3647 ;;      Totals:         7       0       0       0       0
  3648 ;;Total ram usage:        7 bytes
  3649 ;; Hardware stack levels used: 1
  3650 ;; Hardware stack levels required when called: 2
  3651 ;; This function calls:
  3652 ;;		_LCD_Cmd
  3653 ;;		_LCD_String
  3654 ;; This function is called by:
  3655 ;;		_main
  3656 ;; This function uses a non-reentrant model
  3657 ;;
  3658                           
  3659                           
  3660                           ;psect for function _LCD_GotoCursor_String
  3661  0EEA                     _LCD_GotoCursor_String:
  3662                           
  3663                           ;incstack = 0
  3664                           ; Regs used in _LCD_GotoCursor_String: [wreg-fsr0h+status,2+status,0+pclath+cstack]
  3665                           ;LCD_GotoCursor_String@row stored from wreg
  3666  0EEA  00F9               	movwf	LCD_GotoCursor_String@row
  3667  0EEB                     l1345:
  3668                           
  3669                           ;newmain.c: 138: void LCD_GotoCursor_String(unsigned char row, unsigned char col, char *
      +                          str);newmain.c: 139: {;newmain.c: 140:  unsigned char cmd;;newmain.c: 141:  cmd = (row==
      +                          1?0x80:0xC0) + col - 1;
  3670  0EEB  0379               	decf	LCD_GotoCursor_String@row,w
  3671  0EEC  1903               	btfsc	3,2
  3672  0EED  2EEF               	goto	u1271
  3673  0EEE  2EF0               	goto	u1270
  3674  0EEF                     u1271:
  3675  0EEF  2EF5               	goto	l1349
  3676  0EF0                     u1270:
  3677  0EF0                     l1347:
  3678  0EF0  30C0               	movlw	192
  3679  0EF1  00FA               	movwf	_LCD_GotoCursor_String$155
  3680  0EF2  3000               	movlw	0
  3681  0EF3  00FB               	movwf	_LCD_GotoCursor_String$155+1
  3682  0EF4  2EF9               	goto	l1351
  3683  0EF5                     l1349:
  3684  0EF5  3080               	movlw	128
  3685  0EF6  00FA               	movwf	_LCD_GotoCursor_String$155
  3686  0EF7  3000               	movlw	0
  3687  0EF8  00FB               	movwf	_LCD_GotoCursor_String$155+1
  3688  0EF9                     l1351:
  3689  0EF9  0876               	movf	LCD_GotoCursor_String@col,w
  3690  0EFA  077A               	addwf	_LCD_GotoCursor_String$155,w
  3691  0EFB  3EFF               	addlw	255
  3692  0EFC  00F8               	movwf	??_LCD_GotoCursor_String
  3693  0EFD  0878               	movf	??_LCD_GotoCursor_String,w
  3694  0EFE  00FC               	movwf	LCD_GotoCursor_String@cmd
  3695  0EFF                     l1353:
  3696                           
  3697                           ;newmain.c: 142:  LCD_Cmd(cmd);
  3698  0EFF  087C               	movf	LCD_GotoCursor_String@cmd,w
  3699  0F00  120A  158A  2757  120A  158A  	fcall	_LCD_Cmd
  3700  0F05                     l1355:
  3701                           
  3702                           ;newmain.c: 143:  LCD_String(str);
  3703  0F05  0877               	movf	LCD_GotoCursor_String@str,w
  3704  0F06  120A  158A  26C8  120A  158A  	fcall	_LCD_String
  3705  0F0B                     l59:
  3706  0F0B  0008               	return
  3707  0F0C                     __end_of_LCD_GotoCursor_String:
  3708                           
  3709                           	psect	text11
  3710  0EC8                     __ptext11:	
  3711 ;; *************** function _LCD_String *****************
  3712 ;; Defined at:
  3713 ;;		line 116 in file "newmain.c"
  3714 ;; Parameters:    Size  Location     Type
  3715 ;;  str             1    wreg     PTR unsigned char 
  3716 ;;		 -> STR_3(4), STR_2(4), STR_1(16), 
  3717 ;; Auto vars:     Size  Location     Type
  3718 ;;  str             1    4[COMMON] PTR unsigned char 
  3719 ;;		 -> STR_3(4), STR_2(4), STR_1(16), 
  3720 ;;  i               1    5[COMMON] unsigned char 
  3721 ;; Return value:  Size  Location     Type
  3722 ;;                  1    wreg      void 
  3723 ;; Registers used:
  3724 ;;		wreg, fsr0l, fsr0h, status,2, status,0, pclath, cstack
  3725 ;; Tracked objects:
  3726 ;;		On entry : 0/0
  3727 ;;		On exit  : 0/0
  3728 ;;		Unchanged: 0/0
  3729 ;; Data sizes:     COMMON   BANK0   BANK1   BANK3   BANK2
  3730 ;;      Params:         0       0       0       0       0
  3731 ;;      Locals:         2       0       0       0       0
  3732 ;;      Temps:          1       0       0       0       0
  3733 ;;      Totals:         3       0       0       0       0
  3734 ;;Total ram usage:        3 bytes
  3735 ;; Hardware stack levels used: 1
  3736 ;; Hardware stack levels required when called: 1
  3737 ;; This function calls:
  3738 ;;		_LCD_Char
  3739 ;; This function is called by:
  3740 ;;		_LCD_GotoCursor_String
  3741 ;; This function uses a non-reentrant model
  3742 ;;
  3743                           
  3744                           
  3745                           ;psect for function _LCD_String
  3746  0EC8                     _LCD_String:
  3747                           
  3748                           ;incstack = 0
  3749                           ; Regs used in _LCD_String: [wreg-fsr0h+status,2+status,0+pclath+cstack]
  3750                           ;LCD_String@str stored from wreg
  3751  0EC8  00F4               	movwf	LCD_String@str
  3752  0EC9                     l1289:
  3753                           
  3754                           ;newmain.c: 116: void LCD_String(char *str);newmain.c: 117: {;newmain.c: 118:  unsigned 
      +                          char i = 0;
  3755  0EC9  01F5               	clrf	LCD_String@i
  3756                           
  3757                           ;newmain.c: 119:  while(str[i] != 0)
  3758  0ECA  2EDC               	goto	l1295
  3759  0ECB                     l1291:
  3760                           
  3761                           ;newmain.c: 120:  {;newmain.c: 121:   LCD_Char(str[i]);
  3762  0ECB  0875               	movf	LCD_String@i,w
  3763  0ECC  0774               	addwf	LCD_String@str,w
  3764  0ECD  0084               	movwf	4
  3765  0ECE  120A  158A  2000  120A  158A  	fcall	stringdir
  3766  0ED3  120A  158A  26AA  120A  158A  	fcall	_LCD_Char
  3767  0ED8                     l1293:
  3768                           
  3769                           ;newmain.c: 122:   i++;
  3770  0ED8  3001               	movlw	1
  3771  0ED9  00F3               	movwf	??_LCD_String
  3772  0EDA  0873               	movf	??_LCD_String,w
  3773  0EDB  07F5               	addwf	LCD_String@i,f
  3774  0EDC                     l1295:
  3775                           
  3776                           ;newmain.c: 119:  while(str[i] != 0)
  3777  0EDC  0875               	movf	LCD_String@i,w
  3778  0EDD  0774               	addwf	LCD_String@str,w
  3779  0EDE  0084               	movwf	4
  3780  0EDF  120A  158A  2000  120A  158A  	fcall	stringdir
  3781  0EE4  3A00               	xorlw	0
  3782  0EE5  1D03               	skipz
  3783  0EE6  2EE8               	goto	u1221
  3784  0EE7  2EE9               	goto	u1220
  3785  0EE8                     u1221:
  3786  0EE8  2ECB               	goto	l1291
  3787  0EE9                     u1220:
  3788  0EE9                     l38:
  3789  0EE9  0008               	return
  3790  0EEA                     __end_of_LCD_String:
  3791                           
  3792                           	psect	text12
  3793  0F0C                     __ptext12:	
  3794 ;; *************** function _LCD_GotoCursor_Char *****************
  3795 ;; Defined at:
  3796 ;;		line 131 in file "newmain.c"
  3797 ;; Parameters:    Size  Location     Type
  3798 ;;  row             1    wreg     unsigned char 
  3799 ;;  col             1    8[COMMON] unsigned char 
  3800 ;;  c               1    9[COMMON] unsigned char 
  3801 ;; Auto vars:     Size  Location     Type
  3802 ;;  row             1    0[BANK0 ] unsigned char 
  3803 ;;  cmd             1    3[BANK0 ] unsigned char 
  3804 ;; Return value:  Size  Location     Type
  3805 ;;                  1    wreg      void 
  3806 ;; Registers used:
  3807 ;;		wreg, status,2, status,0, pclath, cstack
  3808 ;; Tracked objects:
  3809 ;;		On entry : 0/0
  3810 ;;		On exit  : 0/0
  3811 ;;		Unchanged: 0/0
  3812 ;; Data sizes:     COMMON   BANK0   BANK1   BANK3   BANK2
  3813 ;;      Params:         2       0       0       0       0
  3814 ;;      Locals:         0       4       0       0       0
  3815 ;;      Temps:          1       0       0       0       0
  3816 ;;      Totals:         3       4       0       0       0
  3817 ;;Total ram usage:        7 bytes
  3818 ;; Hardware stack levels used: 1
  3819 ;; Hardware stack levels required when called: 1
  3820 ;; This function calls:
  3821 ;;		_LCD_Char
  3822 ;;		_LCD_Cmd
  3823 ;; This function is called by:
  3824 ;;		_main
  3825 ;; This function uses a non-reentrant model
  3826 ;;
  3827                           
  3828                           
  3829                           ;psect for function _LCD_GotoCursor_Char
  3830  0F0C                     _LCD_GotoCursor_Char:
  3831                           
  3832                           ;incstack = 0
  3833                           ; Regs used in _LCD_GotoCursor_Char: [wreg+status,2+status,0+pclath+cstack]
  3834                           ;LCD_GotoCursor_Char@row stored from wreg
  3835  0F0C  1283               	bcf	3,5	;RP0=0, select bank0
  3836  0F0D  1303               	bcf	3,6	;RP1=0, select bank0
  3837  0F0E  00A0               	movwf	LCD_GotoCursor_Char@row
  3838  0F0F                     l1333:
  3839                           
  3840                           ;newmain.c: 131: void LCD_GotoCursor_Char(unsigned char row, unsigned char col, char c);
      +                          newmain.c: 132: {;newmain.c: 133:  unsigned char cmd;;newmain.c: 134:  cmd = (row==1?0x8
      +                          0:0xC0) + col - 1;
  3841  0F0F  0320               	decf	LCD_GotoCursor_Char@row,w
  3842  0F10  1903               	btfsc	3,2
  3843  0F11  2F13               	goto	u1261
  3844  0F12  2F14               	goto	u1260
  3845  0F13                     u1261:
  3846  0F13  2F19               	goto	l1337
  3847  0F14                     u1260:
  3848  0F14                     l1335:
  3849  0F14  30C0               	movlw	192
  3850  0F15  00A1               	movwf	_LCD_GotoCursor_Char$149
  3851  0F16  3000               	movlw	0
  3852  0F17  00A2               	movwf	_LCD_GotoCursor_Char$149+1
  3853  0F18  2F1D               	goto	l1339
  3854  0F19                     l1337:
  3855  0F19  3080               	movlw	128
  3856  0F1A  00A1               	movwf	_LCD_GotoCursor_Char$149
  3857  0F1B  3000               	movlw	0
  3858  0F1C  00A2               	movwf	_LCD_GotoCursor_Char$149+1
  3859  0F1D                     l1339:
  3860  0F1D  0878               	movf	LCD_GotoCursor_Char@col,w
  3861  0F1E  0721               	addwf	_LCD_GotoCursor_Char$149,w
  3862  0F1F  3EFF               	addlw	255
  3863  0F20  00FA               	movwf	??_LCD_GotoCursor_Char
  3864  0F21  087A               	movf	??_LCD_GotoCursor_Char,w
  3865  0F22  00A3               	movwf	LCD_GotoCursor_Char@cmd
  3866  0F23                     l1341:
  3867                           
  3868                           ;newmain.c: 135:  LCD_Cmd(cmd);
  3869  0F23  0823               	movf	LCD_GotoCursor_Char@cmd,w
  3870  0F24  120A  158A  2757  120A  158A  	fcall	_LCD_Cmd
  3871  0F29                     l1343:
  3872                           
  3873                           ;newmain.c: 136:  LCD_Char(c);
  3874  0F29  0879               	movf	LCD_GotoCursor_Char@c,w
  3875  0F2A  120A  158A  26AA  120A  158A  	fcall	_LCD_Char
  3876  0F2F                     l52:
  3877  0F2F  0008               	return
  3878  0F30                     __end_of_LCD_GotoCursor_Char:
  3879                           
  3880                           	psect	text13
  3881  0F57                     __ptext13:	
  3882 ;; *************** function _LCD_Cmd *****************
  3883 ;; Defined at:
  3884 ;;		line 42 in file "newmain.c"
  3885 ;; Parameters:    Size  Location     Type
  3886 ;;  cmd             1    wreg     unsigned char 
  3887 ;; Auto vars:     Size  Location     Type
  3888 ;;  cmd             1    2[COMMON] unsigned char 
  3889 ;; Return value:  Size  Location     Type
  3890 ;;                  1    wreg      void 
  3891 ;; Registers used:
  3892 ;;		wreg, status,2, status,0
  3893 ;; Tracked objects:
  3894 ;;		On entry : 0/0
  3895 ;;		On exit  : 0/0
  3896 ;;		Unchanged: 0/0
  3897 ;; Data sizes:     COMMON   BANK0   BANK1   BANK3   BANK2
  3898 ;;      Params:         0       0       0       0       0
  3899 ;;      Locals:         1       0       0       0       0
  3900 ;;      Temps:          2       0       0       0       0
  3901 ;;      Totals:         3       0       0       0       0
  3902 ;;Total ram usage:        3 bytes
  3903 ;; Hardware stack levels used: 1
  3904 ;; This function calls:
  3905 ;;		Nothing
  3906 ;; This function is called by:
  3907 ;;		_LCD_Init
  3908 ;;		_LCD_GotoCursor_Char
  3909 ;;		_LCD_GotoCursor_String
  3910 ;;		_LCD_GotoCursor
  3911 ;; This function uses a non-reentrant model
  3912 ;;
  3913                           
  3914                           
  3915                           ;psect for function _LCD_Cmd
  3916  0F57                     _LCD_Cmd:
  3917                           
  3918                           ;incstack = 0
  3919                           ; Regs used in _LCD_Cmd: [wreg+status,2+status,0]
  3920                           ;LCD_Cmd@cmd stored from wreg
  3921  0F57  00F2               	movwf	LCD_Cmd@cmd
  3922  0F58                     l1261:
  3923                           
  3924                           ;newmain.c: 42: void LCD_Cmd(unsigned char cmd);newmain.c: 43: {;newmain.c: 44:  PORTBbi
      +                          ts.RB6 = 0;
  3925  0F58  1283               	bcf	3,5	;RP0=0, select bank0
  3926  0F59  1303               	bcf	3,6	;RP1=0, select bank0
  3927  0F5A  1306               	bcf	6,6	;volatile
  3928  0F5B                     l1263:
  3929                           
  3930                           ;newmain.c: 45:  PORTC = cmd;
  3931  0F5B  0872               	movf	LCD_Cmd@cmd,w
  3932  0F5C  0087               	movwf	7	;volatile
  3933  0F5D                     l1265:
  3934                           
  3935                           ;newmain.c: 46:  PORTBbits.RB7 = 1;
  3936  0F5D  1786               	bsf	6,7	;volatile
  3937  0F5E                     l1267:
  3938                           
  3939                           ;newmain.c: 47:  PORTBbits.RB7 = 0;
  3940  0F5E  1386               	bcf	6,7	;volatile
  3941  0F5F                     l1269:
  3942                           
  3943                           ;newmain.c: 48:     PORTC = cmd << 4;
  3944  0F5F  0872               	movf	LCD_Cmd@cmd,w
  3945  0F60  00F0               	movwf	??_LCD_Cmd
  3946  0F61  3003               	movlw	3
  3947  0F62                     u1205:
  3948  0F62  1003               	clrc
  3949  0F63  0DF0               	rlf	??_LCD_Cmd,f
  3950  0F64  3EFF               	addlw	-1
  3951  0F65  1D03               	skipz
  3952  0F66  2F62               	goto	u1205
  3953  0F67  1003               	clrc
  3954  0F68  0D70               	rlf	??_LCD_Cmd,w
  3955  0F69  0087               	movwf	7	;volatile
  3956  0F6A                     l1271:
  3957                           
  3958                           ;newmain.c: 49:  PORTBbits.RB7 = 1;
  3959  0F6A  1786               	bsf	6,7	;volatile
  3960  0F6B                     l1273:
  3961                           
  3962                           ;newmain.c: 50:  PORTBbits.RB7 = 0;
  3963  0F6B  1386               	bcf	6,7	;volatile
  3964  0F6C                     l1275:
  3965                           
  3966                           ;newmain.c: 51:  if( cmd <= 0x02)
  3967  0F6C  3003               	movlw	3
  3968  0F6D  0272               	subwf	LCD_Cmd@cmd,w
  3969  0F6E  1803               	skipnc
  3970  0F6F  2F71               	goto	u1211
  3971  0F70  2F72               	goto	u1210
  3972  0F71                     u1211:
  3973  0F71  2F7C               	goto	l1279
  3974  0F72                     u1210:
  3975  0F72                     l1277:
  3976                           
  3977                           ;newmain.c: 52:  {;newmain.c: 53:   _delay((unsigned long)((2)*(20000000/4000.0)));
  3978  0F72  300D               	movlw	13
  3979  0F73  00F1               	movwf	??_LCD_Cmd+1
  3980  0F74  30FB               	movlw	251
  3981  0F75  00F0               	movwf	??_LCD_Cmd
  3982  0F76                     u2427:
  3983  0F76  0BF0               	decfsz	??_LCD_Cmd,f
  3984  0F77  2F76               	goto	u2427
  3985  0F78  0BF1               	decfsz	??_LCD_Cmd+1,f
  3986  0F79  2F76               	goto	u2427
  3987  0F7A  2F7B               	nop2
  3988                           
  3989                           ;newmain.c: 54:  }
  3990  0F7B  2F84               	goto	l23
  3991  0F7C                     l1279:
  3992                           
  3993                           ;newmain.c: 56:  {;newmain.c: 57:   _delay((unsigned long)((1)*(20000000/4000.0)));
  3994  0F7C  3007               	movlw	7
  3995  0F7D  00F1               	movwf	??_LCD_Cmd+1
  3996  0F7E  307D               	movlw	125
  3997  0F7F  00F0               	movwf	??_LCD_Cmd
  3998  0F80                     u2437:
  3999  0F80  0BF0               	decfsz	??_LCD_Cmd,f
  4000  0F81  2F80               	goto	u2437
  4001  0F82  0BF1               	decfsz	??_LCD_Cmd+1,f
  4002  0F83  2F80               	goto	u2437
  4003  0F84                     l23:
  4004  0F84  0008               	return
  4005  0F85                     __end_of_LCD_Cmd:
  4006                           
  4007                           	psect	text14
  4008  0EAA                     __ptext14:	
  4009 ;; *************** function _LCD_Char *****************
  4010 ;; Defined at:
  4011 ;;		line 105 in file "newmain.c"
  4012 ;; Parameters:    Size  Location     Type
  4013 ;;  c               1    wreg     unsigned char 
  4014 ;; Auto vars:     Size  Location     Type
  4015 ;;  c               1    2[COMMON] unsigned char 
  4016 ;; Return value:  Size  Location     Type
  4017 ;;                  1    wreg      void 
  4018 ;; Registers used:
  4019 ;;		wreg, status,2, status,0
  4020 ;; Tracked objects:
  4021 ;;		On entry : 0/0
  4022 ;;		On exit  : 0/0
  4023 ;;		Unchanged: 0/0
  4024 ;; Data sizes:     COMMON   BANK0   BANK1   BANK3   BANK2
  4025 ;;      Params:         0       0       0       0       0
  4026 ;;      Locals:         1       0       0       0       0
  4027 ;;      Temps:          2       0       0       0       0
  4028 ;;      Totals:         3       0       0       0       0
  4029 ;;Total ram usage:        3 bytes
  4030 ;; Hardware stack levels used: 1
  4031 ;; This function calls:
  4032 ;;		Nothing
  4033 ;; This function is called by:
  4034 ;;		_LCD_String
  4035 ;;		_LCD_GotoCursor_Char
  4036 ;;		_main
  4037 ;; This function uses a non-reentrant model
  4038 ;;
  4039                           
  4040                           
  4041                           ;psect for function _LCD_Char
  4042  0EAA                     _LCD_Char:
  4043                           
  4044                           ;incstack = 0
  4045                           ; Regs used in _LCD_Char: [wreg+status,2+status,0]
  4046                           ;LCD_Char@c stored from wreg
  4047  0EAA  00F2               	movwf	LCD_Char@c
  4048  0EAB                     l1245:
  4049                           
  4050                           ;newmain.c: 105: void LCD_Char(unsigned char c);newmain.c: 106: {;newmain.c: 107:  PORTB
      +                          bits.RB6 = 1;
  4051  0EAB  1283               	bcf	3,5	;RP0=0, select bank0
  4052  0EAC  1303               	bcf	3,6	;RP1=0, select bank0
  4053  0EAD  1706               	bsf	6,6	;volatile
  4054  0EAE                     l1247:
  4055                           
  4056                           ;newmain.c: 108:  PORTC = c;
  4057  0EAE  0872               	movf	LCD_Char@c,w
  4058  0EAF  0087               	movwf	7	;volatile
  4059  0EB0                     l1249:
  4060                           
  4061                           ;newmain.c: 109:  PORTBbits.RB7 = 1;
  4062  0EB0  1786               	bsf	6,7	;volatile
  4063  0EB1                     l1251:
  4064                           
  4065                           ;newmain.c: 110:  PORTBbits.RB7 = 0;
  4066  0EB1  1386               	bcf	6,7	;volatile
  4067  0EB2                     l1253:
  4068                           
  4069                           ;newmain.c: 111:     PORTC = c << 4;
  4070  0EB2  0872               	movf	LCD_Char@c,w
  4071  0EB3  00F0               	movwf	??_LCD_Char
  4072  0EB4  3003               	movlw	3
  4073  0EB5                     u1195:
  4074  0EB5  1003               	clrc
  4075  0EB6  0DF0               	rlf	??_LCD_Char,f
  4076  0EB7  3EFF               	addlw	-1
  4077  0EB8  1D03               	skipz
  4078  0EB9  2EB5               	goto	u1195
  4079  0EBA  1003               	clrc
  4080  0EBB  0D70               	rlf	??_LCD_Char,w
  4081  0EBC  0087               	movwf	7	;volatile
  4082  0EBD                     l1255:
  4083                           
  4084                           ;newmain.c: 112:  PORTBbits.RB7 = 1;
  4085  0EBD  1786               	bsf	6,7	;volatile
  4086  0EBE                     l1257:
  4087                           
  4088                           ;newmain.c: 113:  PORTBbits.RB7 = 0;
  4089  0EBE  1386               	bcf	6,7	;volatile
  4090  0EBF                     l1259:
  4091                           
  4092                           ;newmain.c: 114:  _delay((unsigned long)((1)*(20000000/4000.0)));
  4093  0EBF  3007               	movlw	7
  4094  0EC0  00F1               	movwf	??_LCD_Char+1
  4095  0EC1  307D               	movlw	125
  4096  0EC2  00F0               	movwf	??_LCD_Char
  4097  0EC3                     u2447:
  4098  0EC3  0BF0               	decfsz	??_LCD_Char,f
  4099  0EC4  2EC3               	goto	u2447
  4100  0EC5  0BF1               	decfsz	??_LCD_Char+1,f
  4101  0EC6  2EC3               	goto	u2447
  4102  0EC7                     l32:
  4103  0EC7  0008               	return
  4104  0EC8                     __end_of_LCD_Char:
  4105  007E                     btemp	set	126	;btemp
  4106  007E                     wtemp0	set	126
  4107                           
  4108                           	psect	config
  4109                           
  4110                           ;Config register CONFIG @ 0x2007
  4111                           ;	Oscillator Selection bits
  4112                           ;	FOSC = HS, HS oscillator
  4113                           ;	Watchdog Timer Enable bit
  4114                           ;	WDTE = OFF, WDT disabled
  4115                           ;	Power-up Timer Enable bit
  4116                           ;	PWRTE = OFF, PWRT disabled
  4117                           ;	Brown-out Reset Enable bit
  4118                           ;	BOREN = OFF, BOR disabled
  4119                           ;	Low-Voltage (Single-Supply) In-Circuit Serial Programming Enable bit
  4120                           ;	LVP = OFF, RB3 is digital I/O, HV on MCLR must be used for programming
  4121                           ;	Data EEPROM Memory Code Protection bit
  4122                           ;	CPD = OFF, Data EEPROM code protection off
  4123                           ;	Flash Program Memory Write Enable bits
  4124                           ;	WRT = OFF, Write protection off; all program memory may be written to by EECON control
  4125                           ;	In-Circuit Debugger Mode bit
  4126                           ;	DEBUG = 0x1, unprogrammed default
  4127                           ;	Flash Program Memory Code Protection bit
  4128                           ;	CP = OFF, Code protection off
  4129  2007                     	org	8199
  4130  2007  3F3A               	dw	16186

Data Sizes:
    Strings     24
    Constant    0
    Data        0
    BSS         0
    Persistent  0
    Stack       0

Auto Spaces:
    Space          Size  Autos    Used
    COMMON           14     14      14
    BANK0            80     70      70
    BANK1            80      0       0
    BANK3            96      0       0
    BANK2            96      0       0

Pointer List with Targets:

    LCD_GotoCursor_String@str	PTR unsigned char  size(1) Largest target is 16
		 -> STR_3(CODE[4]), STR_2(CODE[4]), STR_1(CODE[16]), 

    LCD_String@str	PTR unsigned char  size(1) Largest target is 16
		 -> STR_3(CODE[4]), STR_2(CODE[4]), STR_1(CODE[16]), 


Critical Paths under _main in COMMON

    _main->___lwmod
    _main->___xxtofl
    ___lwmod->___lwdiv
    ___fltol->___xxtofl
    ___flmul->___xxtofl
    ___fldiv->___xxtofl
    _LCD_Init->_LCD_Cmd
    _LCD_GotoCursor_String->_LCD_String
    _LCD_String->_LCD_Char
    _LCD_GotoCursor_Char->___lwdiv

Critical Paths under _main in BANK0

    _main->___fltol
    ___fltol->___fldiv
    ___fldiv->___flmul

Critical Paths under _main in BANK1

    None.

Critical Paths under _main in BANK3

    None.

Critical Paths under _main in BANK2

    None.

Call Graph Tables:

 ---------------------------------------------------------------------------------
 (Depth) Function   	        Calls       Base Space   Used Autos Params    Refs
 ---------------------------------------------------------------------------------
 (0) _main                                                 7     7      0    6769
                                             63 BANK0      7     7      0
                           _LCD_Char
                _LCD_GotoCursor_Char
              _LCD_GotoCursor_String
                           _LCD_Init
                            ___fldiv
                            ___flmul
                            ___fltol
                            ___lwdiv
                            ___lwmod
                           ___xxtofl
 ---------------------------------------------------------------------------------
 (1) ___xxtofl                                            14    10      4     398
                                              0 COMMON    14    10      4
 ---------------------------------------------------------------------------------
 (1) ___lwmod                                              6     2      4     463
                                              8 COMMON     6     2      4
                            ___lwdiv (ARG)
 ---------------------------------------------------------------------------------
 (1) ___lwdiv                                              8     4      4     466
                                              0 COMMON     8     4      4
 ---------------------------------------------------------------------------------
 (1) ___fltol                                             11     7      4     305
                                             52 BANK0     11     7      4
                            ___fldiv (ARG)
                            ___flmul (ARG)
                           ___xxtofl (ARG)
 ---------------------------------------------------------------------------------
 (1) ___flmul                                             26    18      8    2417
                                              0 BANK0     26    18      8
                          __Umul8_16
                           ___xxtofl (ARG)
 ---------------------------------------------------------------------------------
 (2) __Umul8_16                                            9     7      2     799
                                              0 COMMON     9     7      2
 ---------------------------------------------------------------------------------
 (1) ___fldiv                                             26    18      8    1273
                                             26 BANK0     26    18      8
                            ___flmul (ARG)
                           ___xxtofl (ARG)
 ---------------------------------------------------------------------------------
 (1) _LCD_Init                                             2     2      0      88
                                              3 COMMON     2     2      0
                            _LCD_Cmd
                       _LCD_Cmd_Init
 ---------------------------------------------------------------------------------
 (2) _LCD_Cmd_Init                                         2     2      0      22
                                              0 COMMON     2     2      0
 ---------------------------------------------------------------------------------
 (1) _LCD_GotoCursor_String                                7     5      2     802
                                              6 COMMON     7     5      2
                            _LCD_Cmd
                         _LCD_String
 ---------------------------------------------------------------------------------
 (2) _LCD_String                                           3     3      0     167
                                              3 COMMON     3     3      0
                           _LCD_Char
 ---------------------------------------------------------------------------------
 (1) _LCD_GotoCursor_Char                                  7     5      2     375
                                              8 COMMON     3     1      2
                                              0 BANK0      4     4      0
                           _LCD_Char
                            _LCD_Cmd
                            ___lwdiv (ARG)
 ---------------------------------------------------------------------------------
 (2) _LCD_Cmd                                              3     3      0      66
                                              0 COMMON     3     3      0
 ---------------------------------------------------------------------------------
 (3) _LCD_Char                                             3     3      0      44
                                              0 COMMON     3     3      0
 ---------------------------------------------------------------------------------
 Estimated maximum stack depth 3
 ---------------------------------------------------------------------------------

 Call Graph Graphs:

 _main (ROOT)
   _LCD_Char
   _LCD_GotoCursor_Char
     _LCD_Char
     _LCD_Cmd
     ___lwdiv (ARG)
   _LCD_GotoCursor_String
     _LCD_Cmd
     _LCD_String
       _LCD_Char
   _LCD_Init
     _LCD_Cmd
     _LCD_Cmd_Init
   ___fldiv
     ___flmul (ARG)
       __Umul8_16
       ___xxtofl (ARG)
     ___xxtofl (ARG)
   ___flmul
   ___fltol
     ___fldiv (ARG)
     ___flmul (ARG)
     ___xxtofl (ARG)
   ___lwdiv
   ___lwmod
     ___lwdiv (ARG)
   ___xxtofl

 Address spaces:
Name               Size   Autos  Total    Cost      Usage
BITCOMMON            E      0       0       0        0.0%
EEDATA             100      0       0       0        0.0%
NULL                 0      0       0       0        0.0%
CODE                 0      0       0       0        0.0%
COMMON               E      E       E       1      100.0%
BITSFR0              0      0       0       1        0.0%
SFR0                 0      0       0       1        0.0%
BITSFR1              0      0       0       2        0.0%
SFR1                 0      0       0       2        0.0%
STACK                0      0       0       2        0.0%
ABS                  0      0       0       3        0.0%
BITBANK0            50      0       0       4        0.0%
BITSFR3              0      0       0       4        0.0%
SFR3                 0      0       0       4        0.0%
BANK0               50     46      46       5       87.5%
BITSFR2              0      0       0       5        0.0%
SFR2                 0      0       0       5        0.0%
BITBANK1            50      0       0       6        0.0%
BANK1               50      0       0       7        0.0%
BITBANK3            60      0       0       8        0.0%
BANK3               60      0       0       9        0.0%
BITBANK2            60      0       0      10        0.0%
BANK2               60      0       0      11        0.0%
DATA                 0      0       0      12        0.0%


Microchip Technology PIC Macro Assembler V2.32 build 20210201212658 
Symbol Table                                                                                   Sun Jan 23 17:41:10 2022

                  ___fldiv@aexp 0053                    ___fldiv@bexp 0052                               pc 0002  
                 ?_LCD_Cmd_Init 0070                    ___fldiv@sign 004B                              l23 0F84  
                            l32 0EC7                              l26 0EA9                              l52 0F2F  
                            l29 0FFF                              l38 0EE9                              l70 01CA  
                            l65 01C1                              l59 0F0B                              l67 01C5  
                            l68 01C6                              fsr 0004                     ?_LCD_String 0070  
           __Umul8_16@word_mpld 0076                             l510 031A                             l512 049A  
                           l600 0130                             l433 004C                             l354 00B3  
                           l347 00C8                             l443 0FBE                             l532 047E  
                           l357 00C8                             l534 048E                             l526 040C  
                           l550 07FB                             l607 014C                             l608 0158  
                           l562 07EF                             l571 0F56                             l556 0767  
                           l569 0F44                             l594 00EB                             l596 0182  
                           fsr0 0004                    ___flmul@aexp 0032                    ___flmul@bexp 0033  
                  ___flmul@sign 002D                    ___flmul@temp 0038                    ___flmul@prod 0034  
               __end_of_LCD_Cmd 0F85                    ___fltol@exp1 005E                            l1301 0F3A  
                          l1311 0FBF                            l1303 0F3E                            l1321 0FD9  
                          l1313 0FC3                            l1305 0F4D                            l1401 001B  
                          l1251 0EB1                            l1331 0FF9                            l1323 0FE1  
                          l1315 0FC4                            l1307 0F52                            l1411 003B  
                          l1403 001F                            l1253 0EB2                            l1245 0EAB  
                          l1261 0F58                            l1341 0F23                            l1333 0F0F  
                          l1325 0FE7                            l1317 0FCA                            l1501 036B  
                          l1413 0042                            l1405 0023                            l1421 0F8B  
                          l1255 0EBD                            l1247 0EAE                            l1271 0F6A  
                          l1263 0F5B                            l1343 0F29                            l1335 0F14  
                          l1351 0EF9                            l1327 0FED                            l1319 0FD3  
                          l1511 0390                            l1503 0373                            l1407 0034  
                          l1415 0048                            l1431 0FA7                            l1423 0F8E  
                          l1257 0EBE                            l1249 0EB0                            l1273 0F6B  
                          l1265 0F5D                            l1337 0F19                            l1353 0EFF  
                          l1345 0EEB                            l1281 0E9D                            l1329 0FF3  
                          l1521 03BB                            l1513 0391                            l1505 0375  
                          l1441 02BE                            l1601 04C9                            l1409 003A  
                          l1433 0FAD                            l1425 0F95                            l1259 0EBF  
                          l1275 0F6C                            l1267 0F5E                            l1339 0F1D  
                          l1291 0ECB                            l1355 0F05                            l1347 0EF0  
                          l1283 0EA0                            l1531 03D8                            l1507 037A  
                          l1515 039A                            l1523 03BF                            l1451 02D5  
                          l1443 02C5                            l1611 04DE                            l1603 04CE  
                          l1371 0083                            l1363 0063                            l1435 0FB4  
                          l1427 0F99                            l1419 0F85                            l1277 0F72  
                          l1269 0F5F                            l1293 0ED8                            l1349 0EF5  
                          l1285 0EA2                            l1541 03F0                            l1533 03DC  
                          l1525 03C5                            l1517 03AC                            l1509 038C  
                          l1461 02ED                            l1453 02DA                            l1445 02CB  
                          l1701 07A2                            l1621 04FA                            l1613 04E3  
                          l1605 04D4                            l1373 0087                            l1381 00A1  
                          l1365 0078                            l1357 004D                            l1429 0F9D  
                          l1437 0FBA                            l1279 0F7C                            l1295 0EDC  
                          l1287 0EA3                            l1551 0411                            l1543 03F1  
                          l1535 03DD                            l1527 03CD                            l1519 03AD  
                          l1471 0302                            l1463 02F2                            l1455 02E2  
                          l1447 02CF                            l1711 07D5                            l1703 07AF  
                          l1631 0525                            l1623 04FF                            l1615 04EB  
                          l1607 04D8                            l1391 00BD                            l1367 0079  
                          l1359 005A                            l1289 0EC9                            l1553 0416  
                          l1561 0447                            l1545 03F5                            l1537 03E6  
                          l1529 03CF                            l1481 0322                            l1473 0307  
                          l1465 02F8                            l1457 02E3                            l1449 02D0  
                          l1297 0F31                            l1713 07E3                            l1705 07BA  
                          l1641 05C2                            l1633 0542                            l1617 04ED  
                          l1609 04D9                            l1369 0081                            l1393 0009  
                          l1801 01B4                            l1571 047D                            l1563 0454  
                          l1555 0424                            l1547 0409                            l1539 03EC  
                          l1491 0340                            l1483 032E                            l1475 030F  
                          l1467 02FC                            l1459 02E5                            l1299 0F33  
                          l1715 07E7                            l1707 07C9                            l1651 0625  
                          l1643 05CB                            l1635 055E                            l1627 0508  
                          l1619 04F5                            l1387 00A8                            l1379 008F  
                          l1395 000B                            l1731 00F3                            l1723 00CA  
                          l1811 0241                            l1803 01BE                            l1573 0484  
                          l1565 0462                            l1557 0428                            l1485 0332  
                          l1477 0310                            l1469 02FD                            l1717 07E8  
                          l1709 07D3                            l1661 06C5                            l1653 063E  
                          l1645 05DB                            l1637 058A                            l1629 0518  
                          l1389 00B8                            l1397 0011                            l1741 0115  
                          l1725 00CF                            l1821 02AB                            l1813 025F  
                          l1805 01CB                            l1575 0488                            l1567 0471  
                          l1559 0441                            l1495 0349                            l1479 0312  
                          l1719 07F3                            l1671 0733                            l1663 06EB  
                          l1655 065B                            l1647 05F8                            l1639 05A6  
                          l1591 04AD                            l1583 049B                            l1399 0014  
                          l1751 0146                            l1743 0119                            l1735 00FC  
                          l1727 00D3                            l1815 0282                            l1807 01E9  
                          l1577 048A                            l1569 0475                            l1497 035B  
                          l1489 033B                            l1681 074B                            l1673 0737  
                          l1665 0713                            l1657 0688                            l1649 0608  
                          l1593 04B2                            l1585 04A2                            l1761 0179  
                          l1753 0150                            l1745 0127                            l1737 0101  
                          l1729 00E3                            l1809 01F2                            l1817 0299  
                          l1499 0363                            l1691 076C                            l1683 074C  
                          l1675 0738                            l1667 071C                            l1659 0698  
                          l1595 04B7                            l1587 04A8                            l1763 017A  
                          l1755 015A                            l1747 0137                            l1739 010E  
                          l1819 02A7                            l1693 0771                            l1685 0750  
                          l1677 0741                            l1669 072A                            l1597 04BF  
                          l1589 04AC                            l1757 0170                            l1749 0142  
                          l1781 0190                            l1695 077F                            l1687 0764  
                          l1679 0747                            l1599 04C1                            l1759 0175  
                          l1791 0195                            l1783 0190                            l1697 0783  
                          l1793 0196                            l1785 0190                            l1777 0183  
                          l1699 079C                            l1795 0197                            l1787 0191  
                          l1779 0188                            l1797 01A3                            l1789 0192  
                          l1799 01B1                            STR_1 0806                            STR_2 081A  
                          STR_3 0816                            u2001 06DD                            u1210 0F72  
                          u2010 06F9                            u2002 06E4                            u1211 0F71  
                          u2003 06EB                            u1220 0EE9                            u2100 076B  
                          u1300 0087                            u1205 0F62                            u1221 0EE8  
                          u2101 076A                            u2021 0705                            u1301 0086  
                          u1230 0F3E                            u2110 0771                            u2022 070C  
                          u1310 008E                            u1231 0F3D                            u2111 0770  
                          u2023 0713                            u2015 06F4                            u1311 008D  
                          u2120 0783                            u1400 0023                            u2121 0782  
                          u1401 0022                            u1250 0F52                            u2130 0792  
                          u2050 0737                            u1330 00A0                            u2210 0114  
                          u1251 0F51                            u2051 0736                            u2035 0715  
                          u1331 009F                            u2211 0113                            u1260 0F14  
                          u2140 07AF                            u1340 00A7                            u1420 0034  
                          u1500 0FBA                            u2300 0179                            u1261 0F13  
                          u1245 0F45                            u2141 07AE                            u2045 072C  
                          u1341 00A6                            u1325 0090                            u1421 0033  
                          u1501 0FB9                            u2301 0178                            u2205 0106  
                          u1270 0EF0                            u1510 02CF                            u2150 07C9  
                          u2070 074B                            u2230 0136                            u1271 0EEF  
                          u1511 02CE                            u2151 07C8                            u2135 078D  
                          u2071 074A                            u1415 0024                            u2231 0135  
                          u1520 02D5                            u2160 07E7                            u2080 0750  
                          u1360 00B8                            u1280 005A                            u1440 0048  
                          u2320 01C5           ??_LCD_GotoCursor_Char 007A                            u1521 02D4  
                          u2161 07E6                            u2145 07AB                            u2081 074F  
                          u2065 073A                            u1361 00B7                            u1281 0059  
                          u1441 0047                            u1425 0030                            u2225 0128  
                          u2321 01C4                            u1530 02DA                            u2090 0764  
                          u1370 00BD                            u1290 0071                            u1450 0F8B  
                          u2250 0146                            u2170 00CF                            u2330 01CA  
                          u1195 0EB5                            u1531 02D9                            u2155 07C5  
                          u2091 0763                            u1371 00BC                            u1355 00AA  
                          u1435 003C                            u1451 0F8A                            u2251 0145  
                          u2171 00CE                            u2331 01C9                            u1700 03F0  
                          u1620 0390                            u1540 02FC                            u1380 0011  
                          u2260 014C                            u2180 00D3                            u1701 03EF  
                          u1621 038F                            u1605 037C                            u1541 02FB  
                          u1381 0010                            u2261 014B                            u2245 013B  
                          u2181 00D2                            u1710 03F5                            u1550 0302  
                          u1470 0F9D                            u2270 0150                            u2190 00F3  
                          u2350 01E9                            u2407 0FDD                            u1711 03F4  
                          u1615 0385                            u1551 0301                            u1295 006C  
                          u1471 0F9C                            u2271 014F                            u2191 00F2  
                          u2351 01E8                            u1720 0409                            u1640 03AC  
                          u1560 0307                            u1800 04AC                            u1480 0FA7  
                          u2280 0165                            u2360 01F2                            u2417 0EA6  
                          u1721 0408                            u1641 03AB                            u1561 0306  
                          u1801 04AB                            u1481 0FA6                            u1465 0F8F  
                          u2361 01F1                            u2345 01D3                            u1730 0410  
                          u1650 03C5                            u1570 0322                            u1810 04B2  
                          u2290 0175                            u2427 0F76                            u1731 040F  
                          u1651 03C4                            u1635 0393                            u1571 0321  
                          u1811 04B1                            u1395 0015                            u2291 0174  
                          u1740 0416                            u1660 03CD                            u1580 0340  
                          u1820 04B7                            u2437 0F80                            u1741 0415  
                          u1661 03CC                            u1645 03A8                            u1581 033F  
                          u1901 0598                            u1821 04B6                            u1485 0FA3  
                          u2285 0160                            u1750 0428                            u1590 037A  
                          u1902 059F                            u1830 04D8                            u2447 0EC3  
                          u1751 0427                            u1591 0379                            u1911 05B4  
                          u1903 05A6                            u1831 04D7                            u1495 0FAE  
                          u1760 0437                            u1680 03DC                            u1912 05BB  
                          u1840 04DE                            u1681 03DB                            u1913 05C2  
                          u1841 04DD                            u2377 01BA                            u1770 0454  
                          u1850 04E3                            u1771 0453                            u1675 03D1  
                          u1931 05EA                            u1851 04E2                            u2387 02B3  
                          u1780 0471                            u1932 05F1                            u1860 04FA  
                          u2397 0FCE                            u1781 0470                            u1765 0432  
                          u1941 0617                            u1933 05F8                            u1925 05C4  
                          u1861 04F9                            u1790 0488                            u1942 061E  
                          u1870 04FF                            u1791 0487                            u1775 0450  
                          u1695 03DF                            u1943 0625                            u1871 04FE  
                          u1785 046D                            u1961 064D                            u1881 0550  
                          u1962 0654                            u1882 0557                            u1971 067A  
                          u1963 065B                            u1955 0627                            u1891 056C  
                          u1883 055E                            u1972 0681                            u1892 0573  
                          u1981 06A7                            u1973 0688                            u1893 057A  
                          u1990 06D1                            u1982 06AE                            u1983 06B5  
                          u1995 06CC                            _main 0183                            btemp 007E  
                          start 0000                 ___fldiv@new_exp 004C                  ??_LCD_Cmd_Init 0070  
              __end_of_LCD_Char 0EC8                __end_of_LCD_Init 1000                    main@distance 0062  
                 ___fltol@sign1 005D                           ?_main 0070                 __end_of___fldiv 049B  
               __end_of___flmul 07FC                 __end_of___fltol 00C9        LCD_GotoCursor_String@cmd 007C  
      LCD_GotoCursor_String@col 0076                 __end_of___lwdiv 004D                 __end_of___lwmod 0FBF  
      LCD_GotoCursor_String@row 0079        LCD_GotoCursor_String@str 0077                           _TMR1H 000F  
                         _TMR1L 000E                           _PORTC 0007                           _TRISC 0087  
                   LCD_String@i 0075                           pclath 000A                           status 0003  
                         wtemp0 007E             __size_of_LCD_String 0022                 __initialization 07FC  
                  __end_of_main 02BE                          ??_main 005F                       ??_LCD_Cmd 0070  
                        _ADCON1 009F         _LCD_GotoCursor_Char$149 0021                __end_of___xxtofl 0183  
       ??_LCD_GotoCursor_String 0078                       ??___fldiv 0042                       ??___flmul 0028  
                     ??___fltol 0058                       ??___lwdiv 0074                       ??___lwmod 007C  
            __size_of__Umul8_16 0027            __end_of_LCD_Cmd_Init 0EAA                    ___xxtofl@arg 007A  
                  ___xxtofl@exp 0079                    ___xxtofl@val 0070                       ?_LCD_Char 0070  
       __end_of__initialization 07FC                       ?_LCD_Init 0070                      ___fltol@f1 0054  
                     LCD_Char@c 0072                  __pcstackCOMMON 0070                    ??_LCD_String 0073  
                    ??_LCD_Char 0070                      ??_LCD_Init 0073              __end_of_LCD_String 0EEA  
             __end_of__Umul8_16 0F57                      __pmaintext 0183                         _LCD_Cmd 0F57  
                     ?___xxtofl 0070     __end_of_LCD_GotoCursor_Char 0F30            LCD_GotoCursor_Char@c 0079  
                    __stringtab 0800                   LCD_String@str 0074                         ___fldiv 02BE  
                       ___flmul 049B                         ___fltol 004D                         ___lwdiv 0009  
                       ___lwmod 0F85                         __ptext1 00C9                         __ptext2 0F85  
                       __ptext3 0009                         __ptext4 004D                         __ptext5 049B  
                       __ptext6 0F30                         __ptext7 02BE                         __ptext8 0FBF  
                       __ptext9 0E9C                       _T1CONbits 0010           __size_of_LCD_Cmd_Init 000E  
                    ??___xxtofl 0074            end_of_initialization 07FC          LCD_GotoCursor_Char@cmd 0023  
        LCD_GotoCursor_Char@col 0078          LCD_GotoCursor_Char@row 0020  __size_of_LCD_GotoCursor_String 0022  
 __end_of_LCD_GotoCursor_String 0F0C                    _LCD_Cmd_Init 0E9C                       _PORTBbits 0006  
                 ___xxtofl@sign 0078                       _TRISBbits 0086                     ___fldiv@grs 004E  
                   ___fldiv@rem 0047                     ___flmul@grs 002E                      LCD_Cmd@cmd 0072  
             __size_of_LCD_Char 001E               __size_of_LCD_Init 0041       _LCD_GotoCursor_String$155 007A  
           start_initialization 07FC                       __Umul8_16 0F30                        ?_LCD_Cmd 0070  
                     ___fldiv@a 003A                       ___fldiv@b 003E                       ___flmul@a 0024  
                     ___flmul@b 0020                       ___latbits 0002                   __pcstackBANK0 0020  
             __size_of___xxtofl 00BA                ___lwdiv@dividend 0072                        ?___fldiv 003A  
                      ?___flmul 0020                        ?___fltol 0054                      ?__Umul8_16 0070  
                      ?___lwdiv 0070                        ?___lwmod 0078                       __pstrings 0800  
               LCD_Cmd_Init@cmd 0071                ___lwdiv@quotient 0075    __size_of_LCD_GotoCursor_Char 0024  
                      _LCD_Char 0EAA                        _LCD_Init 0FBF                     __stringbase 0805  
              __size_of_LCD_Cmd 002E                     ??__Umul8_16 0072           _LCD_GotoCursor_String 0EEA  
              __size_of___fldiv 01DD                __size_of___flmul 0361                __size_of___fltol 007C  
              __size_of___lwdiv 0044                __size_of___lwmod 003A              __end_of__stringtab 0806  
                      ___xxtofl 00C9                 ___lwdiv@divisor 0070                 ___lwdiv@counter 0077  
                      __ptext10 0EEA                        __ptext11 0EC8                        __ptext12 0F0C  
                      __ptext13 0F57                        __ptext14 0EAA                   __size_of_main 013B  
                      main@time 0064                      _LCD_String 0EC8                ___lwmod@dividend 007A  
                     stringcode 0800          ?_LCD_GotoCursor_String 0076             _LCD_GotoCursor_Char 0F0C  
        __Umul8_16@multiplicand 0070                 ___lwmod@divisor 0078                 ___lwmod@counter 007D  
                      stringdir 0800                        stringtab 0800            ?_LCD_GotoCursor_Char 0078  
          __Umul8_16@multiplier 0078               __Umul8_16@product 0074  
